Archive member included because of file (symbol)

libs/GNU_ARM_RELEASE/RSA.lib(RSA_dec.o)
                              Obj/RELEASE_T2/LineEncryption.o (RSA_Decrypt)
libs/GNU_ARM_RELEASE/RSA.lib(RSA_init.o)
                              Obj/RELEASE_T2/LineEncryption.o (RSA_init)
libs/GNU_ARM_RELEASE/RSA.lib(m_add.o)
                              libs/GNU_ARM_RELEASE/RSA.lib(RSA_dec.o) (math_add)
libs/GNU_ARM_RELEASE/RSA.lib(m_b2w.o)
                              libs/GNU_ARM_RELEASE/RSA.lib(RSA_dec.o) (math_byteToWord)
libs/GNU_ARM_RELEASE/RSA.lib(m_clr.o)
                              libs/GNU_ARM_RELEASE/RSA.lib(RSA_dec.o) (math_clr)
libs/GNU_ARM_RELEASE/RSA.lib(m_cmp.o)
                              libs/GNU_ARM_RELEASE/RSA.lib(RSA_dec.o) (math_cmp)
libs/GNU_ARM_RELEASE/RSA.lib(m_cpy.o)
                              libs/GNU_ARM_RELEASE/RSA.lib(RSA_dec.o) (math_cpy)
libs/GNU_ARM_RELEASE/RSA.lib(m_div.o)
                              libs/GNU_ARM_RELEASE/RSA.lib(RSA_dec.o) (math_div)
libs/GNU_ARM_RELEASE/RSA.lib(m_mem.o)
                              libs/GNU_ARM_RELEASE/RSA.lib(RSA_init.o) (math_memInit)
libs/GNU_ARM_RELEASE/RSA.lib(m_modmul.o)
                              libs/GNU_ARM_RELEASE/RSA.lib(RSA_dec.o) (math_modmul)
libs/GNU_ARM_RELEASE/RSA.lib(m_monexp.o)
                              libs/GNU_ARM_RELEASE/RSA.lib(RSA_dec.o) (math_monexp)
libs/GNU_ARM_RELEASE/RSA.lib(m_moninv.o)
                              libs/GNU_ARM_RELEASE/RSA.lib(m_monexp.o) (math_moninv)
libs/GNU_ARM_RELEASE/RSA.lib(m_monmul.o)
                              libs/GNU_ARM_RELEASE/RSA.lib(m_monexp.o) (math_monmul)
libs/GNU_ARM_RELEASE/RSA.lib(m_msb.o)
                              libs/GNU_ARM_RELEASE/RSA.lib(m_div.o) (math_msb)
libs/GNU_ARM_RELEASE/RSA.lib(m_mul.o)
                              libs/GNU_ARM_RELEASE/RSA.lib(RSA_dec.o) (math_mul)
libs/GNU_ARM_RELEASE/RSA.lib(m_mulsub.o)
                              libs/GNU_ARM_RELEASE/RSA.lib(m_div.o) (math_mulsub)
libs/GNU_ARM_RELEASE/RSA.lib(m_rand.o)
                              libs/GNU_ARM_RELEASE/RSA.lib(RSA_init.o) (math_random_init)
libs/GNU_ARM_RELEASE/RSA.lib(m_red.o)
                              libs/GNU_ARM_RELEASE/RSA.lib(m_monmul.o) (math_monred)
libs/GNU_ARM_RELEASE/RSA.lib(m_shlx.o)
                              libs/GNU_ARM_RELEASE/RSA.lib(m_div.o) (math_shlx)
libs/GNU_ARM_RELEASE/RSA.lib(m_shrx.o)
                              libs/GNU_ARM_RELEASE/RSA.lib(m_div.o) (math_shrx)
libs/GNU_ARM_RELEASE/RSA.lib(m_sub.o)
                              libs/GNU_ARM_RELEASE/RSA.lib(RSA_dec.o) (math_sub)
libs/GNU_ARM_RELEASE/RSA.lib(m_w2b.o)
                              libs/GNU_ARM_RELEASE/RSA.lib(RSA_dec.o) (math_wordToByte)
C:/Program Files/SDK30/SDK 9.20.0.01/SDK/lib_gnu/eft30.lib(iam1.o)
                              Obj/RELEASE_T2/sgm.o (Send_Message)
C:/Program Files/SDK30/SDK 9.20.0.01/SDK/lib_gnu/eft30.lib(iamtd1.o)
                              C:/Program Files/SDK30/SDK 9.20.0.01/SDK/lib_gnu/eft30.lib(iam1.o) (iamlib_open)
C:/Program Files/SDK30/SDK 9.20.0.01/SDK/lib_gnu/eft30.lib(extens280.o)
                              Obj/RELEASE_T2/tlmemv.o (USR_ServiceCall)
C:/Program Files/SDK30/SDK 9.20.0.01/SDK/lib_gnu/eft30.lib(extens53.o)
                              Obj/RELEASE_T2/tlm.o (d_tolong)
C:/Program Files/SDK30/SDK 9.20.0.01/SDK/lib_gnu/eft30.lib(extens89.o)
                              Obj/RELEASE_T2/tlm.o (GetSemaphoreUser)
C:/Program Files/SDK30/SDK 9.20.0.01/SDK/lib_gnu/eft30.lib(extens90.o)
                              Obj/RELEASE_T2/tlm.o (FreeSemaphoreUser)
C:/Program Files/SDK30/SDK 9.20.0.01/SDK/lib_gnu/eft30.lib(extens93.o)
                              Obj/RELEASE_T2/tlm.o (GetDelayUser)
C:/Program Files/SDK30/SDK 9.20.0.01/SDK/lib_gnu/eft30.lib(extens94.o)
                              Obj/RELEASE_T2/tlm.o (FreeDelayUser)
C:/Program Files/SDK30/SDK 9.20.0.01/SDK/lib_gnu/eft30.lib(extenstd1.o)
                              C:/Program Files/SDK30/SDK 9.20.0.01/SDK/lib_gnu/eft30.lib(extens280.o) (extenslib_open)
C:/Program Files/SDK30/SDK 9.20.0.01/SDK/lib_gnu/eft30.lib(extenstdeux5.o)
                              Obj/RELEASE_T2/sgm.o (Get_TypeCode)
C:/Program Files/SDK30/SDK 9.20.0.01/SDK/lib_gnu/eft30.lib(extensostd119.o)
                              Obj/RELEASE_T2/tlmhmi.o (StateHeader)
C:/Program Files/SDK30/SDK 9.20.0.01/SDK/lib_gnu/eft30.lib(param17.o)
                              Obj/RELEASE_T2/tlm.o (PSQ_Donner_noserie)
C:/Program Files/SDK30/SDK 9.20.0.01/SDK/lib_gnu/eft30.lib(param46.o)
                              Obj/RELEASE_T2/sgm.o (PSQ_Update_Cash_Connection)
C:/Program Files/SDK30/SDK 9.20.0.01/SDK/lib_gnu/eft30.lib(param72.o)
                              Obj/RELEASE_T2/tlmcry.o (PSQ_donner_type_pinpad)
C:/Program Files/SDK30/SDK 9.20.0.01/SDK/lib_gnu/eft30.lib(paramtd1.o)
                              C:/Program Files/SDK30/SDK 9.20.0.01/SDK/lib_gnu/eft30.lib(param17.o) (paramlib_open)
C:/Program Files/SDK30/SDK 9.20.0.01/SDK/lib_gnu/eft30.lib(crypto2.o)
                              Obj/RELEASE_T2/LineEncryption.o (ShaCompute)
C:/Program Files/SDK30/SDK 9.20.0.01/SDK/lib_gnu/eft30.lib(cryptotd1.o)
                              C:/Program Files/SDK30/SDK 9.20.0.01/SDK/lib_gnu/eft30.lib(crypto2.o) (Crypto_Dll_Open)
C:/Program Files/SDK30/SDK 9.20.0.01/SDK/lib_gnu/eft30.lib(pinpad10.o)
                              Obj/RELEASE_T2/tlmcry.o (PPS_firstline)
C:/Program Files/SDK30/SDK 9.20.0.01/SDK/lib_gnu/eft30.lib(pinpad12.o)
                              Obj/RELEASE_T2/tlmcry.o (PPS_Display)
C:/Program Files/SDK30/SDK 9.20.0.01/SDK/lib_gnu/eft30.lib(pinpad15.o)
                              Obj/RELEASE_T2/tlmcry.o (PPS_clear_display)
C:/Program Files/SDK30/SDK 9.20.0.01/SDK/lib_gnu/eft30.lib(pinpad8.o)
                              Obj/RELEASE_T2/tlmcry.o (PPS_newline)
C:/Program Files/SDK30/SDK 9.20.0.01/SDK/lib_gnu/eft30.lib(pinpad9.o)
                              Obj/RELEASE_T2/tlmcry.o (PPS_clearline)
C:/Program Files/SDK30/SDK 9.20.0.01/SDK/lib_gnu/eft30.lib(pinpadtd1.o)
                              C:/Program Files/SDK30/SDK 9.20.0.01/SDK/lib_gnu/eft30.lib(pinpad10.o) (pinpadlib_open)
C:/Program Files/SDK30/SDK 9.20.0.01/SDK/lib_gnu/eft30.lib(sv24.o)
                              Obj/RELEASE_T2/tlm.o (SV_read_date)
C:/Program Files/SDK30/SDK 9.20.0.01/SDK/lib_gnu/eft30.lib(sv25.o)
                              Obj/RELEASE_T2/tlm.o (SV_write_date)
C:/Program Files/SDK30/SDK 9.20.0.01/SDK/lib_gnu/eft30.lib(svtd1.o)
                              C:/Program Files/SDK30/SDK 9.20.0.01/SDK/lib_gnu/eft30.lib(sv24.o) (svlib_open)
C:/Program Files/SDK30/SDK 9.20.0.01/SDK/lib_gnu/eft30.lib(svtd21.o)
                              Obj/RELEASE_T2/tlm.o (SV_input_command)
C:/Program Files/SDK30/SDK 9.20.0.01/SDK/lib_gnu/eft30.lib(svtd22.o)
                              Obj/RELEASE_T2/tlm.o (SV_output_command)
C:/Program Files/SDK30/SDK 9.20.0.01/SDK/lib_gnu/eft30.lib(svtd23.o)
                              Obj/RELEASE_T2/tlm.o (SV_power_on)
C:/Program Files/SDK30/SDK 9.20.0.01/SDK/lib_gnu/eft30.lib(libgr137.o)
                              Obj/RELEASE_T2/tlmhmi.o (PaintGraphics)
C:/Program Files/SDK30/SDK 9.20.0.01/SDK/lib_gnu/eft30.lib(libgr35.o)
                              Obj/RELEASE_T2/tlmhmi.o (_clrscr)
C:/Program Files/SDK30/SDK 9.20.0.01/SDK/lib_gnu/eft30.lib(libgr40.o)
                              Obj/RELEASE_T2/tlmhmi.o (InitContexteGraphique)
C:/Program Files/SDK30/SDK 9.20.0.01/SDK/lib_gnu/eft30.lib(libgr41.o)
                              Obj/RELEASE_T2/sgm.o (DisplayBitmap)
C:/Program Files/SDK30/SDK 9.20.0.01/SDK/lib_gnu/eft30.lib(libgr49.o)
                              Obj/RELEASE_T2/sgm.o (GetDefaultFont)
C:/Program Files/SDK30/SDK 9.20.0.01/SDK/lib_gnu/eft30.lib(libgr54.o)
                              Obj/RELEASE_T2/tlmhmi.o (DefCurrentFont)
C:/Program Files/SDK30/SDK 9.20.0.01/SDK/lib_gnu/eft30.lib(libgr55.o)
                              Obj/RELEASE_T2/tlmhmi.o (DrawExtendedString8859)
C:/Program Files/SDK30/SDK 9.20.0.01/SDK/lib_gnu/eft30.lib(libgr58.o)
                              Obj/RELEASE_T2/tlmhmi.o (pprintf8859)
C:/Program Files/SDK30/SDK 9.20.0.01/SDK/lib_gnu/eft30.lib(libgr66.o)
                              Obj/RELEASE_T2/tlmhmi.o (GetExtendedPoliceSize)
C:/Program Files/SDK30/SDK 9.20.0.01/SDK/lib_gnu/eft30.lib(libgr68.o)
                              Obj/RELEASE_T2/tlmhmi.o (LoadFont)
C:/Program Files/SDK30/SDK 9.20.0.01/SDK/lib_gnu/eft30.lib(libgr7.o)
                              Obj/RELEASE_T2/tlmhmi.o (CreateGraphics)
C:/Program Files/SDK30/SDK 9.20.0.01/SDK/lib_gnu/eft30.lib(libgr8.o)
                              Obj/RELEASE_T2/tlmhmi.o (_SetPixel)
C:/Program Files/SDK30/SDK 9.20.0.01/SDK/lib_gnu/eft30.lib(libgr82.o)
                              Obj/RELEASE_T2/tlmhmi.o (PaintPrinterGraphics)
C:/Program Files/SDK30/SDK 9.20.0.01/SDK/lib_gnu/eft30.lib(libgr83.o)
                              Obj/RELEASE_T2/tlmhmi.o (InitPrinterBitmap)
C:/Program Files/SDK30/SDK 9.20.0.01/SDK/lib_gnu/eft30.lib(libgr86.o)
                              Obj/RELEASE_T2/tlmhmi.o (_pprintf8859XY)
C:/Program Files/SDK30/SDK 9.20.0.01/SDK/lib_gnu/eft30.lib(libgrtd1.o)
                              C:/Program Files/SDK30/SDK 9.20.0.01/SDK/lib_gnu/eft30.lib(libgr137.o) (libgrlib_open)
C:/Program Files/SDK30/SDK 9.20.0.01/SDK/lib_gnu/eft30.lib(Tools35.o)
                              C:/Program Files/SDK30/SDK 9.20.0.01/SDK/lib_gnu/eft30.lib(sv24.o) (TM_read_date)
C:/Program Files/SDK30/SDK 9.20.0.01/SDK/lib_gnu/eft30.lib(Tools36.o)
                              C:/Program Files/SDK30/SDK 9.20.0.01/SDK/lib_gnu/eft30.lib(sv25.o) (TM_write_date)
C:/Program Files/SDK30/SDK 9.20.0.01/SDK/lib_gnu/eft30.lib(Toolstd1.o)
                              C:/Program Files/SDK30/SDK 9.20.0.01/SDK/lib_gnu/eft30.lib(Tools35.o) (toolslib_open)
C:/Program Files/SDK30/SDK 9.20.0.01/SDK/lib_gnu/eft30.lib(gprstd1.o)
                              Obj/RELEASE_T2/tlmchn.o (gprslib_open)
C:/Program Files/SDK30/SDK 9.20.0.01/SDK/lib_gnu/eft30.lib(LibAppliT2.o)
                              Obj/RELEASE_T2/tlmhmi.o (fprintf)
C:/Program Files/SDK30/SDK 9.20.0.01/SDK/lib_gnu/eft30.lib(Telium_Exit.o)
                              C:/Program Files/SDK30/SDK 9.20.0.01/SDK/lib_gnu/eft30.lib(iam1.o) (Telium_Exit)
C:/Program Files/SDK30/SDK 9.20.0.01/SDK/lib_gnu/eft30.lib(extens252.o)
                              C:/Program Files/SDK30/SDK 9.20.0.01/SDK/lib_gnu/eft30.lib(libgr40.o) (TM_InitContexteGraphique)
C:/Program Files/SDK30/SDK 9.20.0.01/SDK/lib_gnu/trap.lib(trap_1302___STDOUT.o)
                              C:/Program Files/SDK30/SDK 9.20.0.01/SDK/lib_gnu/eft30.lib(LibAppliT2.o) (__STDOUT)
C:/Program Files/SDK30/SDK 9.20.0.01/SDK/lib_gnu/trap.lib(trap_1303_OS_rtc_CurrentTask.o)
                              Obj/RELEASE_T2/tlm.o (OS_rtc_CurrentTask)
C:/Program Files/SDK30/SDK 9.20.0.01/SDK/lib_gnu/trap.lib(trap_1305_OS_rtc_SignalEvent.o)
                              Obj/RELEASE_T2/sgm.o (OS_rtc_SignalEvent)
C:/Program Files/SDK30/SDK 9.20.0.01/SDK/lib_gnu/trap.lib(trap_1307_OS_rtc_V.o)
                              Obj/RELEASE_T2/tlm.o (OS_rtc_V)
C:/Program Files/SDK30/SDK 9.20.0.01/SDK/lib_gnu/trap.lib(trap_1308_OS_rtc_P.o)
                              Obj/RELEASE_T2/tlm.o (OS_rtc_P)
C:/Program Files/SDK30/SDK 9.20.0.01/SDK/lib_gnu/trap.lib(trap_1309_OS_rtc_StartLDelay.o)
                              Obj/RELEASE_T2/tlm.o (OS_rtc_StartLDelay)
C:/Program Files/SDK30/SDK 9.20.0.01/SDK/lib_gnu/trap.lib(trap_130A_OS_rtc_StopDelay.o)
                              Obj/RELEASE_T2/tlm.o (OS_rtc_StopDelay)
C:/Program Files/SDK30/SDK 9.20.0.01/SDK/lib_gnu/trap.lib(trap_130D_OS_rtc_InitSemaphore.o)
                              Obj/RELEASE_T2/tlm.o (OS_rtc_InitSemaphore)
C:/Program Files/SDK30/SDK 9.20.0.01/SDK/lib_gnu/trap.lib(trap_1313_fclose.o)
                              Obj/RELEASE_T2/tlm.o (fclose)
C:/Program Files/SDK30/SDK 9.20.0.01/SDK/lib_gnu/trap.lib(trap_1314_fopen.o)
                              Obj/RELEASE_T2/tlm.o (fopen)
C:/Program Files/SDK30/SDK 9.20.0.01/SDK/lib_gnu/trap.lib(trap_1315_fread.o)
                              Obj/RELEASE_T2/sgm.o (fread)
C:/Program Files/SDK30/SDK 9.20.0.01/SDK/lib_gnu/trap.lib(trap_1316_fwrite.o)
                              Obj/RELEASE_T2/sgm.o (fwrite)
C:/Program Files/SDK30/SDK 9.20.0.01/SDK/lib_gnu/trap.lib(trap_1319_getc.o)
                              Obj/RELEASE_T2/tlmhmi.o (getc)
C:/Program Files/SDK30/SDK 9.20.0.01/SDK/lib_gnu/trap.lib(trap_131A_reset_buf.o)
                              Obj/RELEASE_T2/tlm.o (reset_buf)
C:/Program Files/SDK30/SDK 9.20.0.01/SDK/lib_gnu/trap.lib(trap_131B___STDIN.o)
                              Obj/RELEASE_T2/tlmhmi.o (__STDIN)
C:/Program Files/SDK30/SDK 9.20.0.01/SDK/lib_gnu/trap.lib(trap_131E_status.o)
                              Obj/RELEASE_T2/tlm.o (status)
C:/Program Files/SDK30/SDK 9.20.0.01/SDK/lib_gnu/trap.lib(trap_1320_gotoxy.o)
                              Obj/RELEASE_T2/function.o (gotoxy)
C:/Program Files/SDK30/SDK 9.20.0.01/SDK/lib_gnu/trap.lib(trap_1323__vfprintf.o)
                              C:/Program Files/SDK30/SDK 9.20.0.01/SDK/lib_gnu/eft30.lib(LibAppliT2.o) (_vfprintf)
C:/Program Files/SDK30/SDK 9.20.0.01/SDK/lib_gnu/trap.lib(trap_1324_vsprintf.o)
                              C:/Program Files/SDK30/SDK 9.20.0.01/SDK/lib_gnu/eft30.lib(LibAppliT2.o) (vsprintf)
C:/Program Files/SDK30/SDK 9.20.0.01/SDK/lib_gnu/trap.lib(trap_1325_fgets.o)
                              Obj/RELEASE_T2/bignum.o (fgets)
C:/Program Files/SDK30/SDK 9.20.0.01/SDK/lib_gnu/trap.lib(trap_1328_putc.o)
                              C:/Program Files/SDK30/SDK 9.20.0.01/SDK/lib_gnu/eft30.lib(LibAppliT2.o) (putc)
C:/Program Files/SDK30/SDK 9.20.0.01/SDK/lib_gnu/trap.lib(trap_1329_ttestall.o)
                              Obj/RELEASE_T2/tlm.o (ttestall)
C:/Program Files/SDK30/SDK 9.20.0.01/SDK/lib_gnu/trap.lib(trap_132A_fork.o)
                              Obj/RELEASE_T2/tlm.o (fork)
C:/Program Files/SDK30/SDK 9.20.0.01/SDK/lib_gnu/trap.lib(trap_132B_kill.o)
                              Obj/RELEASE_T2/tlm.o (kill)
C:/Program Files/SDK30/SDK 9.20.0.01/SDK/lib_gnu/trap.lib(trap_132C_FormatOem.o)
                              C:/Program Files/SDK30/SDK 9.20.0.01/SDK/lib_gnu/eft30.lib(LibAppliT2.o) (FormatOem)
C:/Program Files/SDK30/SDK 9.20.0.01/SDK/lib_gnu/trap.lib(trap_1332_EMV_apdu.o)
                              Obj/RELEASE_T2/tlm.o (EMV_apdu)
C:/Program Files/SDK30/SDK 9.20.0.01/SDK/lib_gnu/trap.lib(trap_1335_EMV_power_on.o)
                              Obj/RELEASE_T2/tlm.o (EMV_power_on)
C:/Program Files/SDK30/SDK 9.20.0.01/SDK/lib_gnu/trap.lib(trap_1336_power_on.o)
                              C:/Program Files/SDK30/SDK 9.20.0.01/SDK/lib_gnu/eft30.lib(svtd23.o) (power_on)
C:/Program Files/SDK30/SDK 9.20.0.01/SDK/lib_gnu/trap.lib(trap_1338_input_command.o)
                              C:/Program Files/SDK30/SDK 9.20.0.01/SDK/lib_gnu/eft30.lib(svtd21.o) (input_command)
C:/Program Files/SDK30/SDK 9.20.0.01/SDK/lib_gnu/trap.lib(trap_1339_output_command.o)
                              C:/Program Files/SDK30/SDK 9.20.0.01/SDK/lib_gnu/eft30.lib(svtd22.o) (output_command)
C:/Program Files/SDK30/SDK 9.20.0.01/SDK/lib_gnu/trap.lib(trap_1348_ObjectGetInfo.o)
                              Obj/RELEASE_T2/tlm.o (ObjectGetInfo)
C:/Program Files/SDK30/SDK 9.20.0.01/SDK/lib_gnu/trap.lib(trap_1349_ObjectLoad.o)
                              C:/Program Files/SDK30/SDK 9.20.0.01/SDK/lib_gnu/eft30.lib(iamtd1.o) (ObjectLoad)
C:/Program Files/SDK30/SDK 9.20.0.01/SDK/lib_gnu/trap.lib(trap_134D_ServiceRegister.o)
                              Obj/RELEASE_T2/Main.o (ServiceRegister)
C:/Program Files/SDK30/SDK 9.20.0.01/SDK/lib_gnu/trap.lib(trap_134E_ServiceGet.o)
                              Obj/RELEASE_T2/tlmemv.o (ServiceGet)
C:/Program Files/SDK30/SDK 9.20.0.01/SDK/lib_gnu/trap.lib(trap_1350_DllLink.o)
                              C:/Program Files/SDK30/SDK 9.20.0.01/SDK/lib_gnu/eft30.lib(iamtd1.o) (DllLink)
C:/Program Files/SDK30/SDK 9.20.0.01/SDK/lib_gnu/trap.lib(trap_1352_DllUnlink.o)
                              C:/Program Files/SDK30/SDK 9.20.0.01/SDK/lib_gnu/eft30.lib(iamtd1.o) (DllUnlink)
C:/Program Files/SDK30/SDK 9.20.0.01/SDK/lib_gnu/trap.lib(trap_1356_stdperif.o)
                              Obj/RELEASE_T2/tlmchn.o (stdperif)
C:/Program Files/SDK30/SDK 9.20.0.01/SDK/lib_gnu/trap.lib(trap_135B_StartRetroEclairage.o)
                              Obj/RELEASE_T2/tlmhmi.o (StartRetroEclairage)
C:/Program Files/SDK30/SDK 9.20.0.01/SDK/lib_gnu/trap.lib(trap_135C_StopRetroEclairage.o)
                              Obj/RELEASE_T2/tlmhmi.o (StopRetroEclairage)
C:/Program Files/SDK30/SDK 9.20.0.01/SDK/lib_gnu/trap.lib(trap_1369_startupcv20.o)
                              Obj/RELEASE_T2/function.o (startupcv20)
C:/Program Files/SDK30/SDK 9.20.0.01/SDK/lib_gnu/trap.lib(trap_1373_ctrl_date.o)
                              Obj/RELEASE_T2/tlm.o (ctrl_date)
C:/Program Files/SDK30/SDK 9.20.0.01/SDK/lib_gnu/trap.lib(trap_1374_defprinterpattern.o)
                              Obj/RELEASE_T2/tlmhmi.o (defprinterpattern)
C:/Program Files/SDK30/SDK 9.20.0.01/SDK/lib_gnu/trap.lib(trap_1375_download.o)
                              C:/Program Files/SDK30/SDK 9.20.0.01/SDK/lib_gnu/eft30.lib(LibAppliT2.o) (download)
C:/Program Files/SDK30/SDK 9.20.0.01/SDK/lib_gnu/trap.lib(trap_1378_OEM_exit.o)
                              Obj/RELEASE_T2/tlm.o (OEM_exit)
C:/Program Files/SDK30/SDK 9.20.0.01/SDK/lib_gnu/trap.lib(trap_137B_is_iso2.o)
                              Obj/RELEASE_T2/tlm.o (is_iso2)
C:/Program Files/SDK30/SDK 9.20.0.01/SDK/lib_gnu/trap.lib(trap_137C_is_iso3.o)
                              Obj/RELEASE_T2/tlm.o (is_iso3)
C:/Program Files/SDK30/SDK 9.20.0.01/SDK/lib_gnu/trap.lib(trap_137D_is_iso1.o)
                              Obj/RELEASE_T2/tlm.o (is_iso1)
C:/Program Files/SDK30/SDK 9.20.0.01/SDK/lib_gnu/trap.lib(trap_138B_FS_dskcreate.o)
                              Obj/RELEASE_T2/tlmmem.o (FS_dskcreate)
C:/Program Files/SDK30/SDK 9.20.0.01/SDK/lib_gnu/trap.lib(trap_138D_FS_mount.o)
                              Obj/RELEASE_T2/tlmmem.o (FS_mount)
C:/Program Files/SDK30/SDK 9.20.0.01/SDK/lib_gnu/trap.lib(trap_138E_FS_unmount.o)
                              Obj/RELEASE_T2/tlmmem.o (FS_unmount)
C:/Program Files/SDK30/SDK 9.20.0.01/SDK/lib_gnu/trap.lib(trap_1395_FS_opendir.o)
                              Obj/RELEASE_T2/sgm.o (FS_opendir)
C:/Program Files/SDK30/SDK 9.20.0.01/SDK/lib_gnu/trap.lib(trap_1396_FS_readdir.o)
                              Obj/RELEASE_T2/sgm.o (FS_readdir)
C:/Program Files/SDK30/SDK 9.20.0.01/SDK/lib_gnu/trap.lib(trap_1397_FS_closedir.o)
                              Obj/RELEASE_T2/sgm.o (FS_closedir)
C:/Program Files/SDK30/SDK 9.20.0.01/SDK/lib_gnu/trap.lib(trap_1398_FS_rename.o)
                              Obj/RELEASE_T2/tlmmem.o (FS_rename)
C:/Program Files/SDK30/SDK 9.20.0.01/SDK/lib_gnu/trap.lib(trap_1399_FS_unlink.o)
                              Obj/RELEASE_T2/tlmmem.o (FS_unlink)
C:/Program Files/SDK30/SDK 9.20.0.01/SDK/lib_gnu/trap.lib(trap_139B_FS_open.o)
                              Obj/RELEASE_T2/tlmmem.o (FS_open)
C:/Program Files/SDK30/SDK 9.20.0.01/SDK/lib_gnu/trap.lib(trap_139C_FS_close.o)
                              Obj/RELEASE_T2/tlmmem.o (FS_close)
C:/Program Files/SDK30/SDK 9.20.0.01/SDK/lib_gnu/trap.lib(trap_139D_FS_read.o)
                              Obj/RELEASE_T2/tlmmem.o (FS_read)
C:/Program Files/SDK30/SDK 9.20.0.01/SDK/lib_gnu/trap.lib(trap_139E_FS_write.o)
                              Obj/RELEASE_T2/tlmmem.o (FS_write)
C:/Program Files/SDK30/SDK 9.20.0.01/SDK/lib_gnu/trap.lib(trap_139F_FS_flush.o)
                              Obj/RELEASE_T2/tlmmem.o (FS_flush)
C:/Program Files/SDK30/SDK 9.20.0.01/SDK/lib_gnu/trap.lib(trap_13A1_FS_length.o)
                              Obj/RELEASE_T2/tlmmem.o (FS_length)
C:/Program Files/SDK30/SDK 9.20.0.01/SDK/lib_gnu/trap.lib(trap_13A2_FS_seek.o)
                              Obj/RELEASE_T2/tlmmem.o (FS_seek)
C:/Program Files/SDK30/SDK 9.20.0.01/SDK/lib_gnu/trap.lib(trap_13A8_info_seg.o)
                              Obj/RELEASE_T2/Main.o (info_seg)
C:/Program Files/SDK30/SDK 9.20.0.01/SDK/lib_gnu/trap.lib(trap_13AA_num_seg.o)
                              Obj/RELEASE_T2/tlm.o (num_seg)
C:/Program Files/SDK30/SDK 9.20.0.01/SDK/lib_gnu/trap.lib(trap_13AB_first_init.o)
                              Obj/RELEASE_T2/sgm.o (first_init)
C:/Program Files/SDK30/SDK 9.20.0.01/SDK/lib_gnu/trap.lib(trap_13B2_ApplicationGetCurrent.o)
                              Obj/RELEASE_T2/tlm.o (ApplicationGetCurrent)
C:/Program Files/SDK30/SDK 9.20.0.01/SDK/lib_gnu/trap.lib(trap_13B9_buzzer.o)
                              Obj/RELEASE_T2/tlm.o (buzzer)
C:/Program Files/SDK30/SDK 9.20.0.01/SDK/lib_gnu/trap.lib(trap_13BE_GiveNoTask.o)
                              Obj/RELEASE_T2/tlm.o (GiveNoTask)
C:/Program Files/SDK30/SDK 9.20.0.01/SDK/lib_gnu/trap.lib(trap_13C2_InitGkDrv.o)
                              C:/Program Files/SDK30/SDK 9.20.0.01/SDK/lib_gnu/eft30.lib(LibAppliT2.o) (InitGkDrv)
C:/Program Files/SDK30/SDK 9.20.0.01/SDK/lib_gnu/trap.lib(trap_13CE_closesocket.o)
                              Obj/RELEASE_T2/tlmchn.o (closesocket)
C:/Program Files/SDK30/SDK 9.20.0.01/SDK/lib_gnu/trap.lib(trap_13CF_connect.o)
                              Obj/RELEASE_T2/tlmchn.o (connect)
C:/Program Files/SDK30/SDK 9.20.0.01/SDK/lib_gnu/trap.lib(trap_13D6_shutdownsocket.o)
                              Obj/RELEASE_T2/tlmchn.o (shutdownsocket)
C:/Program Files/SDK30/SDK 9.20.0.01/SDK/lib_gnu/trap.lib(trap_13D7_socket.o)
                              Obj/RELEASE_T2/tlmchn.o (socket)
C:/Program Files/SDK30/SDK 9.20.0.01/SDK/lib_gnu/trap.lib(trap_1406_umalloc.o)
                              Obj/RELEASE_T2/LineEncryption.o (umalloc)
C:/Program Files/SDK30/SDK 9.20.0.01/SDK/lib_gnu/trap.lib(trap_1407_ufree.o)
                              Obj/RELEASE_T2/LineEncryption.o (ufree)
C:/Program Files/SDK30/SDK 9.20.0.01/SDK/lib_gnu/trap.lib(trap_1414_fioctl.o)
                              Obj/RELEASE_T2/tlmchn.o (fioctl)
C:/Program Files/SDK30/SDK 9.20.0.01/SDK/lib_gnu/trap.lib(trap_1426_get_tick_counter.o)
                              Obj/RELEASE_T2/tlm.o (get_tick_counter)
C:/Program Files/SDK30/SDK 9.20.0.01/SDK/lib_gnu/trap.lib(trap_1432_SystemFioctl.o)
                              Obj/RELEASE_T2/tlm.o (SystemFioctl)
C:/Program Files/SDK30/SDK 9.20.0.01/SDK/lib_gnu/AVL.lib(Proxy.o)
                              Obj/RELEASE_T2/tlmchn.o (TlvTree_New)
C:/Program Files/SDK30/SDK 9.20.0.01/SDK/lib_gnu/AVL.lib(Serializer.o)
                              C:/Program Files/SDK30/SDK 9.20.0.01/SDK/lib_gnu/AVL.lib(Proxy.o) (__TlvTree_Serialize)
C:/Program Files/SDK30/SDK 9.20.0.01/SDK/lib_gnu/AVL.lib(Serializer_Default.o)
                              C:/Program Files/SDK30/SDK 9.20.0.01/SDK/lib_gnu/AVL.lib(Serializer.o) (__TlvTree_Serialize_Default)
C:/Program Files/SDK30/SDK 9.20.0.01/SDK/lib_gnu/AVL.lib(Serializer_Xml.o)
                              C:/Program Files/SDK30/SDK 9.20.0.01/SDK/lib_gnu/AVL.lib(Serializer.o) (__TlvTree_Serialize_Xml)
C:/Program Files/SDK30/SDK 9.20.0.01/SDK/lib_gnu/AVL.lib(XMLs.o)
                              C:/Program Files/SDK30/SDK 9.20.0.01/SDK/lib_gnu/AVL.lib(Serializer_Xml.o) (XMLs_Create)
C:/Program Files/SDK30/SDK 9.20.0.01/SDK/lib_gnu/AVL.lib(XMLs_Parser.o)
                              C:/Program Files/SDK30/SDK 9.20.0.01/SDK/lib_gnu/AVL.lib(XMLs.o) (XMLs_Attributes_Open)
C:/Program Files/SDK30/SDK 9.20.0.01/SDK/lib_gnu/AVL.lib(XMLs_ProcessData.o)
                              C:/Program Files/SDK30/SDK 9.20.0.01/SDK/lib_gnu/AVL.lib(Serializer_Xml.o) (XMLs_ProcessData)
C:/Program Files/SDK30/SDK 9.20.0.01/SDK/lib_gnu/AVL.lib(XMLs_Attributes.o)
                              C:/Program Files/SDK30/SDK 9.20.0.01/SDK/lib_gnu/AVL.lib(Serializer_Xml.o) (XMLs_Attributes_GetByName)
C:/Program Files/SDK30/SDK 9.20.0.01/SDK/lib_gnu/AVL.lib(XMLs_Common.o)
                              C:/Program Files/SDK30/SDK 9.20.0.01/SDK/lib_gnu/AVL.lib(XMLs.o) (XMLs_CheckHandle)
C:/Program Files/SDK30/SDK 9.20.0.01/SDK/lib_gnu/AVL.lib(XMLs_Options.o)
                              C:/Program Files/SDK30/SDK 9.20.0.01/SDK/lib_gnu/AVL.lib(Serializer_Xml.o) (XMLs_SetOption)
C:/Program Files/SDK30/SDK 9.20.0.01/SDK/lib_gnu/AVL.lib(XMLs_Buffer.o)
                              C:/Program Files/SDK30/SDK 9.20.0.01/SDK/lib_gnu/AVL.lib(XMLs.o) (XMLs_Buffer_New)
C:/Program Files/SDK30/SDK 9.20.0.01/SDK/lib_gnu/AVL.lib(XMLs_Stream.o)
                              C:/Program Files/SDK30/SDK 9.20.0.01/SDK/lib_gnu/AVL.lib(XMLs.o) (XMLs_STREAM_Create)
C:/Program Files/SDK30/SDK 9.20.0.01/SDK/lib_gnu/AVL.lib(Internal.o)
                              C:/Program Files/SDK30/SDK 9.20.0.01/SDK/lib_gnu/AVL.lib(Proxy.o) (__TlvTree_New)
C:/Program Files/SDK30/SDK 9.20.0.01/SDK/lib_gnu/SEC.lib(SECLibOpenClose.o)
                              Obj/RELEASE_T2/tlmcry.o (SEClib_Open)
C:/Program Files/SDK30/SDK 9.20.0.01/SDK/lib_gnu/SEC.lib(SEC1.o)
                              C:/Program Files/SDK30/SDK 9.20.0.01/SDK/lib_gnu/SEC.lib(SECLibOpenClose.o) (SEC_Version)
C:/Program Files/SDK30/SDK 9.20.0.01/SDK/lib_gnu/SEC.lib(SEC7.o)
                              C:/Program Files/SDK30/SDK 9.20.0.01/SDK/lib_gnu/SEC.lib(SECLibOpenClose.o) (SEC_InitVar)
C:/Program Files/SDK30/SDK 9.20.0.01/SDK/lib_gnu/SEC.lib(SEC8.o)
                              C:/Program Files/SDK30/SDK 9.20.0.01/SDK/lib_gnu/SEC.lib(SECLibOpenClose.o) (SEC_SetConfig)
C:/Program Files/SDK30/SDK 9.20.0.01/SDK/lib_gnu/SEC.lib(SEC9.o)
                              Obj/RELEASE_T2/tlmcry.o (SEC_GetConfig)
C:/Program Files/SDK30/SDK 9.20.0.01/SDK/lib_gnu/SEC.lib(SEC10.o)
                              Obj/RELEASE_T2/tlmcry.o (SEC_listSecureId)
C:/Program Files/SDK30/SDK 9.20.0.01/SDK/lib_gnu/SEC.lib(SEC11.o)
                              Obj/RELEASE_T2/tlmcry.o (SEC_isSecretArea)
C:/Program Files/SDK30/SDK 9.20.0.01/SDK/lib_gnu/SEC.lib(SEC19.o)
                              Obj/RELEASE_T2/tlmcry.o (SEC_CreateSecretArea)
C:/Program Files/SDK30/SDK 9.20.0.01/SDK/lib_gnu/SEC.lib(SEC20.o)
                              Obj/RELEASE_T2/tlmcry.o (SEC_FreeSecret)
C:/Program Files/SDK30/SDK 9.20.0.01/SDK/lib_gnu/SEC.lib(SEC21.o)
                              Obj/RELEASE_T2/tlmcry.o (SEC_LoadKey)
C:/Program Files/SDK30/SDK 9.20.0.01/SDK/lib_gnu/SEC.lib(SEC22.o)
                              Obj/RELEASE_T2/tlmcry.o (SEC_PinEntryInit)
C:/Program Files/SDK30/SDK 9.20.0.01/SDK/lib_gnu/SEC.lib(SEC23.o)
                              Obj/RELEASE_T2/tlmcry.o (SEC_PinEntry)
C:/Program Files/SDK30/SDK 9.20.0.01/SDK/lib_gnu/SEC.lib(SEC24.o)
                              Obj/RELEASE_T2/tlmcry.o (SEC_Iso9564)
C:/Program Files/SDK30/SDK 9.20.0.01/SDK/lib_gnu/SEC.lib(SEC25.o)
                              Obj/RELEASE_T2/tlmcry.o (SEC_DukptLoadKSN)
C:/Program Files/SDK30/SDK 9.20.0.01/SDK/lib_gnu/SEC.lib(SEC26.o)
                              Obj/RELEASE_T2/tlmcry.o (SEC_DukptLoadDerivationKey)
C:/Program Files/SDK30/SDK 9.20.0.01/SDK/lib_gnu/SEC.lib(SEC28.o)
                              Obj/RELEASE_T2/tlmcry.o (SEC_DukptGenerateInitialKey)
C:/Program Files/SDK30/SDK 9.20.0.01/SDK/lib_gnu/SEC.lib(SEC31.o)
                              Obj/RELEASE_T2/tlmcry.o (SEC_DukptEncryptPin)
C:/Program Files/SDK30/SDK 9.20.0.01/SDK/lib_gnu/SEC.lib(SEC32.o)
                              Obj/RELEASE_T2/tlmcry.o (SEC_ECBCipher)
C:/Program Files/SDK30/SDK 9.20.0.01/SDK/lib_gnu/SEC.lib(SEC34.o)
                              Obj/RELEASE_T2/tlmcry.o (SEC_ComputeMAC)
C:/Program Files/SDK30/SDK 9.20.0.01/SDK/lib_gnu/SEC.lib(SEC37.o)
                              C:/Program Files/SDK30/SDK 9.20.0.01/SDK/lib_gnu/SEC.lib(SECLibOpenClose.o) (SEC_InitInstance)
C:/Program Files/SDK30/SDK 9.20.0.01/SDK/lib_gnu/IP_.lib(EthernetConfig.o)
                              Obj/RELEASE_T2/tlmchn.o (EthernetGetOption)
C:/Program Files/SDK30/SDK 9.20.0.01/SDK/lib_gnu/IP_.lib(Telium_IP_Host.o)
                              Obj/RELEASE_T2/tlmchn.o (ResolverGetOption)
C:/Program Files/SDK30/SDK 9.20.0.01/SDK/lib_gnu/IP_.lib(Telium_IP_Inet.o)
                              Obj/RELEASE_T2/tlmchn.o (__inet_addr)
C:/Program Files/SDK30/SDK 9.20.0.01/SDK/lib_gnu/IP_.lib(Telium_IP_Socket.o)
                              Obj/RELEASE_T2/tlmchn.o (sendto)
C:/Program Files/SDK30/SDK 9.20.0.01/SDK/lib_gnu/IP_.lib(PackIP_Internal.o)
                              C:/Program Files/SDK30/SDK 9.20.0.01/SDK/lib_gnu/IP_.lib(EthernetConfig.o) (__SystemFioctlSWI)
C:/Program Files/SDK30/SDK 9.20.0.01/SDK/lib_gnu/LinkLayerExeInterface.lib(LinkLayerServices.o)
                              Obj/RELEASE_T2/tlmchn.o (LL_Configure)
C:/Program Files/SDK30/SDK 9.20.0.01/SDK/lib_gnu/trap.lib(trap_1386_upload_diagnostic_txt.o)
                              C:/Program Files/SDK30/SDK 9.20.0.01/SDK/lib_gnu/LinkLayerExeInterface.lib(LinkLayerServices.o) (upload_diagnostic_txt)
C:/Program Files/SDK30/SDK 9.20.0.01/SDK/lib_gnu/trap.lib(trap_138C_FS_dskkill.o)
                              C:/Program Files/SDK30/SDK 9.20.0.01/SDK/lib_gnu/IP_.lib(EthernetConfig.o) (FS_dskkill)
C:/Program Files/SDK30/SDK 9.20.0.01/SDK/lib_gnu/trap.lib(trap_13D8_inet_addr.o)
                              C:/Program Files/SDK30/SDK 9.20.0.01/SDK/lib_gnu/IP_.lib(Telium_IP_Inet.o) (inet_addr)
C:/Program Files/SDK30/SDK 9.20.0.01/SDK/lib_gnu/trap.lib(trap_13E2_getsockoptSWI.o)
                              C:/Program Files/SDK30/SDK 9.20.0.01/SDK/lib_gnu/IP_.lib(Telium_IP_Socket.o) (getsockoptSWI)
C:/Program Files/SDK30/SDK 9.20.0.01/SDK/lib_gnu/trap.lib(trap_13E3_recvfromSWI.o)
                              C:/Program Files/SDK30/SDK 9.20.0.01/SDK/lib_gnu/IP_.lib(Telium_IP_Socket.o) (recvfromSWI)
C:/Program Files/SDK30/SDK 9.20.0.01/SDK/lib_gnu/trap.lib(trap_13E5_sendtoSWI.o)
                              C:/Program Files/SDK30/SDK 9.20.0.01/SDK/lib_gnu/IP_.lib(Telium_IP_Socket.o) (sendtoSWI)
C:/Program Files/SDK30/SDK 9.20.0.01/SDK/lib_gnu/trap.lib(trap_13E6_setsockoptSWI.o)
                              C:/Program Files/SDK30/SDK 9.20.0.01/SDK/lib_gnu/IP_.lib(Telium_IP_Socket.o) (setsockoptSWI)
C:/Program Files/SDK30/SDK 9.20.0.01/SDK/lib_gnu/trap.lib(trap_13E9_ngResolvSetOption.o)
                              C:/Program Files/SDK30/SDK 9.20.0.01/SDK/lib_gnu/IP_.lib(Telium_IP_Host.o) (ngResolvSetOption)
C:/Program Files/SDK30/SDK 9.20.0.01/SDK/lib_gnu/trap.lib(trap_13EA_ngResolvGetOption.o)
                              C:/Program Files/SDK30/SDK 9.20.0.01/SDK/lib_gnu/IP_.lib(Telium_IP_Host.o) (ngResolvGetOption)
C:/Program Files/SDK30/SDK 9.20.0.01/SDK/lib_gnu/trap.lib(trap_13ED_gethostbyaddr_rSWI.o)
                              C:/Program Files/SDK30/SDK 9.20.0.01/SDK/lib_gnu/IP_.lib(Telium_IP_Host.o) (gethostbyaddr_rSWI)
C:/Program Files/SDK30/SDK 9.20.0.01/SDK/lib_gnu/trap.lib(trap_13EE_gethostbyname_rSWI.o)
                              C:/Program Files/SDK30/SDK 9.20.0.01/SDK/lib_gnu/IP_.lib(Telium_IP_Host.o) (gethostbyname_rSWI)
C:/Program Files/SDK30/SDK 9.20.0.01/SDK/lib_gnu/trap.lib(trap_142A_urealloc.o)
                              C:/Program Files/SDK30/SDK 9.20.0.01/SDK/lib_gnu/AVL.lib(XMLs_Buffer.o) (urealloc)
C:/Program Files/SDK30/SDK 9.20.0.01/SDK/lib_gnu/trap.lib(trap_142B_EthIfControl.o)
                              C:/Program Files/SDK30/SDK 9.20.0.01/SDK/lib_gnu/IP_.lib(EthernetConfig.o) (EthIfControl)
C:/Program Files/Ingenico/IngeDev_722/plugins/com.ingenico.ingedev.telium.bin.win32.gnuarm.v343_7.20.0.1/os/win32/GNUARM/3.4.3/arm-elf/lib/thumb/soft/interwork/libc.a(atoi.o)
                              Obj/RELEASE_T2/Main.o (atoi)
C:/Program Files/Ingenico/IngeDev_722/plugins/com.ingenico.ingedev.telium.bin.win32.gnuarm.v343_7.20.0.1/os/win32/GNUARM/3.4.3/arm-elf/lib/thumb/soft/interwork/libc.a(atol.o)
                              Obj/RELEASE_T2/req.o (atol)
C:/Program Files/Ingenico/IngeDev_722/plugins/com.ingenico.ingedev.telium.bin.win32.gnuarm.v343_7.20.0.1/os/win32/GNUARM/3.4.3/arm-elf/lib/thumb/soft/interwork/libc.a(exit.o)
                              libs/GNU_ARM_RELEASE/RSA.lib(m_mem.o) (exit)
C:/Program Files/Ingenico/IngeDev_722/plugins/com.ingenico.ingedev.telium.bin.win32.gnuarm.v343_7.20.0.1/os/win32/GNUARM/3.4.3/arm-elf/lib/thumb/soft/interwork/libc.a(impure.o)
                              C:/Program Files/Ingenico/IngeDev_722/plugins/com.ingenico.ingedev.telium.bin.win32.gnuarm.v343_7.20.0.1/os/win32/GNUARM/3.4.3/arm-elf/lib/thumb/soft/interwork/libc.a(exit.o) (_global_impure_ptr)
C:/Program Files/Ingenico/IngeDev_722/plugins/com.ingenico.ingedev.telium.bin.win32.gnuarm.v343_7.20.0.1/os/win32/GNUARM/3.4.3/arm-elf/lib/thumb/soft/interwork/libc.a(memcmp.o)
                              Obj/RELEASE_T2/tlm.o (memcmp)
C:/Program Files/Ingenico/IngeDev_722/plugins/com.ingenico.ingedev.telium.bin.win32.gnuarm.v343_7.20.0.1/os/win32/GNUARM/3.4.3/arm-elf/lib/thumb/soft/interwork/libc.a(memcpy.o)
                              Obj/RELEASE_T2/tbx.o (memcpy)
C:/Program Files/Ingenico/IngeDev_722/plugins/com.ingenico.ingedev.telium.bin.win32.gnuarm.v343_7.20.0.1/os/win32/GNUARM/3.4.3/arm-elf/lib/thumb/soft/interwork/libc.a(memmove.o)
                              Obj/RELEASE_T2/tbx.o (memmove)
C:/Program Files/Ingenico/IngeDev_722/plugins/com.ingenico.ingedev.telium.bin.win32.gnuarm.v343_7.20.0.1/os/win32/GNUARM/3.4.3/arm-elf/lib/thumb/soft/interwork/libc.a(memset.o)
                              Obj/RELEASE_T2/tbx.o (memset)
C:/Program Files/Ingenico/IngeDev_722/plugins/com.ingenico.ingedev.telium.bin.win32.gnuarm.v343_7.20.0.1/os/win32/GNUARM/3.4.3/arm-elf/lib/thumb/soft/interwork/libc.a(rand.o)
                              Obj/RELEASE_T2/tlm.o (rand)
C:/Program Files/Ingenico/IngeDev_722/plugins/com.ingenico.ingedev.telium.bin.win32.gnuarm.v343_7.20.0.1/os/win32/GNUARM/3.4.3/arm-elf/lib/thumb/soft/interwork/libc.a(snprintf.o)
                              C:/Program Files/SDK30/SDK 9.20.0.01/SDK/lib_gnu/IP_.lib(EthernetConfig.o) (snprintf)
C:/Program Files/Ingenico/IngeDev_722/plugins/com.ingenico.ingedev.telium.bin.win32.gnuarm.v343_7.20.0.1/os/win32/GNUARM/3.4.3/arm-elf/lib/thumb/soft/interwork/libc.a(strcasecmp.o)
                              C:/Program Files/SDK30/SDK 9.20.0.01/SDK/lib_gnu/AVL.lib(XMLs_ProcessData.o) (strcasecmp)
C:/Program Files/Ingenico/IngeDev_722/plugins/com.ingenico.ingedev.telium.bin.win32.gnuarm.v343_7.20.0.1/os/win32/GNUARM/3.4.3/arm-elf/lib/thumb/soft/interwork/libc.a(strcat.o)
                              Obj/RELEASE_T2/tlmhmi.o (strcat)
C:/Program Files/Ingenico/IngeDev_722/plugins/com.ingenico.ingedev.telium.bin.win32.gnuarm.v343_7.20.0.1/os/win32/GNUARM/3.4.3/arm-elf/lib/thumb/soft/interwork/libc.a(strchr.o)
                              C:/Program Files/SDK30/SDK 9.20.0.01/SDK/lib_gnu/AVL.lib(Serializer_Xml.o) (strchr)
C:/Program Files/Ingenico/IngeDev_722/plugins/com.ingenico.ingedev.telium.bin.win32.gnuarm.v343_7.20.0.1/os/win32/GNUARM/3.4.3/arm-elf/lib/thumb/soft/interwork/libc.a(strcmp.o)
                              Obj/RELEASE_T2/tlmmem.o (strcmp)
C:/Program Files/Ingenico/IngeDev_722/plugins/com.ingenico.ingedev.telium.bin.win32.gnuarm.v343_7.20.0.1/os/win32/GNUARM/3.4.3/arm-elf/lib/thumb/soft/interwork/libc.a(strcpy.o)
                              Obj/RELEASE_T2/tlm.o (strcpy)
C:/Program Files/Ingenico/IngeDev_722/plugins/com.ingenico.ingedev.telium.bin.win32.gnuarm.v343_7.20.0.1/os/win32/GNUARM/3.4.3/arm-elf/lib/thumb/soft/interwork/libc.a(strlen.o)
                              Obj/RELEASE_T2/tbx.o (strlen)
C:/Program Files/Ingenico/IngeDev_722/plugins/com.ingenico.ingedev.telium.bin.win32.gnuarm.v343_7.20.0.1/os/win32/GNUARM/3.4.3/arm-elf/lib/thumb/soft/interwork/libc.a(strncpy.o)
                              Obj/RELEASE_T2/tlmhmi.o (strncpy)
C:/Program Files/Ingenico/IngeDev_722/plugins/com.ingenico.ingedev.telium.bin.win32.gnuarm.v343_7.20.0.1/os/win32/GNUARM/3.4.3/arm-elf/lib/thumb/soft/interwork/libc.a(strstr.o)
                              C:/Program Files/SDK30/SDK 9.20.0.01/SDK/lib_gnu/IP_.lib(EthernetConfig.o) (strstr)
C:/Program Files/Ingenico/IngeDev_722/plugins/com.ingenico.ingedev.telium.bin.win32.gnuarm.v343_7.20.0.1/os/win32/GNUARM/3.4.3/arm-elf/lib/thumb/soft/interwork/libc.a(strtol.o)
                              C:/Program Files/Ingenico/IngeDev_722/plugins/com.ingenico.ingedev.telium.bin.win32.gnuarm.v343_7.20.0.1/os/win32/GNUARM/3.4.3/arm-elf/lib/thumb/soft/interwork/libc.a(atoi.o) (_strtol_r)
C:/Program Files/Ingenico/IngeDev_722/plugins/com.ingenico.ingedev.telium.bin.win32.gnuarm.v343_7.20.0.1/os/win32/GNUARM/3.4.3/arm-elf/lib/thumb/soft/interwork/libc.a(strtoul.o)
                              C:/Program Files/SDK30/SDK 9.20.0.01/SDK/lib_gnu/AVL.lib(Serializer_Xml.o) (strtoul)
C:/Program Files/Ingenico/IngeDev_722/plugins/com.ingenico.ingedev.telium.bin.win32.gnuarm.v343_7.20.0.1/os/win32/GNUARM/3.4.3/arm-elf/lib/thumb/soft/interwork/libc.a(syscalls.o)
                              C:/Program Files/Ingenico/IngeDev_722/plugins/com.ingenico.ingedev.telium.bin.win32.gnuarm.v343_7.20.0.1/os/win32/GNUARM/3.4.3/arm-elf/lib/thumb/soft/interwork/libc.a(exit.o) (_exit)
C:/Program Files/Ingenico/IngeDev_722/plugins/com.ingenico.ingedev.telium.bin.win32.gnuarm.v343_7.20.0.1/os/win32/GNUARM/3.4.3/arm-elf/lib/thumb/soft/interwork/libc.a(vfprintf.o)
                              C:/Program Files/Ingenico/IngeDev_722/plugins/com.ingenico.ingedev.telium.bin.win32.gnuarm.v343_7.20.0.1/os/win32/GNUARM/3.4.3/arm-elf/lib/thumb/soft/interwork/libc.a(snprintf.o) (_vfprintf_r)
C:/Program Files/Ingenico/IngeDev_722/plugins/com.ingenico.ingedev.telium.bin.win32.gnuarm.v343_7.20.0.1/os/win32/GNUARM/3.4.3/arm-elf/lib/thumb/soft/interwork/libc.a(wcrtomb.o)
                              C:/Program Files/Ingenico/IngeDev_722/plugins/com.ingenico.ingedev.telium.bin.win32.gnuarm.v343_7.20.0.1/os/win32/GNUARM/3.4.3/arm-elf/lib/thumb/soft/interwork/libc.a(vfprintf.o) (_wcrtomb_r)
C:/Program Files/Ingenico/IngeDev_722/plugins/com.ingenico.ingedev.telium.bin.win32.gnuarm.v343_7.20.0.1/os/win32/GNUARM/3.4.3/arm-elf/lib/thumb/soft/interwork/libc.a(wcsrtombs.o)
                              C:/Program Files/Ingenico/IngeDev_722/plugins/com.ingenico.ingedev.telium.bin.win32.gnuarm.v343_7.20.0.1/os/win32/GNUARM/3.4.3/arm-elf/lib/thumb/soft/interwork/libc.a(vfprintf.o) (_wcsrtombs_r)
C:/Program Files/Ingenico/IngeDev_722/plugins/com.ingenico.ingedev.telium.bin.win32.gnuarm.v343_7.20.0.1/os/win32/GNUARM/3.4.3/arm-elf/lib/thumb/soft/interwork/libc.a(wctomb_r.o)
                              C:/Program Files/Ingenico/IngeDev_722/plugins/com.ingenico.ingedev.telium.bin.win32.gnuarm.v343_7.20.0.1/os/win32/GNUARM/3.4.3/arm-elf/lib/thumb/soft/interwork/libc.a(wcrtomb.o) (_wctomb_r)
C:/Program Files/Ingenico/IngeDev_722/plugins/com.ingenico.ingedev.telium.bin.win32.gnuarm.v343_7.20.0.1/os/win32/GNUARM/3.4.3/arm-elf/lib/thumb/soft/interwork/libc.a(wsetup.o)
                              C:/Program Files/Ingenico/IngeDev_722/plugins/com.ingenico.ingedev.telium.bin.win32.gnuarm.v343_7.20.0.1/os/win32/GNUARM/3.4.3/arm-elf/lib/thumb/soft/interwork/libc.a(vfprintf.o) (__swsetup)
C:/Program Files/Ingenico/IngeDev_722/plugins/com.ingenico.ingedev.telium.bin.win32.gnuarm.v343_7.20.0.1/os/win32/GNUARM/3.4.3/arm-elf/lib/thumb/soft/interwork/libc.a(__call_atexit.o)
                              C:/Program Files/Ingenico/IngeDev_722/plugins/com.ingenico.ingedev.telium.bin.win32.gnuarm.v343_7.20.0.1/os/win32/GNUARM/3.4.3/arm-elf/lib/thumb/soft/interwork/libc.a(exit.o) (__call_exitprocs)
C:/Program Files/Ingenico/IngeDev_722/plugins/com.ingenico.ingedev.telium.bin.win32.gnuarm.v343_7.20.0.1/os/win32/GNUARM/3.4.3/arm-elf/lib/thumb/soft/interwork/libc.a(ctype_.o)
                              C:/Program Files/Ingenico/IngeDev_722/plugins/com.ingenico.ingedev.telium.bin.win32.gnuarm.v343_7.20.0.1/os/win32/GNUARM/3.4.3/arm-elf/lib/thumb/soft/interwork/libc.a(strcasecmp.o) (_ctype_)
C:/Program Files/Ingenico/IngeDev_722/plugins/com.ingenico.ingedev.telium.bin.win32.gnuarm.v343_7.20.0.1/os/win32/GNUARM/3.4.3/arm-elf/lib/thumb/soft/interwork/libc.a(dtoa.o)
                              C:/Program Files/Ingenico/IngeDev_722/plugins/com.ingenico.ingedev.telium.bin.win32.gnuarm.v343_7.20.0.1/os/win32/GNUARM/3.4.3/arm-elf/lib/thumb/soft/interwork/libc.a(vfprintf.o) (_dtoa_r)
C:/Program Files/Ingenico/IngeDev_722/plugins/com.ingenico.ingedev.telium.bin.win32.gnuarm.v343_7.20.0.1/os/win32/GNUARM/3.4.3/arm-elf/lib/thumb/soft/interwork/libc.a(errno.o)
                              C:/Program Files/Ingenico/IngeDev_722/plugins/com.ingenico.ingedev.telium.bin.win32.gnuarm.v343_7.20.0.1/os/win32/GNUARM/3.4.3/arm-elf/lib/thumb/soft/interwork/libc.a(syscalls.o) (__errno)
C:/Program Files/Ingenico/IngeDev_722/plugins/com.ingenico.ingedev.telium.bin.win32.gnuarm.v343_7.20.0.1/os/win32/GNUARM/3.4.3/arm-elf/lib/thumb/soft/interwork/libc.a(fflush.o)
                              C:/Program Files/Ingenico/IngeDev_722/plugins/com.ingenico.ingedev.telium.bin.win32.gnuarm.v343_7.20.0.1/os/win32/GNUARM/3.4.3/arm-elf/lib/thumb/soft/interwork/libc.a(vfprintf.o) (fflush)
C:/Program Files/Ingenico/IngeDev_722/plugins/com.ingenico.ingedev.telium.bin.win32.gnuarm.v343_7.20.0.1/os/win32/GNUARM/3.4.3/arm-elf/lib/thumb/soft/interwork/libc.a(findfp.o)
                              C:/Program Files/Ingenico/IngeDev_722/plugins/com.ingenico.ingedev.telium.bin.win32.gnuarm.v343_7.20.0.1/os/win32/GNUARM/3.4.3/arm-elf/lib/thumb/soft/interwork/libc.a(syscalls.o) (__sinit)
C:/Program Files/Ingenico/IngeDev_722/plugins/com.ingenico.ingedev.telium.bin.win32.gnuarm.v343_7.20.0.1/os/win32/GNUARM/3.4.3/arm-elf/lib/thumb/soft/interwork/libc.a(freer.o)
                              C:/Program Files/Ingenico/IngeDev_722/plugins/com.ingenico.ingedev.telium.bin.win32.gnuarm.v343_7.20.0.1/os/win32/GNUARM/3.4.3/arm-elf/lib/thumb/soft/interwork/libc.a(vfprintf.o) (_free_r)
C:/Program Files/Ingenico/IngeDev_722/plugins/com.ingenico.ingedev.telium.bin.win32.gnuarm.v343_7.20.0.1/os/win32/GNUARM/3.4.3/arm-elf/lib/thumb/soft/interwork/libc.a(fvwrite.o)
                              C:/Program Files/Ingenico/IngeDev_722/plugins/com.ingenico.ingedev.telium.bin.win32.gnuarm.v343_7.20.0.1/os/win32/GNUARM/3.4.3/arm-elf/lib/thumb/soft/interwork/libc.a(vfprintf.o) (__sfvwrite)
C:/Program Files/Ingenico/IngeDev_722/plugins/com.ingenico.ingedev.telium.bin.win32.gnuarm.v343_7.20.0.1/os/win32/GNUARM/3.4.3/arm-elf/lib/thumb/soft/interwork/libc.a(fwalk.o)
                              C:/Program Files/Ingenico/IngeDev_722/plugins/com.ingenico.ingedev.telium.bin.win32.gnuarm.v343_7.20.0.1/os/win32/GNUARM/3.4.3/arm-elf/lib/thumb/soft/interwork/libc.a(fflush.o) (_fwalk)
C:/Program Files/Ingenico/IngeDev_722/plugins/com.ingenico.ingedev.telium.bin.win32.gnuarm.v343_7.20.0.1/os/win32/GNUARM/3.4.3/arm-elf/lib/thumb/soft/interwork/libc.a(locale.o)
                              C:/Program Files/Ingenico/IngeDev_722/plugins/com.ingenico.ingedev.telium.bin.win32.gnuarm.v343_7.20.0.1/os/win32/GNUARM/3.4.3/arm-elf/lib/thumb/soft/interwork/libc.a(wctomb_r.o) (__lc_ctype)
C:/Program Files/Ingenico/IngeDev_722/plugins/com.ingenico.ingedev.telium.bin.win32.gnuarm.v343_7.20.0.1/os/win32/GNUARM/3.4.3/arm-elf/lib/thumb/soft/interwork/libc.a(makebuf.o)
                              C:/Program Files/Ingenico/IngeDev_722/plugins/com.ingenico.ingedev.telium.bin.win32.gnuarm.v343_7.20.0.1/os/win32/GNUARM/3.4.3/arm-elf/lib/thumb/soft/interwork/libc.a(wsetup.o) (__smakebuf)
C:/Program Files/Ingenico/IngeDev_722/plugins/com.ingenico.ingedev.telium.bin.win32.gnuarm.v343_7.20.0.1/os/win32/GNUARM/3.4.3/arm-elf/lib/thumb/soft/interwork/libc.a(malloc.o)
                              C:/Program Files/Ingenico/IngeDev_722/plugins/com.ingenico.ingedev.telium.bin.win32.gnuarm.v343_7.20.0.1/os/win32/GNUARM/3.4.3/arm-elf/lib/thumb/soft/interwork/libc.a(__call_atexit.o) (free)
C:/Program Files/Ingenico/IngeDev_722/plugins/com.ingenico.ingedev.telium.bin.win32.gnuarm.v343_7.20.0.1/os/win32/GNUARM/3.4.3/arm-elf/lib/thumb/soft/interwork/libc.a(mallocr.o)
                              C:/Program Files/Ingenico/IngeDev_722/plugins/com.ingenico.ingedev.telium.bin.win32.gnuarm.v343_7.20.0.1/os/win32/GNUARM/3.4.3/arm-elf/lib/thumb/soft/interwork/libc.a(freer.o) (__malloc_current_mallinfo)
C:/Program Files/Ingenico/IngeDev_722/plugins/com.ingenico.ingedev.telium.bin.win32.gnuarm.v343_7.20.0.1/os/win32/GNUARM/3.4.3/arm-elf/lib/thumb/soft/interwork/libc.a(memchr.o)
                              C:/Program Files/Ingenico/IngeDev_722/plugins/com.ingenico.ingedev.telium.bin.win32.gnuarm.v343_7.20.0.1/os/win32/GNUARM/3.4.3/arm-elf/lib/thumb/soft/interwork/libc.a(vfprintf.o) (memchr)
C:/Program Files/Ingenico/IngeDev_722/plugins/com.ingenico.ingedev.telium.bin.win32.gnuarm.v343_7.20.0.1/os/win32/GNUARM/3.4.3/arm-elf/lib/thumb/soft/interwork/libc.a(mlock.o)
                              C:/Program Files/Ingenico/IngeDev_722/plugins/com.ingenico.ingedev.telium.bin.win32.gnuarm.v343_7.20.0.1/os/win32/GNUARM/3.4.3/arm-elf/lib/thumb/soft/interwork/libc.a(freer.o) (__malloc_lock)
C:/Program Files/Ingenico/IngeDev_722/plugins/com.ingenico.ingedev.telium.bin.win32.gnuarm.v343_7.20.0.1/os/win32/GNUARM/3.4.3/arm-elf/lib/thumb/soft/interwork/libc.a(mprec.o)
                              C:/Program Files/Ingenico/IngeDev_722/plugins/com.ingenico.ingedev.telium.bin.win32.gnuarm.v343_7.20.0.1/os/win32/GNUARM/3.4.3/arm-elf/lib/thumb/soft/interwork/libc.a(dtoa.o) (__mprec_bigtens)
C:/Program Files/Ingenico/IngeDev_722/plugins/com.ingenico.ingedev.telium.bin.win32.gnuarm.v343_7.20.0.1/os/win32/GNUARM/3.4.3/arm-elf/lib/thumb/soft/interwork/libc.a(reallocr.o)
                              C:/Program Files/Ingenico/IngeDev_722/plugins/com.ingenico.ingedev.telium.bin.win32.gnuarm.v343_7.20.0.1/os/win32/GNUARM/3.4.3/arm-elf/lib/thumb/soft/interwork/libc.a(fvwrite.o) (_realloc_r)
C:/Program Files/Ingenico/IngeDev_722/plugins/com.ingenico.ingedev.telium.bin.win32.gnuarm.v343_7.20.0.1/os/win32/GNUARM/3.4.3/arm-elf/lib/thumb/soft/interwork/libc.a(s_isinf.o)
                              C:/Program Files/Ingenico/IngeDev_722/plugins/com.ingenico.ingedev.telium.bin.win32.gnuarm.v343_7.20.0.1/os/win32/GNUARM/3.4.3/arm-elf/lib/thumb/soft/interwork/libc.a(vfprintf.o) (isinf)
C:/Program Files/Ingenico/IngeDev_722/plugins/com.ingenico.ingedev.telium.bin.win32.gnuarm.v343_7.20.0.1/os/win32/GNUARM/3.4.3/arm-elf/lib/thumb/soft/interwork/libc.a(s_isnan.o)
                              C:/Program Files/Ingenico/IngeDev_722/plugins/com.ingenico.ingedev.telium.bin.win32.gnuarm.v343_7.20.0.1/os/win32/GNUARM/3.4.3/arm-elf/lib/thumb/soft/interwork/libc.a(vfprintf.o) (isnan)
C:/Program Files/Ingenico/IngeDev_722/plugins/com.ingenico.ingedev.telium.bin.win32.gnuarm.v343_7.20.0.1/os/win32/GNUARM/3.4.3/arm-elf/lib/thumb/soft/interwork/libc.a(sbrkr.o)
                              C:/Program Files/Ingenico/IngeDev_722/plugins/com.ingenico.ingedev.telium.bin.win32.gnuarm.v343_7.20.0.1/os/win32/GNUARM/3.4.3/arm-elf/lib/thumb/soft/interwork/libc.a(freer.o) (_sbrk_r)
C:/Program Files/Ingenico/IngeDev_722/plugins/com.ingenico.ingedev.telium.bin.win32.gnuarm.v343_7.20.0.1/os/win32/GNUARM/3.4.3/arm-elf/lib/thumb/soft/interwork/libc.a(stdio.o)
                              C:/Program Files/Ingenico/IngeDev_722/plugins/com.ingenico.ingedev.telium.bin.win32.gnuarm.v343_7.20.0.1/os/win32/GNUARM/3.4.3/arm-elf/lib/thumb/soft/interwork/libc.a(findfp.o) (__sread)
C:/Program Files/Ingenico/IngeDev_722/plugins/com.ingenico.ingedev.telium.bin.win32.gnuarm.v343_7.20.0.1/os/win32/GNUARM/3.4.3/arm-elf/lib/thumb/soft/interwork/libc.a(writer.o)
                              C:/Program Files/Ingenico/IngeDev_722/plugins/com.ingenico.ingedev.telium.bin.win32.gnuarm.v343_7.20.0.1/os/win32/GNUARM/3.4.3/arm-elf/lib/thumb/soft/interwork/libc.a(stdio.o) (_write_r)
C:/Program Files/Ingenico/IngeDev_722/plugins/com.ingenico.ingedev.telium.bin.win32.gnuarm.v343_7.20.0.1/os/win32/GNUARM/3.4.3/arm-elf/lib/thumb/soft/interwork/libc.a(callocr.o)
                              C:/Program Files/Ingenico/IngeDev_722/plugins/com.ingenico.ingedev.telium.bin.win32.gnuarm.v343_7.20.0.1/os/win32/GNUARM/3.4.3/arm-elf/lib/thumb/soft/interwork/libc.a(mprec.o) (_calloc_r)
C:/Program Files/Ingenico/IngeDev_722/plugins/com.ingenico.ingedev.telium.bin.win32.gnuarm.v343_7.20.0.1/os/win32/GNUARM/3.4.3/arm-elf/lib/thumb/soft/interwork/libc.a(closer.o)
                              C:/Program Files/Ingenico/IngeDev_722/plugins/com.ingenico.ingedev.telium.bin.win32.gnuarm.v343_7.20.0.1/os/win32/GNUARM/3.4.3/arm-elf/lib/thumb/soft/interwork/libc.a(stdio.o) (_close_r)
C:/Program Files/Ingenico/IngeDev_722/plugins/com.ingenico.ingedev.telium.bin.win32.gnuarm.v343_7.20.0.1/os/win32/GNUARM/3.4.3/arm-elf/lib/thumb/soft/interwork/libc.a(fstatr.o)
                              C:/Program Files/Ingenico/IngeDev_722/plugins/com.ingenico.ingedev.telium.bin.win32.gnuarm.v343_7.20.0.1/os/win32/GNUARM/3.4.3/arm-elf/lib/thumb/soft/interwork/libc.a(makebuf.o) (_fstat_r)
C:/Program Files/Ingenico/IngeDev_722/plugins/com.ingenico.ingedev.telium.bin.win32.gnuarm.v343_7.20.0.1/os/win32/GNUARM/3.4.3/arm-elf/lib/thumb/soft/interwork/libc.a(lseekr.o)
                              C:/Program Files/Ingenico/IngeDev_722/plugins/com.ingenico.ingedev.telium.bin.win32.gnuarm.v343_7.20.0.1/os/win32/GNUARM/3.4.3/arm-elf/lib/thumb/soft/interwork/libc.a(stdio.o) (_lseek_r)
C:/Program Files/Ingenico/IngeDev_722/plugins/com.ingenico.ingedev.telium.bin.win32.gnuarm.v343_7.20.0.1/os/win32/GNUARM/3.4.3/arm-elf/lib/thumb/soft/interwork/libc.a(readr.o)
                              C:/Program Files/Ingenico/IngeDev_722/plugins/com.ingenico.ingedev.telium.bin.win32.gnuarm.v343_7.20.0.1/os/win32/GNUARM/3.4.3/arm-elf/lib/thumb/soft/interwork/libc.a(stdio.o) (_read_r)
C:/Program Files/Ingenico/IngeDev_722/plugins/com.ingenico.ingedev.telium.bin.win32.gnuarm.v343_7.20.0.1/os/win32/GNUARM/3.4.3/arm-elf/lib/thumb/soft/interwork/libc.a(reent.o)
                              C:/Program Files/Ingenico/IngeDev_722/plugins/com.ingenico.ingedev.telium.bin.win32.gnuarm.v343_7.20.0.1/os/win32/GNUARM/3.4.3/arm-elf/lib/thumb/soft/interwork/libc.a(sbrkr.o) (errno)
C:/Program Files/Ingenico/IngeDev_722/plugins/com.ingenico.ingedev.telium.bin.win32.gnuarm.v343_7.20.0.1/os/win32/GNUARM/3.4.3/lib/gcc/arm-elf/3.4.3/thumb/soft/interwork/libgcc.a(_udivsi3.o)
                              Obj/RELEASE_T2/tbx.o (__udivsi3)
C:/Program Files/Ingenico/IngeDev_722/plugins/com.ingenico.ingedev.telium.bin.win32.gnuarm.v343_7.20.0.1/os/win32/GNUARM/3.4.3/lib/gcc/arm-elf/3.4.3/thumb/soft/interwork/libgcc.a(_divsi3.o)
                              Obj/RELEASE_T2/std.o (__divsi3)
C:/Program Files/Ingenico/IngeDev_722/plugins/com.ingenico.ingedev.telium.bin.win32.gnuarm.v343_7.20.0.1/os/win32/GNUARM/3.4.3/lib/gcc/arm-elf/3.4.3/thumb/soft/interwork/libgcc.a(_umodsi3.o)
                              Obj/RELEASE_T2/tbx.o (__umodsi3)
C:/Program Files/Ingenico/IngeDev_722/plugins/com.ingenico.ingedev.telium.bin.win32.gnuarm.v343_7.20.0.1/os/win32/GNUARM/3.4.3/lib/gcc/arm-elf/3.4.3/thumb/soft/interwork/libgcc.a(_modsi3.o)
                              Obj/RELEASE_T2/std.o (__modsi3)
C:/Program Files/Ingenico/IngeDev_722/plugins/com.ingenico.ingedev.telium.bin.win32.gnuarm.v343_7.20.0.1/os/win32/GNUARM/3.4.3/lib/gcc/arm-elf/3.4.3/thumb/soft/interwork/libgcc.a(_dvmd_tls.o)
                              C:/Program Files/Ingenico/IngeDev_722/plugins/com.ingenico.ingedev.telium.bin.win32.gnuarm.v343_7.20.0.1/os/win32/GNUARM/3.4.3/lib/gcc/arm-elf/3.4.3/thumb/soft/interwork/libgcc.a(_udivsi3.o) (__div0)
C:/Program Files/Ingenico/IngeDev_722/plugins/com.ingenico.ingedev.telium.bin.win32.gnuarm.v343_7.20.0.1/os/win32/GNUARM/3.4.3/lib/gcc/arm-elf/3.4.3/thumb/soft/interwork/libgcc.a(_call_via_rX.o)
                              C:/Program Files/SDK30/SDK 9.20.0.01/SDK/lib_gnu/SEC.lib(SECLibOpenClose.o) (_call_via_r0)
C:/Program Files/Ingenico/IngeDev_722/plugins/com.ingenico.ingedev.telium.bin.win32.gnuarm.v343_7.20.0.1/os/win32/GNUARM/3.4.3/lib/gcc/arm-elf/3.4.3/thumb/soft/interwork/libgcc.a(_addsubdf3.o)
                              C:/Program Files/Ingenico/IngeDev_722/plugins/com.ingenico.ingedev.telium.bin.win32.gnuarm.v343_7.20.0.1/os/win32/GNUARM/3.4.3/arm-elf/lib/thumb/soft/interwork/libc.a(dtoa.o) (__subdf3)
C:/Program Files/Ingenico/IngeDev_722/plugins/com.ingenico.ingedev.telium.bin.win32.gnuarm.v343_7.20.0.1/os/win32/GNUARM/3.4.3/lib/gcc/arm-elf/3.4.3/thumb/soft/interwork/libgcc.a(_muldivdf3.o)
                              C:/Program Files/Ingenico/IngeDev_722/plugins/com.ingenico.ingedev.telium.bin.win32.gnuarm.v343_7.20.0.1/os/win32/GNUARM/3.4.3/arm-elf/lib/thumb/soft/interwork/libc.a(dtoa.o) (__muldf3)
C:/Program Files/Ingenico/IngeDev_722/plugins/com.ingenico.ingedev.telium.bin.win32.gnuarm.v343_7.20.0.1/os/win32/GNUARM/3.4.3/lib/gcc/arm-elf/3.4.3/thumb/soft/interwork/libgcc.a(_cmpdf2.o)
                              C:/Program Files/Ingenico/IngeDev_722/plugins/com.ingenico.ingedev.telium.bin.win32.gnuarm.v343_7.20.0.1/os/win32/GNUARM/3.4.3/arm-elf/lib/thumb/soft/interwork/libc.a(dtoa.o) (__gtdf2)
C:/Program Files/Ingenico/IngeDev_722/plugins/com.ingenico.ingedev.telium.bin.win32.gnuarm.v343_7.20.0.1/os/win32/GNUARM/3.4.3/lib/gcc/arm-elf/3.4.3/thumb/soft/interwork/libgcc.a(_fixdfsi.o)
                              C:/Program Files/Ingenico/IngeDev_722/plugins/com.ingenico.ingedev.telium.bin.win32.gnuarm.v343_7.20.0.1/os/win32/GNUARM/3.4.3/arm-elf/lib/thumb/soft/interwork/libc.a(dtoa.o) (__fixdfsi)
C:/Program Files/Ingenico/IngeDev_722/plugins/com.ingenico.ingedev.telium.bin.win32.gnuarm.v343_7.20.0.1/os/win32/GNUARM/3.4.3/lib/gcc/arm-elf/3.4.3/thumb/soft/interwork/libgcc.a(_muldi3.o)
                              libs/GNU_ARM_RELEASE/RSA.lib(m_mul.o) (__muldi3)
C:/Program Files/Ingenico/IngeDev_722/plugins/com.ingenico.ingedev.telium.bin.win32.gnuarm.v343_7.20.0.1/os/win32/GNUARM/3.4.3/lib/gcc/arm-elf/3.4.3/thumb/soft/interwork/libgcc.a(_lshrdi3.o)
                              libs/GNU_ARM_RELEASE/RSA.lib(m_shrx.o) (__lshrdi3)
C:/Program Files/Ingenico/IngeDev_722/plugins/com.ingenico.ingedev.telium.bin.win32.gnuarm.v343_7.20.0.1/os/win32/GNUARM/3.4.3/lib/gcc/arm-elf/3.4.3/thumb/soft/interwork/libgcc.a(_ashldi3.o)
                              libs/GNU_ARM_RELEASE/RSA.lib(m_shlx.o) (__ashldi3)
C:/Program Files/Ingenico/IngeDev_722/plugins/com.ingenico.ingedev.telium.bin.win32.gnuarm.v343_7.20.0.1/os/win32/GNUARM/3.4.3/lib/gcc/arm-elf/3.4.3/thumb/soft/interwork/libgcc.a(_udivdi3.o)
                              libs/GNU_ARM_RELEASE/RSA.lib(m_div.o) (__udivdi3)
C:/Program Files/Ingenico/IngeDev_722/plugins/com.ingenico.ingedev.telium.bin.win32.gnuarm.v343_7.20.0.1/os/win32/GNUARM/3.4.3/lib/gcc/arm-elf/3.4.3/thumb/soft/interwork/libgcc.a(_clz.o)
                              C:/Program Files/Ingenico/IngeDev_722/plugins/com.ingenico.ingedev.telium.bin.win32.gnuarm.v343_7.20.0.1/os/win32/GNUARM/3.4.3/lib/gcc/arm-elf/3.4.3/thumb/soft/interwork/libgcc.a(_udivdi3.o) (__clz_tab)

Allocating common symbols
Common symbol       size              file

DllGetProcAddress3  0x4               C:/Program Files/SDK30/SDK 9.20.0.01/SDK/lib_gnu/eft30.lib(extenstd1.o)
_FreeDelayUserAddress
                    0x4               C:/Program Files/SDK30/SDK 9.20.0.01/SDK/lib_gnu/eft30.lib(extens94.o)
xsec_USK            0x21              Obj/RELEASE_T2/LineEncryption.o
_PPS_DisplayAddress
                    0x4               C:/Program Files/SDK30/SDK 9.20.0.01/SDK/lib_gnu/eft30.lib(pinpad12.o)
EMV_IDLE_SHOW_FLAG  0x4               Obj/RELEASE_T2/Main.o
errno               0x4               C:/Program Files/Ingenico/IngeDev_722/plugins/com.ingenico.ingedev.telium.bin.win32.gnuarm.v343_7.20.0.1/os/win32/GNUARM/3.4.3/arm-elf/lib/thumb/soft/interwork/libc.a(reent.o)
xsec_TLE            0x11              Obj/RELEASE_T2/LineEncryption.o
AESDataIn           0x10              Obj/RELEASE_T2/AES.o
EMV_ENTRYMODE       0x4               Obj/RELEASE_T2/Main.o
DllGetProcAddress6  0x4               C:/Program Files/SDK30/SDK 9.20.0.01/SDK/lib_gnu/eft30.lib(libgrtd1.o)
EMVFallback         0x4               Obj/RELEASE_T2/Main.o
_GetSemaphoreUserAddress
                    0x4               C:/Program Files/SDK30/SDK 9.20.0.01/SDK/lib_gnu/eft30.lib(extens89.o)
DllGetProcAddress   0x4               C:/Program Files/SDK30/SDK 9.20.0.01/SDK/lib_gnu/eft30.lib(cryptotd1.o)
EMV_ENTRY_SERVICE_CODE
                    0x4               Obj/RELEASE_T2/Main.o
serialBuff          0x104             Obj/RELEASE_T2/keyinject.o
DllGetProcAddress13
                    0x4               C:/Program Files/SDK30/SDK 9.20.0.01/SDK/lib_gnu/eft30.lib(gprstd1.o)
xsec_UMK            0x21              Obj/RELEASE_T2/LineEncryption.o
_TM_InitContexteGraphiqueAddress
                    0x4               C:/Program Files/SDK30/SDK 9.20.0.01/SDK/lib_gnu/eft30.lib(extens252.o)
debugRspFlag        0x1               Obj/RELEASE_T2/Main.o
AESDataOut          0x10              Obj/RELEASE_T2/AES.o
_StateHeaderAddress
                    0x4               C:/Program Files/SDK30/SDK 9.20.0.01/SDK/lib_gnu/eft30.lib(extensostd119.o)
EMVIdleFallback     0x4               Obj/RELEASE_T2/Main.o
_Send_MessageAddress
                    0x4               C:/Program Files/SDK30/SDK 9.20.0.01/SDK/lib_gnu/eft30.lib(iam1.o)
_FreeSemaphoreUserAddress
                    0x4               C:/Program Files/SDK30/SDK 9.20.0.01/SDK/lib_gnu/eft30.lib(extens90.o)
debugReqFlag        0x1               Obj/RELEASE_T2/Main.o
xsec_derivation_data
                    0x8               Obj/RELEASE_T2/LineEncryption.o
EMVFlagSet          0x4               Obj/RELEASE_T2/Main.o
DllGetProcAddress7  0x4               C:/Program Files/SDK30/SDK 9.20.0.01/SDK/lib_gnu/eft30.lib(paramtd1.o)
_PPS_firstlineAddress
                    0x4               C:/Program Files/SDK30/SDK 9.20.0.01/SDK/lib_gnu/eft30.lib(pinpad10.o)
_Get_TypeCodeAddress
                    0x4               C:/Program Files/SDK30/SDK 9.20.0.01/SDK/lib_gnu/eft30.lib(extenstdeux5.o)
_USR_ServiceCallAddress
                    0x4               C:/Program Files/SDK30/SDK 9.20.0.01/SDK/lib_gnu/eft30.lib(extens280.o)
uploadedPrepaidIdx  0x20              Obj/RELEASE_T2/tle.o
DllGetProcAddress4  0x4               C:/Program Files/SDK30/SDK 9.20.0.01/SDK/lib_gnu/eft30.lib(iamtd1.o)
DllGetProcAddress9  0x4               C:/Program Files/SDK30/SDK 9.20.0.01/SDK/lib_gnu/eft30.lib(pinpadtd1.o)
_PPS_clear_displayAddress
                    0x4               C:/Program Files/SDK30/SDK 9.20.0.01/SDK/lib_gnu/eft30.lib(pinpad15.o)
_PPS_clearlineAddress
                    0x4               C:/Program Files/SDK30/SDK 9.20.0.01/SDK/lib_gnu/eft30.lib(pinpad9.o)
prepaidCom          0x4c              Obj/RELEASE_T2/prepaid.o
DllGetProcAddress12
                    0x4               C:/Program Files/SDK30/SDK 9.20.0.01/SDK/lib_gnu/eft30.lib(svtd1.o)
DllGetProcAddressTools
                    0x4               C:/Program Files/SDK30/SDK 9.20.0.01/SDK/lib_gnu/eft30.lib(Toolstd1.o)
_GetDelayUserAddress
                    0x4               C:/Program Files/SDK30/SDK 9.20.0.01/SDK/lib_gnu/eft30.lib(extens93.o)
prepaidRespCode     0x1               Obj/RELEASE_T2/prepaid.o
_PPS_newlineAddress
                    0x4               C:/Program Files/SDK30/SDK 9.20.0.01/SDK/lib_gnu/eft30.lib(pinpad8.o)
AESKey              0x20              Obj/RELEASE_T2/AES.o
EMV_FALLBACK_IDLE_SHOW
                    0x4               Obj/RELEASE_T2/Main.o
_d_tolongAddress    0x4               C:/Program Files/SDK30/SDK 9.20.0.01/SDK/lib_gnu/eft30.lib(extens53.o)
EMVFallbackFlagSet  0x1               Obj/RELEASE_T2/Main.o
debugEmvFlag        0x1               Obj/RELEASE_T2/Main.o

Memory Configuration

Name             Origin             Length             Attributes
*default*        0x00000000         0xffffffff

Linker script and memory map

                0x00000000                . = 0x0
                0x00000000                __text_start = .

.text           0x00000000    0xc0cf0
 *(.first)
 .first         0x00000000       0xa0 Obj/RELEASE_T2/cstartup.o
                0x00000000                _start
 *(.text .text.*)
 .text          0x000000a0       0x18 Obj/RELEASE_T2/trc.o
                0x000000a0                errChk
 .text          0x000000b8     0x16dc Obj/RELEASE_T2/tbx.o
                0x00000a68                bufInit
                0x00000ad4                bufLen
                0x000000d8                wPtr
                0x00000ae8                bufReset
                0x00001380                queGetTag
                0x0000146c                bitOff
                0x00000ac0                bufPtr
                0x00000f68                queInit
                0x000010e8                queGet
                0x00000aac                bufDim
                0x00000fc4                quePut
                0x000000b8                bPtr
                0x00000830                hex2bin
                0x00000d0c                bufOwr
                0x00000efc                bufCpy
                0x000014d4                bitTest
                0x000004c0                num2hex
                0x000012b8                quePutTlv
                0x00000314                dec2num
                0x00000eb0                bufCat
                0x0000017c                num2dec
                0x00000f34                bufGet
                0x00000b14                bufSet
                0x00001220                queLen
                0x0000099c                num2bin
                0x00001674                tbxCheckParity
                0x00000f90                queReset
                0x000013b0                queGetTlv
                0x00000a30                tmrPause
                0x00001234                queRewind
                0x000011a4                queNxt
                0x000007a0                bin2hex
                0x000000f8                cPtr
                0x0000153c                tbxParity
                0x00000608                hex2num
                0x00000924                bin2num
                0x00000bb0                bufIns
                0x00000e78                bufApp
                0x00000dcc                bufDel
                0x00000114                dPtr
                0x00001254                quePutTag
                0x00001408                bitOn
 .text          0x00001794     0x1d5c Obj/RELEASE_T2/tlm.o
                0x00003198                tskStop
                0x00001d48                magGet
                0x0000194c                magStart
                0x000025ec                iccDetect
                0x000018d0                tmrSleep
                0x000030f8                tskStart
                0x00001940                Click
                0x00001794                tmrStart
                0x000024a4                sysRand
                0x0000188c                tmrStop
                0x00003090                semDec
                0x00003238                reboot
                0x00003248                getSapSer
                0x00001934                utaBeep
                0x00002b48                iccCommand
                0x0000217c                getCard
                0x00002df8                getTS
                0x00003024                semInc
                0x00003368                getCodeFileList
                0x00001818                tmrGet
                0x000024b4                iccStart
                0x00002be4                getDateTime
                0x000032f4                getAppName
                0x00002cdc                setDateTime
                0x00003014                tskSync
                0x00001f64                magStop
                0x00003430                getAppVer
                0x00002590                iccStop
 .text          0x000034f0      0xe9c Obj/RELEASE_T2/tlmhmi.o
                0x00004294                kbdStart
                0x0000415c                dspHgt
                0x00003c1c                prtImg
                0x00003cd0                dspStart
                0x0000431c                kbdStop
                0x00004138                dspWdt
                0x00004344                kbdKey
                0x00003694                prtS
                0x000035f8                prtStop
                0x00003dbc                dspClear
                0x00004198                dspImg
                0x00003ea4                dspLS
                0x000037c8                prtES
                0x00003634                prtCtrl
                0x00003d80                dspStop
                0x0000356c                prtStart
                0x00003e20                dspLight
                0x00004074                dspXYFS
 .text          0x0000438c      0xc84 Obj/RELEASE_T2/tlmmem.o
                0x00004884                nvmSet
                0x00004640                nvmHold
                0x00004bf4                nvmMove
                0x000046f0                nvmSave
                0x00004e7c                nvmSeqPos
                0x000043c0                nvmFileName
                0x00004dcc                nvmSeqClose
                0x00004b88                nvmSize
                0x000046b4                nvmRelease
                0x00004e10                nvmSeqRemove
                0x000045e0                nvmRemove
                0x00004f78                nvmSeqPut
                0x00004a64                nvmLoad
                0x00004cd4                nvmSeqOpen
                0x000043f0                nvmPathFileName
                0x00004ef8                nvmSeqGet
                0x00004428                nvmStart
 .text          0x00005010     0x1e4c Obj/RELEASE_T2/std.o
                0x0000567c                stdLuhnCheck
                0x00006808                BaseToDec
                0x00006178                stdDES
                0x00006224                stdDED
                0x00006bc8                ts2dt
                0x000054c8                stdPow
                0x0000656c                Radix64Decode
                0x00006908                stdOWF
                0x000058d8                stdArgMsgCrc16
                0x00005010                isSorted
                0x000061d0                stdEDE
                0x00005450                subStr
                0x00006cec                dt2ts
                0x00005950                xor
                0x000055e8                stdGetAcc
                0x000059cc                stdParity
                0x00006308                hashJerkinsBin
                0x00005564                trk2Lrc
                0x00006404                bmpDat
                0x00006418                Radix64Encode
                0x000061a4                stdSED
                0x000063dc                bmpHgt
                0x000053e0                addStr
                0x00005514                stdLrc
                0x000063b4                bmpWdt
                0x000057d0                stdCrc16
 .text          0x00006e5c      0xc68 Obj/RELEASE_T2/fmt.o
                0x00007a5c                fmtDelSpace
                0x0000790c                fmtDate
                0x00006ecc                fmtTok
                0x00007060                fmtCnt
                0x00006f7c                fmtPad
                0x00007638                fmtIns
                0x0000786c                fmtTcp
                0x0000775c                fmtDel
                0x000079b4                fmtTime
                0x000074b0                fmtMut
                0x0000724c                fmtAmt
                0x00006e5c                fmtSbs
 .text          0x00007ac4     0x4958 Obj/RELEASE_T2/dba.o
                0x0000a664                idxApp
                0x00009704                searchInit
                0x00008c38                tabGet
                0x0000913c                recDim
                0x000081f4                dbaImport
                0x0000964c                recMove
                0x00008be0                tabReset
                0x00008e10                tabExport
                0x000096b8                recPos
                0x0000a870                idxLoad
                0x000098b0                linFind
                0x000094dc                recExport
                0x00009150                recSize
                0x0000a370                idxIns
                0x0000c17c                hshScanBeg
                0x0000b5ec                hshFind
                0x0000a9d0                idxReset
                0x0000aaa4                idxSet
                0x0000c028                hshClean
                0x0000c208                hshScanEnd
                0x00008d2c                tabPut
                0x0000b7d4                hshDel
                0x0000c240                hshScan
                0x00009a30                binFind
                0x00009b7c                idxInit
                0x00008bb0                tabSize
                0x0000b1b0                hshIns
                0x000090b8                recCache
                0x00008b04                tabCache
                0x00008b88                tabDim
                0x00008f40                tabSave
                0x00009234                recGet
                0x000091dc                recReset
                0x00009170                recFldFmt
                0x00007ac4                dbaSetPtr
                0x0000961c                recSave
                0x00008ee0                tabFlush
                0x000091b0                recFldLen
                0x000095ec                recLoad
                0x000095bc                recFlush
                0x00008f10                tabLoad
                0x0000a564                idxDel
                0x00008b9c                tabWdt
                0x0000b098                hshReset
                0x0000af98                hshInit
                0x00008fb0                recInit
                0x00008a70                tabInit
                0x00009c64                idxDim
                0x0000a708                idxSave
                0x00009394                recPut
                0x0000a69c                idxSize
                0x00008bcc                tabRowFmt
                0x00009c78                idxFind
                0x0000a340                idxSort
                0x00007d98                dbaExport
 .text          0x0000c41c     0x26a8 Obj/RELEASE_T2/drv.o
                0x0000c568                cntGet
                0x0000c67c                cntPut
                0x0000d26c                cmbInit
                0x0000c7ec                cvtLen
                0x0000c4ac                cntLen
                0x0000c41c                cntInit
                0x0000d3c8                cmbLen
                0x0000d090                cvtPut
                0x0000e8ac                cmbGet
                0x0000c774                cvtInit
                0x0000d184                cvtGet
 .text          0x0000eac4     0x3398 Obj/RELEASE_T2/dlg.o
                0x00011d88                info
                0x0000f9d0                enterStr2
                0x000107d8                removeCard
                0x0000fb90                enterData
                0x00011208                enterTxt3
                0x0000fac0                enterAmt
                0x00010830                DetectCard
                0x0000fa48                enterPwd
                0x0000fb4c                enterTcp
                0x0000fa0c                enterPhr
                0x0000eafc                dlgClick
                0x000104bc                enterCard
                0x0001086c                enterTxt2
                0x00011e18                enterTime
                0x0000eac4                stub
                0x0000f724                enterFmtStrFarsi
                0x0000f994                enterStr
                0x00011dd4                enterDate
                0x0000fa84                enterPwd2
                0x0000fbd4                enterTxt
                0x0000ecd8                mnuSelect
 .text          0x00011e5c      0xe94 Obj/RELEASE_T2/Main.o
                0x00012c5c                entry
                0x00011e5c                Main
                0x00012320                my_custom_message
                0x00012c84                state
                0x00012354                give_interface
 .text          0x00012cf0     0x1304 Obj/RELEASE_T2/sgm.o
                0x00012e50                IAM_to_myself
                0x00013828                give_your_domain
                0x00013794                is_name
                0x00013d34                file_received
                0x00013898                is_change_init
                0x000135bc                more_function
                0x00012cf0                HexDump
                0x00012edc                Task_Protocol
                0x000135f0                idle_message
                0x00013fb8                debit_emv
                0x00013650                is_delete
                0x00013c64                keyboard_event
                0x0001371c                is_state
                0x00013f1c                give_aid
                0x000134c4                message_received
                0x00013a10                debit_non_emv
                0x00013d10                time_function
                0x00013a98                is_for_you_after
                0x00013f4c                is_card_emv_for_you
                0x00013674                after_reset
                0x00013438                sendBuff
 .text          0x00013ff4     0x4584 Obj/RELEASE_T2/map.o
                0x00018144                mapExport
                0x00017e30                mapLoad
                0x000164e8                mapGet
                0x0001443c                relKey
                0x000180ec                mapIns
                0x00017a08                mapMove
                0x00015b94                mapReset
                0x00017f08                mapSave
                0x00014c64                mapInit
                0x00014478                getContainer
                0x00017574                mapDatFmt
                0x00016b6c                mapPut
                0x00018118                mapDel
                0x000170d4                mapDatLen
                0x00017fe0                mapFlush
                0x00017c9c                mapCache
                0x000180b8                mapFind
 .text          0x00018578     0x66cc Obj/RELEASE_T2/dft.o
                0x0001e4a4                dftReset
                0x00018584                getCmpTim
                0x00018578                getCmpDat
 .text          0x0001ec44     0x11f4 Obj/RELEASE_T2/rpt.o
                0x0001ed90                rptReceipt
 .text          0x0001fe38      0xeec Obj/RELEASE_T2/scr.o
                0x00020a68                scrDlg
                0x00020304                usrInfo
 .text          0x00020d24      0xfc8 Obj/RELEASE_T2/str.o
                0x000211f0                isReversibleSend
                0x00021bc0                rloPrint
                0x00021324                isReversibleRecv
                0x00020d24                traReset
                0x000210e8                emvIsApproved
                0x0002144c                mapKeyTag
                0x00021c34                incCard
                0x00020de0                strFormatDatTim
                0x00020f68                strFormatTraDatTim
 .text          0x00021cec     0x1ed0 Obj/RELEASE_T2/hdl.o
                0x00023620                hex_dump_char
                0x00022df4                hdlBefore
                0x00023990                Fn100
                0x00023a8c                FnSales
                0x00022fc0                hdlMagStripe
                0x0002345c                hdlWakeUp
                0x00023ab8                FnPrepaid
                0x00022bdc                hdlPowerOn
                0x00023a68                FnSetPIN
                0x00023bac                viewLog
                0x000239c8                FnDisableMenu
                0x00022e24                hdlAskMagStripe
                0x00023b84                FnSetMin
                0x00023a5c                FnSetMQPSVEPS
                0x00023a74                FnSettingTID
                0x00023b98                FnTerminal
                0x00023b34                FnshowOption
                0x00023a80                cetakVersion
                0x00022e14                hdlAfter
                0x00023968                FnConnSetting
                0x00023b74                FnTMS
                0x00022abc                hdlMainMenu
                0x00023954                FnCommunication
                0x0002397c                Fn99
                0x00023b10                FnPrintRef
                0x00023b50                FnPrinthis
                0x000230f8                hdlSmartCard
                0x00023ae4                FnTopUp
                0x00023608                hdlTimer
 .text          0x00023bbc     0x1acc Obj/RELEASE_T2/val.o
                0x00024e34                valPwd
                0x000248e0                valLogIsNotFull
                0x00024d34                valTxnFound
                0x00024ffc                valChipAllowed
                0x000255fc                ValBfSett
                0x00024ae8                valAppliIsInit
                0x0002473c                valCard
                0x00024efc                valEMVFallbackAllowed
                0x00024cb8                valIsTrickleFeedEnabled
                0x00024d3c                valIsPrintRequired
                0x0002482c                valAmount
                0x00025004                valFloorLimit
                0x00024a70                valBaudRate
                0x00025298                valAskPwd
                0x00023d90                valBinLogoAssign
                0x00024960                valConnSett
                0x00024af8                valIsPinRequired
                0x000249e8                valDialOpt
                0x00023ea8                valBin
                0x00024f78                valIsDebitIssuer
                0x00024e3c                valManualEntryAllowed
                0x00024af0                valNoPendingSettlement
                0x00024ff4                valMagAllowed
                0x000253d4                valAskPin
                0x00023bbc                valOpr
                0x00024c44                valIsTipAllowed
                0x00025494                valRspCod
 .text          0x00025688     0x5ebc Obj/RELEASE_T2/adm.o
                0x00025688                admDlgClick
                0x00026f38                admViewTotals
                0x00026438                admTCResetWoKey
                0x0002ad08                admMasterKey
                0x0002a890                admCmmEDHSetup
                0x0002acac                admCmmGEncryption
                0x0002b4a8                admEDCFunction
                0x0002a8ec                admCmmDTMF
                0x0002a46c                admCmmLineSetup
                0x00027738                admViewBatchNum
                0x00029e8c                admTDT
                0x00028ca0                admViewTCPIPGprs
                0x00027ff8                admTMSLoadParam
                0x0002a1a0                admCmmPrintSetting
                0x000278c4                admViewBat
                0x0002644c                admRevReset
                0x0002a040                admCmmViewSetting
                0x000263c0                admTCReset
                0x00028c5c                admTMSPrintConfig
                0x0002a8d8                admCmmCountryCode
                0x00028acc                admTMSViewConfig
                0x000260cc                admChangePwd
                0x00027878                admSetStan
                0x0002b3bc                admBlowfish
                0x000276a8                admViewRoc
                0x000291a8                admViewRs232
                0x0002acf4                admCmmGAutoEnable
                0x000297d8                admTMSConfig
                0x00026268                admReset
                0x0002a900                admCmmGConfigure
                0x0002b23c                admConnSettings
                0x000277b0                admSetBatchNum
                0x0002577c                admEnterAPN
                0x0002a02c                admTermAppli
                0x000264bc                admRevResetWoKey
                0x000264d0                admInitRpt
                0x000290d8                admViewDialup
                0x000266a0                admSWver
                0x0002a6f4                admCmmIPSetup
                0x00027834                admViewStan
                0x000276ec                admSetRoc
                0x000266e4                admViewTxn
 .text          0x0002b544     0x43ac Obj/RELEASE_T2/emv.o
                0x0002f668                emvFullProcessSet
                0x0002f4e4                emvProcessing
                0x0002f374                emvReset
                0x0002b9b4                emvApplicationSelect
                0x0002f324                myMapPut
                0x0002b544                emvInitAid
                0x0002f7ac                emvFullProcessCheck
                0x0002b6e0                emvMapAidMove
 .text          0x0002f8f0     0x38c0 Obj/RELEASE_T2/function.o
                0x00030c54                CheckFallBack
                0x0002f9bc                enterUang
                0x000313cc                settingMenu
                0x00030ec8                PrintIsoMsg
                0x0002fa9c                enterAngka
                0x0002fb4c                pmtPrepare
                0x00030424                isIct220
                0x0002fc9c                pmtPinManual
                0x000309fc                CetakMasterKey
                0x0002f91c                enterHuruf
                0x000301f0                udf_get_key_press
                0x0002f8f0                hex_dump
                0x0002febc                debug_set
                0x0003027c                PrintInit
                0x00030cf4                pmtEchoTest
                0x0002ffc4                acceptable_key
                0x00031144                ICCDebug
                0x00030508                PrintBinAndIssuerTable
                0x0003155c                call_function
                0x000310b4                debug_emv_set
                0x0003173c                displayResponse
                0x00030a80                hexDumpTMS
                0x00033164                FmtExpDat
                0x000307e8                AcquirerInfo
                0x000300a4                display_text
                0x0003115c                functionMenu
 .text          0x000331b0       0x28 Obj/RELEASE_T2/iso.o
                0x000331b0                isoFmt
 .text          0x000331d8    0x11370 Obj/RELEASE_T2/log.o
                0x00039924                briLogReset
                0x0003a2f0                logCalcTot
                0x0003e1b0                logSettlementRpt
                0x00039160                logPrintTxn
                0x00044260                setLogIsUploaded
                0x00042764                logBatchTotals
                0x000402cc                logPrintLog
                0x00039b98                copyUnmarkToBatch
                0x00044318                printAllLog
                0x000331d8                logSaveCurContext
                0x0003a2d8                logGetPreviousAmount
                0x00039df8                copyAllToBatch
                0x00039a2c                markSettlementTrans
                0x00039474                logDuplicata
                0x0003428c                logLoad
                0x0003c4b4                logConfirmTotals
                0x00039864                logReset
                0x00039858                logSetDup
                0x00041738                logHostTotals
                0x0003a2d0                logIsInBlackList
                0x0003a028                copyAllToTemporaryBatch
                0x0003d47c                logSettlement
                0x00034960                checkDebitIssuer
                0x00043b30                pmtPrepaidSettlement
                0x00033b30                logSave
                0x000332d8                logLoadCurContext
                0x0004445c                printAllSetlleDuplicate
                0x0003a214                batchSync
 .text          0x00044548      0xd20 Obj/RELEASE_T2/onl.o
                0x00044df8                DisconnectFromHost
                0x00045258                onlConnect2
                0x00044e20                onlSession
                0x000451c0                tleSecond
 .text          0x00045268     0xa800 Obj/RELEASE_T2/pmt.o
                0x0004ab70                pmtRefund
                0x0004a198                pmtSaleRedeem
                0x0004afec                pmtAdjust
                0x00046554                pmtTipInput
                0x0004610c                pmtPinInput
                0x0004a31c                pmtPreaut
                0x000463a8                pmtAmountInput
                0x0004a014                pmtSale
                0x0004b140                BlockPan
                0x0004a5bc                pmtAut
                0x0004add4                pmtVoid
                0x0004acfc                pmtOffline
                0x0004a46c                pmtPreAut
                0x0004869c                pmtPayment
                0x0004b2f0                pmtBalance
                0x0004b23c                pmtFallback
                0x0004d6a8                disableSubmenu
                0x0004a70c                pmtPreAuth
                0x0004b078                pmtManual
                0x00045270                pmtManInput
                0x000454b8                pmtCardInput
                0x00045d34                pmtOldPinInput
                0x0004b514                pmtBRI
                0x0004b3c8                pmtVoidTarikTunai
                0x0004fa3c                fmtAmtReceipt2
                0x0004a8d8                pmtPreCancel
                0x000485ec                pmtIncrementInv
                0x00045ee0                pmtNewPinInput
                0x0004aa20                pmtPreCom
                0x00047b70                dmyPmtSmartCard
                0x00045268                pmtForceOnline
 .text          0x0004fa68     0x5564 Obj/RELEASE_T2/req.o
                0x00053ba4                reqBuild
 .text          0x00054fcc      0x334 Obj/RELEASE_T2/rev.o
                0x00054fcc                revSave
                0x000551fc                tcSave
                0x000550e4                reversalTransaction
 .text          0x00055300     0x8b30 Obj/RELEASE_T2/rsp.o
                0x0005dc74                rspParse
 .text          0x0005de30     0x3afc Obj/RELEASE_T2/tle.o
                0x000611fc                checkMti
                0x00060af8                tleSession
                0x00060c28                doBRIReversal
                0x00060f88                checkMid
                0x000616e0                dumpIsoMessage
                0x00061084                checkStan
                0x00061280                procPrepaidUpload
                0x00060e8c                checkTid
 .text          0x0006192c     0x3aac Obj/RELEASE_T2/tlmchn.o
                0x00064dd0                comHangWait
                0x000649b0                comRecvBuf
                0x000630a8                comSet
                0x00063cc8                comSendBuf
                0x000619a0                parseIp
                0x00063fac                comRecv
                0x000637f8                comDial
                0x000652c0                comGetIMEI
                0x00063a50                comSend
                0x00064c64                comHangStart
                0x0006192c                parseStr
                0x00065144                comStop
                0x00061bb4                comStart
                0x000651e8                comGetIMSI
                0x000653a8                comGetLastError
                0x000653c0                comGetDialInfo
 .text          0x000653d8     0x1498 Obj/RELEASE_T2/tlmcry.o
                0x00066258                cryDiag
                0x0006677c                cryDukptGetPinTSA
                0x00066680                cry3DESDukptGetPin
                0x000655a0                cryStop
                0x00065820                cryLoadDKuDK
                0x00065fb8                cryGetPin
                0x000662e0                tlmGetSer
                0x000663d0                cryDukptInit
                0x00065984                crySetPpd
                0x000654bc                cryStart
                0x00066494                cryDukptGetPin
                0x0006658c                cry3DESDukptInit
                0x00066180                cryMac
                0x0006563c                cryLoadTestKey
                0x00065b1c                ppdLS
                0x000655b4                cryEraseKeysArray
                0x00065704                cryVerify
                0x00065b08                ppdClear
                0x00065fac                getPinLen
                0x000660bc                cryEmvPin
 .text          0x00066870     0x3ae8 Obj/RELEASE_T2/tlmemv.o
                0x00068ee8                emvAuthenticate
                0x0006951c                emvCVMstart
                0x00069bd8                emvAnalyse
                0x00069614                emvCVMnext
                0x0006808c                emvInit
                0x00068ca4                emvContext
                0x00068b58                emvGetLang
                0x00069938                emvValidate
                0x00068a04                emvSetSelectResponse
                0x00066e78                emvGetFallBack
                0x00069ed0                emvComplete
                0x00066e38                emvSetFallBack
                0x0006a134                emvGetAids
                0x000689f8                emvSetFSbuf
                0x0006a278                emvCheckCardBlocked
                0x00068660                emvSelect
                0x000685ac                emvSelectStatus
                0x000697e4                emvCVMoff
                0x00068310                emvCheckFallback
                0x00068da8                emvPrepare
                0x00068acc                emvFinalSelect
                0x000682e8                emvStop
                0x000681ac                emvStart
 .text          0x0006a358        0x4 Obj/RELEASE_T2/tcan0020.o
                0x0006a358                tcan0020
 .text          0x0006a35c    0x315d4 Obj/RELEASE_T2/BRI.o
                0x0007558c                KonfirmasiTCash
                0x0009b740                briModifyPinEntry
                0x00098d9c                viewMiniAtmLog
                0x0006cb5c                inputPembayaranKKBRI
                0x0007b414                parseField63
                0x0007b000                getField61
                0x000991bc                parseField62
                0x00074dec                inputInternetBankingPin
                0x00097dec                mLogReset
                0x00098ddc                setDumpIsoMessage
                0x0006f5d4                KonfirmasiInfoSaldo8
                0x00075f88                KonfirmasiInstallment
                0x000759d4                KonfirmasiKartuOtorisasi
                0x0006ec44                inputPrepaidDeposit
                0x0006b7d8                inputTransferSesamaBRI
                0x0007f1ac                briLogLoadByRoc
                0x00098984                selectTerminalId
                0x00074290                smartCardInput
                0x0006e7fc                inputInstallment
                0x00070168                KonfirmasiPembayaranSPP
                0x0006ad40                pmtBRIKonfirmasiSesudahInquiry
                0x000993fc                setFirstPowerOnFlag
                0x0006b094                inputTCash
                0x0007e7e8                briLogSave
                0x000712d8                KonfirmasiPembayaranSSB
                0x0006abcc                infoKodeBank
                0x0009b81c                adaTransPembelian
                0x0006d71c                inputPembayaranPLN
                0x0009b858                POSPrintReferenceNum
                0x000993a0                resetLogonDateTime
                0x0006bcf4                inputPembayaranTV
                0x0006b6fc                inputInfoSaldoBankLain
                0x0006c9ac                inputTrxTransfer
                0x0006bdcc                inputTiketPesawat
                0x00098dcc                viewTCashLog
                0x000725a0                KonfirmasiPembayaranKKCITI
                0x00099c2c                modifyMnuLayout
                0x0006a46c                trimLeft
                0x00071cf0                KonfirmasiPembayaranBriva2
                0x00073968                KonfirmasiSetPIN
                0x0006c340                inputPembayaranDPLKR
                0x0009792c                briPrintTotal
                0x0007e72c                displayLongText
                0x00097904                briPrintDetailToday
                0x0007064c                KonfirmasiPembayaranTiketPesawat
                0x0009816c                getJenisLog
                0x00097808                briPrintDetail
                0x0007328c                KonfirmasiTrxPulsa
                0x00075718                KonfirmasiRegistrasiInternetBanking
                0x000758e8                KonfirmasiRegistrasiPhoneBanking
                0x0006c62c                inputPembayaranBriva
                0x00076104                getField48
                0x0006c124                inputPembayaranSSB
                0x00072b50                KonfirmasiPembayaranKKRBS
                0x0006b2b4                inputPreAuth
                0x00083588                getBriTransTypeName
                0x0006df20                inputPembayaranPulsa
                0x000983d0                getAllAcq
                0x0007a1fc                getIso57
                0x00072878                KonfirmasiPembayaranKKHSBC
                0x0007e6b4                downloadKey
                0x00075160                inputReissuePIN
                0x00098780                selectAcquirer1
                0x0007f6a4                briLogLoadByIndex
                0x00098b90                ShowData
                0x00098b10                checkPendingSettlement
                0x0006e230                inputSetoran
                0x00098dbc                viewTunaiLog
                0x00099bb8                OptionEnabled
                0x0006b990                inputTransferAntarBank
                0x00097a28                briPrintTotalToday
                0x0007442c                KonfirmasiPembayaranPLNPra
                0x00099ec4                checkSubMnuLayout
                0x00072e28                KonfirmasiPembayaranKKStanChar
                0x00074f5c                inputGantiPasswordSPV
                0x00097ed0                tLogReset
                0x0007a318                getField63
                0x0006f9c0                KonfirmasiSetoran
                0x00082408                briLogPrintTotal
                0x0006c71c                inputSmsBanking
                0x0006e538                inputPembayaranZakat
                0x0007e0a0                scrollDisplay
                0x00075aa4                KonfirmasiPembayaranPascaBayar
                0x0006fe8c                KonfirmasiPembayaranZakat
                0x0009908c                parseField57
                0x00074808                KonfirmasiPembayaranPLN
                0x00098100                getBriReversalIdx
                0x000804b8                viewBatch1
                0x0006eafc                inputPembayaranPascaBayar
                0x0006d3a4                inputPembayaranKKStanChar
                0x000722e0                KonfirmasiPembayaranKKBRIBayar
                0x00071058                KonfirmasiPembayaranTelkom
                0x0006a5e8                convertBulan
                0x0007f9e4                briLogLoadByDate
                0x00075d54                KonfirmasiPembayaranPascaBayar8
                0x0006fcf0                KonfirmasiVoidTarikTunai
                0x00098204                getAllTid
                0x0006dd58                inputPembayaranCicilan
                0x00071df8                KonfirmasiPembayaranKKBRI
                0x0006cc34                inputPembayaranKKANZ
                0x00082f34                briLogPrintDetail
                0x0006a35c                hapusAwalan
                0x00098dac                viewCardServiceLog
                0x0006f76c                KonfirmasiInfoSaldoLain8
                0x00097a50                briGetAcq
                0x000968f4                briLogPrintTxn
                0x0006d7f4                inputPembayaranPLNToken
                0x0006d1a8                inputPembayaranKKRBS
                0x0006a824                isPembelianTransaction
                0x0006a414                trimRight
                0x0006d980                inputPembayaranPLNPra
                0x000828a8                printDetail
                0x000994d8                setECRFlag
                0x0007b360                parseField61
                0x0007d550                scrollDisplay8
                0x0007417c                prepaidInput
                0x0007160c                KonfirmasiPembayaranDPLKR
                0x00097fb8                tCashLogReset
                0x00098550                selectAcquirer
                0x0006f294                KonfirmasiPembayaranCicilan8
                0x0007fdd4                briViewBat
                0x00070090                KonfirmasiSetorPasti
                0x000723c8                KonfirmasiPembayaranKKANZ
                0x0009ab30                modifySubMnuLayout
                0x0006e6dc                inputSetorPasti
                0x0006a7ac                isBRITransaction
                0x00073830                KonfirmasiShowOption
                0x000980a0                setBriReversalIdx
                0x0006cdb0                inputPembayaranKKCITI
                0x00070420                KonfirmasiPembayaranTV
                0x00098f34                setDebugData
                0x0006ca84                inputTrxPulsa
                0x00080840                viewBatch2
                0x0006f044                KonfirmasiPembayaranPulsa
                0x00082258                strFormatDatTimBRI2
                0x000820ec                strFormatDatTimBRI
                0x0007ecc0                briLogUpdate
                0x0006ee28                KonfirmasiTransferAntarBank
                0x00073680                KonfirmasiPembayaranECR
                0x000717b8                KonfirmasiPembayaranBriva
                0x0006bf74                inputPembayaranTelkom
                0x0006be9c                inputPembayaranPdam
                0x0006dc64                KonfirmasiMinInput
                0x0006fbc4                KonfirmasiTarikTunai
                0x00073e2c                magStripeInput
                0x0006b014                isBRIInquiryTransaction
                0x00080c00                briLogCalcTotal
                0x00099468                setFirstPowerOnTempFlag
                0x00073bb0                KonfirmasiSetMQPSVEPS
                0x0006ac28                pmtBRIKonfirmasiTanpaInquiry
                0x00096248                briLogDuplicata
                0x00097d04                cLogReset
                0x0007b55c                parseField48
                0x00083e8c                briPrintData
                0x0006a89c                whichBRITransaction
                0x0006e418                inputTarikTunai
                0x0006a924                pmtBRICustomInput
                0x000733a4                konfirmasiSettingTIDMID
                0x0006a694                isBRISaveToBatch
                0x0006ab70                infoKodeUniv
                0x0006ed20                KonfirmasiTransferSesamaBRI
                0x00075264                KonfirmasiAktivasiKartu
                0x0007b2a4                parseField60
                0x00070bb8                KonfirmasiPembayaranPdam
                0x00073100                KonfirmasiTrxTransfer
                0x00099544                getInfoEcr
                0x0006a524                isBRIPrint
                0x0006d5a0                inputPembayaranSPP
                0x00096ee8                briLogSaveCurContext
                0x0006c530                inputRedeem
                0x0007364c                printVersion
                0x000757fc                KonfirmasiRegistrasiSmsBanking
                0x000972b8                briLogLoadCurContext
                0x0006cfac                inputPembayaranKKHSBC
 .text          0x0009b930     0x1ee4 Obj/RELEASE_T2/LineEncryption.o
                0x0009ccf8                keyDownload
                0x0009cd08                isEncryptedField
                0x0009ca08                decryptRSA
                0x0009c5fc                tleGetKey
                0x0009bd64                MACX9_19
                0x0009c864                tleKeyDownload
                0x0009c6c0                tleInputUserPass
                0x0009d668                GetEncryptedPinBlock
                0x0009bf0c                shaData
                0x0009d294                xsec_encrypt_data
                0x0009ceb4                xsec_generate_derivation_data
                0x0009c108                generate_random_data
                0x0009ba28                getField60
                0x0009c4d4                insertChip
                0x0009beb8                calcMAC
                0x0009c338                tleProcess
                0x0009d1a4                DecryptCBC
                0x0009d0b4                EncryptCBC
                0x0009c254                tleMenu
                0x0009b930                RSA_padding_check_PKCS1_type_2
                0x0009c174                checkKey
                0x0009cf0c                xsec_generate_USK
                0x0009cd74                xsec_add_tlv
                0x0009d3dc                Make_Pin_Block
                0x0009d020                xsec_encrypt_derivation_data
                0x0009cb14                tleDecryptAndStoreUMK
 .text          0x0009d814     0x1b08 Obj/RELEASE_T2/AES.o
                0x0009dcb4                InvShiftRows
                0x0009f188                AESLoadKey
                0x0009dd50                ShiftRows
                0x0009ddec                InvMixColumns
                0x0009f06c                AESCipher
                0x0009f234                AESEncrypt
                0x0009ef50                AESInvCipher
                0x0009ed1c                MixColumns
                0x0009f2a8                AESDecrypt
                0x0009dc44                SubBytes
                0x0009d8ac                AESKeyExpansion
                0x0009d814                getSBoxInvert
                0x0009dbd4                InvSubBytes
                0x0009d860                getSBoxValue
                0x0009db48                AddRoundKey
 .text          0x0009f31c     0x149c Obj/RELEASE_T2/keyinject.o
                0x0009ffd8                store_acqTMKRefNo
                0x000a014c                strdec2bin
                0x000a00b0                store_acqTAKnTLE
                0x0009f790                injectOpenCom
                0x0009fef8                storeWorkingKey
                0x0009fd68                storeMasterKey
                0x0009fb78                loadTransportTest
                0x0009fb10                gen_random_data
                0x000a0460                req4Key
                0x000a0204                storeKeyFromTMS
                0x0009ff6c                store_acqTMK
                0x0009f814                injectCloseCom
                0x000a0044                store_acqTAKLogon
 .text          0x000a07b8     0x8b00 Obj/RELEASE_T2/prepaid.o
                0x000a37a0                pmtPrepaidInit
                0x000a0d04                checkResponseMessage
                0x000a7ee8                printPrepaidSummary
                0x000a1124                sendReceiveMessage
                0x000a8b20                getPrepaidNii
                0x000a268c                reaktivasiInquiry
                0x000a1ca8                topUp
                0x000a7240                prepaidReprint
                0x000a0cb0                closeCom
                0x000a7264                prepaidDateSummary
                0x000a6084                pmtPrepaidReaktivasi
                0x000a8d94                getPrepaidCardInfo
                0x000a0e40                buildMessage
                0x000a7144                isPrepaidTransaction
                0x000a2f98                getPrepaidBatchNumber
                0x000a41a8                pmtPrepaidPaymentDisc
                0x000a2184                redeem
                0x000a575c                pmtPrepaidPrintLog
                0x000a2168                redeemInquiry
                0x000a2254                infoKartu
                0x000a86ac                prepaidSettlementReceipt
                0x000a2f44                getPrepaidRefNumber
                0x000a1818                displayAmount
                0x000a3118                pmtBrizzi
                0x000a35b8                autoSamInit
                0x000a3860                pmtPrepaidInfoSaldo
                0x000a1654                infoInquiry
                0x000a306c                decString2Hex
                0x000a1f08                prepaidAktivasi
                0x000a5260                pmtPrepaidRedeem
                0x000a514c                pmtPrepaidRedeemInquiry
                0x000a1510                infoSaldo
                0x000a1314                processToReader
                0x000a79e0                printPrepaidRecDetail
                0x000a4be8                pmtPrepaidTopUp
                0x000a74e8                prepaidPrintDetail
                0x000a853c                prepaidBatchIncrement
                0x000a2eb4                updatePrepaidRefNumber
                0x000a91d4                ubahTanggalKartuPrepaid
                0x000a23bc                transLog
                0x000a6284                pmtPrepaidVoidInquiry
                0x000a52a4                pmtPrepaidInfoKartu
                0x000a8e68                getPrepaidVoidTrans
                0x000a5edc                pmtPrepaidReaktivasiInquiry
                0x000a6a94                KonfirmasiPrepaidRedeem
                0x000a4a58                pmtPrepaidInquiry
                0x000a8ab0                clearPrepaidReversalFlag
                0x000a18f0                prepaidSale
                0x000a6450                pmtPrepaidVoid
                0x000a70f4                KonfirmasiPrepaidVoid
                0x000a2ff0                xx_hex_dump
                0x000a2b70                voidBrizzi
                0x000a7394                prepaidDateDetail
                0x000a45a0                pmtPrepaidPayment
                0x000a6d14                KonfirmasiPrepaidReaktivasi
                0x000a89f0                doPrepaidReversal
                0x000a3bfc                pmtPrepaidInfoDeposit
                0x000a74c8                prepaidAllDetail
                0x000a66a0                getPrepaidTidMid
                0x000a0c2c                openCom
                0x000a2dd0                ubahTanggal
                0x000a36dc                pmtPrepaidInitSaldo
                0x000a13c4                samInit
                0x000a4efc                pmtPrepaidAktivasiDeposit
                0x000a689c                selectPrepaidInit
                0x000a7388                prepaidAllSummary
                0x000a2838                reaktivasi
 .text          0x000a92b8      0xcc8 Obj/RELEASE_T2/logon.o
                0x000a92b8                DateToInt
                0x000a9438                debitLogon
                0x000a93e0                TimeToInt
 .text          0x000a9f80       0x68 Obj/RELEASE_T2/rsagen.o
                0x000a9f80                RSAKeyPair
 .text          0x000a9fe8      0x794 Obj/RELEASE_T2/prsa.o
                0x000aa540                ConvertHexStringToData
                0x000aa330                rsa_free
                0x000a9fe8                rsa_initialization
                0x000aa5e8                genRSAKeyPair
                0x000aa480                ha_to_i
                0x000aa3c4                a_to_hc
                0x000aa028                rsa_gen_key
 .text          0x000aa77c     0x6574 Obj/RELEASE_T2/bignum.o
                0x000ac294                mpi_sub_mpi
                0x000aa8d4                mpi_copy
                0x000aec88                mpi_div_mpi
                0x000aaa70                mpi_get_bit
                0x000ac3e8                mpi_sub_int
                0x000af45c                mpi_div_int
                0x000aec40                mpi_mul_int
                0x000aea94                mpi_mul_mpi
                0x000abd90                mpi_add_abs
                0x000aa77c                mpi_init
                0x000aac24                mpi_msb
                0x000ac1bc                mpi_add_mpi
                0x000abd1c                mpi_cmp_int
                0x000ac36c                mpi_add_int
                0x000af974                mpi_exp_mod
                0x000aab9c                mpi_lsb
                0x000aa80c                mpi_grow
                0x000af5b0                mpi_mod_int
                0x000b0ac8                mpi_gen_prime
                0x000ab418                mpi_write_file
                0x000af4e8                mpi_mod_mpi
                0x000ab5b4                mpi_read_binary
                0x000aa99c                mpi_swap
                0x000ab2b0                mpi_read_file
                0x000aa9e0                mpi_lset
                0x000ab76c                mpi_shift_l
                0x000aacb4                mpi_size
                0x000ac0b4                mpi_sub_abs
                0x000aaabc                mpi_set_bit
                0x000b0248                mpi_inv_mod
                0x000aba64                mpi_cmp_abs
                0x000b01a4                mpi_fill_random
                0x000ab0bc                mpi_write_string
                0x000ab90c                mpi_shift_r
                0x000aad7c                mpi_read_string
                0x000aa7ac                mpi_free
                0x000b06d8                mpi_is_prime
                0x000affa8                mpi_gcd
                0x000ab6b4                mpi_write_binary
                0x000abba0                mpi_cmp_mpi
 .text          0x000b0cf0     0x2f8c Obj/RELEASE_T2/havege.o
                0x000b3bcc                havege_init
                0x000b3bf8                havege_rand
 .text          0x000b3c7c       0x10 Obj/RELEASE_T2/timing.o
                0x000b3c7c                hardclock
 .text          0x000b3c8c      0x1c4 libs/GNU_ARM_RELEASE/RSA.lib(RSA_dec.o)
                0x000b3d1c                RSA_Decrypt
                0x000b3c8c                math_modexpmod
 .text          0x000b3e50       0x1c libs/GNU_ARM_RELEASE/RSA.lib(RSA_init.o)
                0x000b3e50                RSA_init
 .text          0x000b3e6c       0x48 libs/GNU_ARM_RELEASE/RSA.lib(m_add.o)
                0x000b3e6c                math_add
 .text          0x000b3eb4       0x5c libs/GNU_ARM_RELEASE/RSA.lib(m_b2w.o)
                0x000b3eb4                math_byteToWord
 .text          0x000b3f10       0x28 libs/GNU_ARM_RELEASE/RSA.lib(m_clr.o)
                0x000b3f10                math_clr
 .text          0x000b3f38       0x44 libs/GNU_ARM_RELEASE/RSA.lib(m_cmp.o)
                0x000b3f38                math_cmp
 .text          0x000b3f7c       0x4c libs/GNU_ARM_RELEASE/RSA.lib(m_cpy.o)
                0x000b3f7c                math_cpy
 .text          0x000b3fc8      0x14c libs/GNU_ARM_RELEASE/RSA.lib(m_div.o)
                0x000b4000                math_div
                0x000b3fc8                math_predict
 .text          0x000b4114       0xac libs/GNU_ARM_RELEASE/RSA.lib(m_mem.o)
                0x000b4130                math_memAlloc
                0x000b4114                math_memInit
                0x000b41a0                math_memFree
 .text          0x000b41c0       0x24 libs/GNU_ARM_RELEASE/RSA.lib(m_modmul.o)
                0x000b41c0                math_modmul
 .text          0x000b41e4       0xe4 libs/GNU_ARM_RELEASE/RSA.lib(m_monexp.o)
                0x000b41e4                math_monexp
 .text          0x000b42c8       0x3c libs/GNU_ARM_RELEASE/RSA.lib(m_moninv.o)
                0x000b42c8                math_moninv
 .text          0x000b4304       0x28 libs/GNU_ARM_RELEASE/RSA.lib(m_monmul.o)
                0x000b4304                math_monmul
 .text          0x000b432c       0x48 libs/GNU_ARM_RELEASE/RSA.lib(m_msb.o)
                0x000b432c                math_msb
 .text          0x000b4374       0xc8 libs/GNU_ARM_RELEASE/RSA.lib(m_mul.o)
                0x000b4374                math_mul
 .text          0x000b443c       0x68 libs/GNU_ARM_RELEASE/RSA.lib(m_mulsub.o)
                0x000b443c                math_mulsub
 .text          0x000b44a4       0x64 libs/GNU_ARM_RELEASE/RSA.lib(m_rand.o)
                0x000b44a4                math_random_init
                0x000b44cc                math_random
                0x000b44b4                math_random_bit
 .text          0x000b4508      0x110 libs/GNU_ARM_RELEASE/RSA.lib(m_red.o)
                0x000b4508                math_monred
 .text          0x000b4618       0x84 libs/GNU_ARM_RELEASE/RSA.lib(m_shlx.o)
                0x000b4618                math_shlx
 .text          0x000b469c       0x8c libs/GNU_ARM_RELEASE/RSA.lib(m_shrx.o)
                0x000b469c                math_shrx
 .text          0x000b4728       0x48 libs/GNU_ARM_RELEASE/RSA.lib(m_sub.o)
                0x000b4728                math_sub
 .text          0x000b4770       0x3c libs/GNU_ARM_RELEASE/RSA.lib(m_w2b.o)
                0x000b4770                math_wordToByte
 .text          0x000b47ac       0x4c C:/Program Files/SDK30/SDK 9.20.0.01/SDK/lib_gnu/eft30.lib(iam1.o)
                0x000b47ac                Send_Message
 .text          0x000b47f8       0x54 C:/Program Files/SDK30/SDK 9.20.0.01/SDK/lib_gnu/eft30.lib(iamtd1.o)
                0x000b47f8                iamlib_open
                0x000b483c                iamlib_close
 .text          0x000b484c       0x64 C:/Program Files/SDK30/SDK 9.20.0.01/SDK/lib_gnu/eft30.lib(extens280.o)
                0x000b484c                USR_ServiceCall
 .text          0x000b48b0       0x4c C:/Program Files/SDK30/SDK 9.20.0.01/SDK/lib_gnu/eft30.lib(extens53.o)
                0x000b48b0                d_tolong
 .text          0x000b48fc       0x4c C:/Program Files/SDK30/SDK 9.20.0.01/SDK/lib_gnu/eft30.lib(extens89.o)
                0x000b48fc                GetSemaphoreUser
 .text          0x000b4948       0x4c C:/Program Files/SDK30/SDK 9.20.0.01/SDK/lib_gnu/eft30.lib(extens90.o)
                0x000b4948                FreeSemaphoreUser
 .text          0x000b4994       0x4c C:/Program Files/SDK30/SDK 9.20.0.01/SDK/lib_gnu/eft30.lib(extens93.o)
                0x000b4994                GetDelayUser
 .text          0x000b49e0       0x4c C:/Program Files/SDK30/SDK 9.20.0.01/SDK/lib_gnu/eft30.lib(extens94.o)
                0x000b49e0                FreeDelayUser
 .text          0x000b4a2c       0x54 C:/Program Files/SDK30/SDK 9.20.0.01/SDK/lib_gnu/eft30.lib(extenstd1.o)
                0x000b4a70                extenslib_close
                0x000b4a2c                extenslib_open
 .text          0x000b4a80       0x50 C:/Program Files/SDK30/SDK 9.20.0.01/SDK/lib_gnu/eft30.lib(extenstdeux5.o)
                0x000b4a80                Get_TypeCode
 .text          0x000b4ad0       0x44 C:/Program Files/SDK30/SDK 9.20.0.01/SDK/lib_gnu/eft30.lib(extensostd119.o)
                0x000b4ad0                StateHeader
 .text          0x000b4b14       0x48 C:/Program Files/SDK30/SDK 9.20.0.01/SDK/lib_gnu/eft30.lib(param17.o)
                0x000b4b14                PSQ_Donner_noserie
 .text          0x000b4b5c       0x50 C:/Program Files/SDK30/SDK 9.20.0.01/SDK/lib_gnu/eft30.lib(param46.o)
                0x000b4b5c                PSQ_Update_Cash_Connection
 .text          0x000b4bac       0x48 C:/Program Files/SDK30/SDK 9.20.0.01/SDK/lib_gnu/eft30.lib(param72.o)
                0x000b4bac                PSQ_donner_type_pinpad
 .text          0x000b4bf4       0x54 C:/Program Files/SDK30/SDK 9.20.0.01/SDK/lib_gnu/eft30.lib(paramtd1.o)
                0x000b4bf4                paramlib_open
                0x000b4c38                paramlib_close
 .text          0x000b4c48      0xc48 C:/Program Files/SDK30/SDK 9.20.0.01/SDK/lib_gnu/eft30.lib(crypto2.o)
                0x000b5070                Des112Cipher
                0x000b4ec4                NotB
                0x000b4c48                Crypto_Dll_Version
                0x000b576c                sha256_init
                0x000b5150                Des56DecipherIcv
                0x000b4cdc                AesCipherInit
                0x000b53c4                FormatPinBloc
                0x000b52d8                DukptLoadKey
                0x000b4c88                AesMakeKey
                0x000b5240                MacIcv
                0x000b51f0                Des112DecipherIcv
                0x000b5728                MD5Final
                0x000b4d28                AesBlockEncrypt
                0x000b51a0                Des112CipherIcv
                0x000b5100                Des56CipherIcv
                0x000b55bc                RSAPublicKey
                0x000b54ac                ShaInit
                0x000b4d7c                AesBlockDecrypt
                0x000b5534                ShaFinal
                0x000b5320                DukptCurrentKeyDerivation
                0x000b4fe0                Des56Cipher
                0x000b5290                DukptInitialKeyCreation
                0x000b5654                RSAGenerateKeys
                0x000b4f98                AndB
                0x000b5370                DukptEncryptPin
                0x000b56a0                MD5Init
                0x000b4e74                CalculateLrc
                0x000b5574                ShaCompute
                0x000b57b0                sha256_update
                0x000b4f50                OrB
                0x000b56e0                MD5Update
                0x000b5844                sha256
                0x000b5608                RSAPrivateKey
                0x000b5464                Owf
                0x000b50b8                Des112Decipher
                0x000b4e24                CalculateCrc
                0x000b54ec                ShaUpdate
                0x000b541c                MkskEncryptPin
                0x000b5028                Des56Decipher
                0x000b57fc                sha256_finish
                0x000b4f08                XorB
                0x000b4dd0                AesCipherUpdateRounds
 .text          0x000b5890       0x64 C:/Program Files/SDK30/SDK 9.20.0.01/SDK/lib_gnu/eft30.lib(cryptotd1.o)
                0x000b5890                Crypto_Dll_Open
                0x000b58d8                Crypto_Dll_Close
 .text          0x000b58f4       0x48 C:/Program Files/SDK30/SDK 9.20.0.01/SDK/lib_gnu/eft30.lib(pinpad10.o)
                0x000b58f4                PPS_firstline
 .text          0x000b593c       0x4c C:/Program Files/SDK30/SDK 9.20.0.01/SDK/lib_gnu/eft30.lib(pinpad12.o)
                0x000b593c                PPS_Display
 .text          0x000b5988       0x4c C:/Program Files/SDK30/SDK 9.20.0.01/SDK/lib_gnu/eft30.lib(pinpad15.o)
                0x000b5988                PPS_clear_display
 .text          0x000b59d4       0x48 C:/Program Files/SDK30/SDK 9.20.0.01/SDK/lib_gnu/eft30.lib(pinpad8.o)
                0x000b59d4                PPS_newline
 .text          0x000b5a1c       0x48 C:/Program Files/SDK30/SDK 9.20.0.01/SDK/lib_gnu/eft30.lib(pinpad9.o)
                0x000b5a1c                PPS_clearline
 .text          0x000b5a64       0x54 C:/Program Files/SDK30/SDK 9.20.0.01/SDK/lib_gnu/eft30.lib(pinpadtd1.o)
                0x000b5a64                pinpadlib_open
                0x000b5aa8                pinpadlib_close
 .text          0x000b5ab8       0x48 C:/Program Files/SDK30/SDK 9.20.0.01/SDK/lib_gnu/eft30.lib(sv24.o)
                0x000b5ab8                SV_read_date
 .text          0x000b5b00       0x48 C:/Program Files/SDK30/SDK 9.20.0.01/SDK/lib_gnu/eft30.lib(sv25.o)
                0x000b5b00                SV_write_date
 .text          0x000b5b48       0x54 C:/Program Files/SDK30/SDK 9.20.0.01/SDK/lib_gnu/eft30.lib(svtd1.o)
                0x000b5b48                svlib_open
                0x000b5b8c                svlib_close
 .text          0x000b5b9c       0x4c C:/Program Files/SDK30/SDK 9.20.0.01/SDK/lib_gnu/eft30.lib(svtd21.o)
                0x000b5b9c                SV_input_command
 .text          0x000b5be8       0x4c C:/Program Files/SDK30/SDK 9.20.0.01/SDK/lib_gnu/eft30.lib(svtd22.o)
                0x000b5be8                SV_output_command
 .text          0x000b5c34       0x4c C:/Program Files/SDK30/SDK 9.20.0.01/SDK/lib_gnu/eft30.lib(svtd23.o)
                0x000b5c34                SV_power_on
 .text          0x000b5c80       0x3c C:/Program Files/SDK30/SDK 9.20.0.01/SDK/lib_gnu/eft30.lib(libgr137.o)
                0x000b5c80                PaintGraphics
 .text          0x000b5cbc       0x48 C:/Program Files/SDK30/SDK 9.20.0.01/SDK/lib_gnu/eft30.lib(libgr35.o)
                0x000b5cbc                _clrscr
 .text          0x000b5d04       0x48 C:/Program Files/SDK30/SDK 9.20.0.01/SDK/lib_gnu/eft30.lib(libgr40.o)
                0x000b5d04                InitContexteGraphique
 .text          0x000b5d4c       0x60 C:/Program Files/SDK30/SDK 9.20.0.01/SDK/lib_gnu/eft30.lib(libgr41.o)
                0x000b5d4c                DisplayBitmap
 .text          0x000b5dac       0x48 C:/Program Files/SDK30/SDK 9.20.0.01/SDK/lib_gnu/eft30.lib(libgr49.o)
                0x000b5dac                GetDefaultFont
 .text          0x000b5df4       0x4c C:/Program Files/SDK30/SDK 9.20.0.01/SDK/lib_gnu/eft30.lib(libgr54.o)
                0x000b5df4                DefCurrentFont
 .text          0x000b5e40       0x64 C:/Program Files/SDK30/SDK 9.20.0.01/SDK/lib_gnu/eft30.lib(libgr55.o)
                0x000b5e40                DrawExtendedString8859
 .text          0x000b5ea4       0x5c C:/Program Files/SDK30/SDK 9.20.0.01/SDK/lib_gnu/eft30.lib(libgr58.o)
                0x000b5ea4                pprintf8859
 .text          0x000b5f00       0x4c C:/Program Files/SDK30/SDK 9.20.0.01/SDK/lib_gnu/eft30.lib(libgr66.o)
                0x000b5f00                GetExtendedPoliceSize
 .text          0x000b5f4c       0x44 C:/Program Files/SDK30/SDK 9.20.0.01/SDK/lib_gnu/eft30.lib(libgr68.o)
                0x000b5f4c                LoadFont
 .text          0x000b5f90       0x4c C:/Program Files/SDK30/SDK 9.20.0.01/SDK/lib_gnu/eft30.lib(libgr7.o)
                0x000b5f90                CreateGraphics
 .text          0x000b5fdc       0x54 C:/Program Files/SDK30/SDK 9.20.0.01/SDK/lib_gnu/eft30.lib(libgr8.o)
                0x000b5fdc                _SetPixel
 .text          0x000b6030       0x48 C:/Program Files/SDK30/SDK 9.20.0.01/SDK/lib_gnu/eft30.lib(libgr82.o)
                0x000b6030                PaintPrinterGraphics
 .text          0x000b6078       0x4c C:/Program Files/SDK30/SDK 9.20.0.01/SDK/lib_gnu/eft30.lib(libgr83.o)
                0x000b6078                InitPrinterBitmap
 .text          0x000b60c4       0x64 C:/Program Files/SDK30/SDK 9.20.0.01/SDK/lib_gnu/eft30.lib(libgr86.o)
                0x000b60c4                _pprintf8859XY
 .text          0x000b6128       0x54 C:/Program Files/SDK30/SDK 9.20.0.01/SDK/lib_gnu/eft30.lib(libgrtd1.o)
                0x000b6128                libgrlib_open
                0x000b616c                libgrlib_close
 .text          0x000b617c       0x44 C:/Program Files/SDK30/SDK 9.20.0.01/SDK/lib_gnu/eft30.lib(Tools35.o)
                0x000b617c                TM_read_date
 .text          0x000b61c0       0x44 C:/Program Files/SDK30/SDK 9.20.0.01/SDK/lib_gnu/eft30.lib(Tools36.o)
                0x000b61c0                TM_write_date
 .text          0x000b6204       0x58 C:/Program Files/SDK30/SDK 9.20.0.01/SDK/lib_gnu/eft30.lib(Toolstd1.o)
                0x000b624c                toolslib_close
                0x000b6204                toolslib_open
 .text          0x000b625c       0x60 C:/Program Files/SDK30/SDK 9.20.0.01/SDK/lib_gnu/eft30.lib(gprstd1.o)
                0x000b62ac                gprslib_close
                0x000b625c                gprslib_open
 .text          0x000b62bc      0x1d8 C:/Program Files/SDK30/SDK 9.20.0.01/SDK/lib_gnu/eft30.lib(LibAppliT2.o)
                0x000b63ac                putchar
                0x000b6310                printf
                0x000b6334                format
                0x000b63c4                puts
                0x000b62bc                fprintf
                0x000b62d8                vprintf
                0x000b63d8                InitGK
                0x000b62f4                sprintf
                0x000b6404                PAY_GetLastReturnCode
                0x000b6444                WaitOnError
                0x000b6350                OEM_exit_asm
                0x000b635c                __stdprt
                0x000b63f4                TrapResetDiv0
                0x000b6374                pprintf
 .text          0x000b6494        0xe C:/Program Files/SDK30/SDK 9.20.0.01/SDK/lib_gnu/eft30.lib(Telium_Exit.o)
                0x000b6494                Telium_Exit
 *fill*         0x000b64a2        0x2 00
 .text          0x000b64a4       0x4c C:/Program Files/SDK30/SDK 9.20.0.01/SDK/lib_gnu/eft30.lib(extens252.o)
                0x000b64a4                TM_InitContexteGraphique
 .text          0x000b64f0       0x10 C:/Program Files/SDK30/SDK 9.20.0.01/SDK/lib_gnu/trap.lib(trap_1302___STDOUT.o)
                0x000b64f0                __STDOUT
 .text          0x000b6500       0x10 C:/Program Files/SDK30/SDK 9.20.0.01/SDK/lib_gnu/trap.lib(trap_1303_OS_rtc_CurrentTask.o)
                0x000b6500                OS_rtc_CurrentTask
 .text          0x000b6510       0x10 C:/Program Files/SDK30/SDK 9.20.0.01/SDK/lib_gnu/trap.lib(trap_1305_OS_rtc_SignalEvent.o)
                0x000b6510                OS_rtc_SignalEvent
 .text          0x000b6520       0x10 C:/Program Files/SDK30/SDK 9.20.0.01/SDK/lib_gnu/trap.lib(trap_1307_OS_rtc_V.o)
                0x000b6520                OS_rtc_V
 .text          0x000b6530       0x10 C:/Program Files/SDK30/SDK 9.20.0.01/SDK/lib_gnu/trap.lib(trap_1308_OS_rtc_P.o)
                0x000b6530                OS_rtc_P
 .text          0x000b6540       0x10 C:/Program Files/SDK30/SDK 9.20.0.01/SDK/lib_gnu/trap.lib(trap_1309_OS_rtc_StartLDelay.o)
                0x000b6540                OS_rtc_StartLDelay
 .text          0x000b6550       0x10 C:/Program Files/SDK30/SDK 9.20.0.01/SDK/lib_gnu/trap.lib(trap_130A_OS_rtc_StopDelay.o)
                0x000b6550                OS_rtc_StopDelay
 .text          0x000b6560       0x10 C:/Program Files/SDK30/SDK 9.20.0.01/SDK/lib_gnu/trap.lib(trap_130D_OS_rtc_InitSemaphore.o)
                0x000b6560                OS_rtc_InitSemaphore
 .text          0x000b6570       0x10 C:/Program Files/SDK30/SDK 9.20.0.01/SDK/lib_gnu/trap.lib(trap_1313_fclose.o)
                0x000b6570                fclose
 .text          0x000b6580       0x10 C:/Program Files/SDK30/SDK 9.20.0.01/SDK/lib_gnu/trap.lib(trap_1314_fopen.o)
                0x000b6580                fopen
 .text          0x000b6590       0x10 C:/Program Files/SDK30/SDK 9.20.0.01/SDK/lib_gnu/trap.lib(trap_1315_fread.o)
                0x000b6590                fread
 .text          0x000b65a0       0x10 C:/Program Files/SDK30/SDK 9.20.0.01/SDK/lib_gnu/trap.lib(trap_1316_fwrite.o)
                0x000b65a0                fwrite
 .text          0x000b65b0       0x10 C:/Program Files/SDK30/SDK 9.20.0.01/SDK/lib_gnu/trap.lib(trap_1319_getc.o)
                0x000b65b0                getc
 .text          0x000b65c0       0x10 C:/Program Files/SDK30/SDK 9.20.0.01/SDK/lib_gnu/trap.lib(trap_131A_reset_buf.o)
                0x000b65c0                reset_buf
 .text          0x000b65d0       0x10 C:/Program Files/SDK30/SDK 9.20.0.01/SDK/lib_gnu/trap.lib(trap_131B___STDIN.o)
                0x000b65d0                __STDIN
 .text          0x000b65e0       0x10 C:/Program Files/SDK30/SDK 9.20.0.01/SDK/lib_gnu/trap.lib(trap_131E_status.o)
                0x000b65e0                status
 .text          0x000b65f0       0x10 C:/Program Files/SDK30/SDK 9.20.0.01/SDK/lib_gnu/trap.lib(trap_1320_gotoxy.o)
                0x000b65f0                gotoxy
 .text          0x000b6600       0x10 C:/Program Files/SDK30/SDK 9.20.0.01/SDK/lib_gnu/trap.lib(trap_1323__vfprintf.o)
                0x000b6600                _vfprintf
 .text          0x000b6610       0x10 C:/Program Files/SDK30/SDK 9.20.0.01/SDK/lib_gnu/trap.lib(trap_1324_vsprintf.o)
                0x000b6610                vsprintf
 .text          0x000b6620       0x10 C:/Program Files/SDK30/SDK 9.20.0.01/SDK/lib_gnu/trap.lib(trap_1325_fgets.o)
                0x000b6620                fgets
 .text          0x000b6630       0x10 C:/Program Files/SDK30/SDK 9.20.0.01/SDK/lib_gnu/trap.lib(trap_1328_putc.o)
                0x000b6630                putc
 .text          0x000b6640       0x10 C:/Program Files/SDK30/SDK 9.20.0.01/SDK/lib_gnu/trap.lib(trap_1329_ttestall.o)
                0x000b6640                ttestall
 .text          0x000b6650       0x10 C:/Program Files/SDK30/SDK 9.20.0.01/SDK/lib_gnu/trap.lib(trap_132A_fork.o)
                0x000b6650                fork
 .text          0x000b6660       0x10 C:/Program Files/SDK30/SDK 9.20.0.01/SDK/lib_gnu/trap.lib(trap_132B_kill.o)
                0x000b6660                kill
 .text          0x000b6670       0x10 C:/Program Files/SDK30/SDK 9.20.0.01/SDK/lib_gnu/trap.lib(trap_132C_FormatOem.o)
                0x000b6670                FormatOem
 .text          0x000b6680       0x10 C:/Program Files/SDK30/SDK 9.20.0.01/SDK/lib_gnu/trap.lib(trap_1332_EMV_apdu.o)
                0x000b6680                EMV_apdu
 .text          0x000b6690       0x10 C:/Program Files/SDK30/SDK 9.20.0.01/SDK/lib_gnu/trap.lib(trap_1335_EMV_power_on.o)
                0x000b6690                EMV_power_on
 .text          0x000b66a0       0x10 C:/Program Files/SDK30/SDK 9.20.0.01/SDK/lib_gnu/trap.lib(trap_1336_power_on.o)
                0x000b66a0                power_on
 .text          0x000b66b0       0x10 C:/Program Files/SDK30/SDK 9.20.0.01/SDK/lib_gnu/trap.lib(trap_1338_input_command.o)
                0x000b66b0                input_command
 .text          0x000b66c0       0x10 C:/Program Files/SDK30/SDK 9.20.0.01/SDK/lib_gnu/trap.lib(trap_1339_output_command.o)
                0x000b66c0                output_command
 .text          0x000b66d0       0x10 C:/Program Files/SDK30/SDK 9.20.0.01/SDK/lib_gnu/trap.lib(trap_1348_ObjectGetInfo.o)
                0x000b66d0                ObjectGetInfo
 .text          0x000b66e0       0x10 C:/Program Files/SDK30/SDK 9.20.0.01/SDK/lib_gnu/trap.lib(trap_1349_ObjectLoad.o)
                0x000b66e0                ObjectLoad
 .text          0x000b66f0       0x10 C:/Program Files/SDK30/SDK 9.20.0.01/SDK/lib_gnu/trap.lib(trap_134D_ServiceRegister.o)
                0x000b66f0                ServiceRegister
 .text          0x000b6700       0x10 C:/Program Files/SDK30/SDK 9.20.0.01/SDK/lib_gnu/trap.lib(trap_134E_ServiceGet.o)
                0x000b6700                ServiceGet
 .text          0x000b6710       0x10 C:/Program Files/SDK30/SDK 9.20.0.01/SDK/lib_gnu/trap.lib(trap_1350_DllLink.o)
                0x000b6710                DllLink
 .text          0x000b6720       0x10 C:/Program Files/SDK30/SDK 9.20.0.01/SDK/lib_gnu/trap.lib(trap_1352_DllUnlink.o)
                0x000b6720                DllUnlink
 .text          0x000b6730       0x10 C:/Program Files/SDK30/SDK 9.20.0.01/SDK/lib_gnu/trap.lib(trap_1356_stdperif.o)
                0x000b6730                stdperif
 .text          0x000b6740       0x10 C:/Program Files/SDK30/SDK 9.20.0.01/SDK/lib_gnu/trap.lib(trap_135B_StartRetroEclairage.o)
                0x000b6740                StartRetroEclairage
 .text          0x000b6750       0x10 C:/Program Files/SDK30/SDK 9.20.0.01/SDK/lib_gnu/trap.lib(trap_135C_StopRetroEclairage.o)
                0x000b6750                StopRetroEclairage
 .text          0x000b6760       0x10 C:/Program Files/SDK30/SDK 9.20.0.01/SDK/lib_gnu/trap.lib(trap_1369_startupcv20.o)
                0x000b6760                startupcv20
 .text          0x000b6770       0x10 C:/Program Files/SDK30/SDK 9.20.0.01/SDK/lib_gnu/trap.lib(trap_1373_ctrl_date.o)
                0x000b6770                ctrl_date
 .text          0x000b6780       0x10 C:/Program Files/SDK30/SDK 9.20.0.01/SDK/lib_gnu/trap.lib(trap_1374_defprinterpattern.o)
                0x000b6780                defprinterpattern
 .text          0x000b6790       0x10 C:/Program Files/SDK30/SDK 9.20.0.01/SDK/lib_gnu/trap.lib(trap_1375_download.o)
                0x000b6790                download
 .text          0x000b67a0       0x10 C:/Program Files/SDK30/SDK 9.20.0.01/SDK/lib_gnu/trap.lib(trap_1378_OEM_exit.o)
                0x000b67a0                OEM_exit
 .text          0x000b67b0       0x10 C:/Program Files/SDK30/SDK 9.20.0.01/SDK/lib_gnu/trap.lib(trap_137B_is_iso2.o)
                0x000b67b0                is_iso2
 .text          0x000b67c0       0x10 C:/Program Files/SDK30/SDK 9.20.0.01/SDK/lib_gnu/trap.lib(trap_137C_is_iso3.o)
                0x000b67c0                is_iso3
 .text          0x000b67d0       0x10 C:/Program Files/SDK30/SDK 9.20.0.01/SDK/lib_gnu/trap.lib(trap_137D_is_iso1.o)
                0x000b67d0                is_iso1
 .text          0x000b67e0       0x10 C:/Program Files/SDK30/SDK 9.20.0.01/SDK/lib_gnu/trap.lib(trap_138B_FS_dskcreate.o)
                0x000b67e0                FS_dskcreate
 .text          0x000b67f0       0x10 C:/Program Files/SDK30/SDK 9.20.0.01/SDK/lib_gnu/trap.lib(trap_138D_FS_mount.o)
                0x000b67f0                FS_mount
 .text          0x000b6800       0x10 C:/Program Files/SDK30/SDK 9.20.0.01/SDK/lib_gnu/trap.lib(trap_138E_FS_unmount.o)
                0x000b6800                FS_unmount
 .text          0x000b6810       0x10 C:/Program Files/SDK30/SDK 9.20.0.01/SDK/lib_gnu/trap.lib(trap_1395_FS_opendir.o)
                0x000b6810                FS_opendir
 .text          0x000b6820       0x10 C:/Program Files/SDK30/SDK 9.20.0.01/SDK/lib_gnu/trap.lib(trap_1396_FS_readdir.o)
                0x000b6820                FS_readdir
 .text          0x000b6830       0x10 C:/Program Files/SDK30/SDK 9.20.0.01/SDK/lib_gnu/trap.lib(trap_1397_FS_closedir.o)
                0x000b6830                FS_closedir
 .text          0x000b6840       0x10 C:/Program Files/SDK30/SDK 9.20.0.01/SDK/lib_gnu/trap.lib(trap_1398_FS_rename.o)
                0x000b6840                FS_rename
 .text          0x000b6850       0x10 C:/Program Files/SDK30/SDK 9.20.0.01/SDK/lib_gnu/trap.lib(trap_1399_FS_unlink.o)
                0x000b6850                FS_unlink
 .text          0x000b6860       0x10 C:/Program Files/SDK30/SDK 9.20.0.01/SDK/lib_gnu/trap.lib(trap_139B_FS_open.o)
                0x000b6860                FS_open
 .text          0x000b6870       0x10 C:/Program Files/SDK30/SDK 9.20.0.01/SDK/lib_gnu/trap.lib(trap_139C_FS_close.o)
                0x000b6870                FS_close
 .text          0x000b6880       0x10 C:/Program Files/SDK30/SDK 9.20.0.01/SDK/lib_gnu/trap.lib(trap_139D_FS_read.o)
                0x000b6880                FS_read
 .text          0x000b6890       0x10 C:/Program Files/SDK30/SDK 9.20.0.01/SDK/lib_gnu/trap.lib(trap_139E_FS_write.o)
                0x000b6890                FS_write
 .text          0x000b68a0       0x10 C:/Program Files/SDK30/SDK 9.20.0.01/SDK/lib_gnu/trap.lib(trap_139F_FS_flush.o)
                0x000b68a0                FS_flush
 .text          0x000b68b0       0x10 C:/Program Files/SDK30/SDK 9.20.0.01/SDK/lib_gnu/trap.lib(trap_13A1_FS_length.o)
                0x000b68b0                FS_length
 .text          0x000b68c0       0x10 C:/Program Files/SDK30/SDK 9.20.0.01/SDK/lib_gnu/trap.lib(trap_13A2_FS_seek.o)
                0x000b68c0                FS_seek
 .text          0x000b68d0       0x10 C:/Program Files/SDK30/SDK 9.20.0.01/SDK/lib_gnu/trap.lib(trap_13A8_info_seg.o)
                0x000b68d0                info_seg
 .text          0x000b68e0       0x10 C:/Program Files/SDK30/SDK 9.20.0.01/SDK/lib_gnu/trap.lib(trap_13AA_num_seg.o)
                0x000b68e0                num_seg
 .text          0x000b68f0       0x10 C:/Program Files/SDK30/SDK 9.20.0.01/SDK/lib_gnu/trap.lib(trap_13AB_first_init.o)
                0x000b68f0                first_init
 .text          0x000b6900       0x10 C:/Program Files/SDK30/SDK 9.20.0.01/SDK/lib_gnu/trap.lib(trap_13B2_ApplicationGetCurrent.o)
                0x000b6900                ApplicationGetCurrent
 .text          0x000b6910       0x10 C:/Program Files/SDK30/SDK 9.20.0.01/SDK/lib_gnu/trap.lib(trap_13B9_buzzer.o)
                0x000b6910                buzzer
 .text          0x000b6920       0x10 C:/Program Files/SDK30/SDK 9.20.0.01/SDK/lib_gnu/trap.lib(trap_13BE_GiveNoTask.o)
                0x000b6920                GiveNoTask
 .text          0x000b6930       0x10 C:/Program Files/SDK30/SDK 9.20.0.01/SDK/lib_gnu/trap.lib(trap_13C2_InitGkDrv.o)
                0x000b6930                InitGkDrv
 .text          0x000b6940       0x10 C:/Program Files/SDK30/SDK 9.20.0.01/SDK/lib_gnu/trap.lib(trap_13CE_closesocket.o)
                0x000b6940                closesocket
 .text          0x000b6950       0x10 C:/Program Files/SDK30/SDK 9.20.0.01/SDK/lib_gnu/trap.lib(trap_13CF_connect.o)
                0x000b6950                connect
 .text          0x000b6960       0x10 C:/Program Files/SDK30/SDK 9.20.0.01/SDK/lib_gnu/trap.lib(trap_13D6_shutdownsocket.o)
                0x000b6960                shutdownsocket
 .text          0x000b6970       0x10 C:/Program Files/SDK30/SDK 9.20.0.01/SDK/lib_gnu/trap.lib(trap_13D7_socket.o)
                0x000b6970                socket
 .text          0x000b6980       0x10 C:/Program Files/SDK30/SDK 9.20.0.01/SDK/lib_gnu/trap.lib(trap_1406_umalloc.o)
                0x000b6980                umalloc
 .text          0x000b6990       0x10 C:/Program Files/SDK30/SDK 9.20.0.01/SDK/lib_gnu/trap.lib(trap_1407_ufree.o)
                0x000b6990                ufree
 .text          0x000b69a0       0x10 C:/Program Files/SDK30/SDK 9.20.0.01/SDK/lib_gnu/trap.lib(trap_1414_fioctl.o)
                0x000b69a0                fioctl
 .text          0x000b69b0       0x10 C:/Program Files/SDK30/SDK 9.20.0.01/SDK/lib_gnu/trap.lib(trap_1426_get_tick_counter.o)
                0x000b69b0                get_tick_counter
 .text          0x000b69c0       0x10 C:/Program Files/SDK30/SDK 9.20.0.01/SDK/lib_gnu/trap.lib(trap_1432_SystemFioctl.o)
                0x000b69c0                SystemFioctl
 .text          0x000b69d0      0x15c C:/Program Files/SDK30/SDK 9.20.0.01/SDK/lib_gnu/AVL.lib(Proxy.o)
                0x000b6b14                TlvTree_SetTag
                0x000b6b20                TlvTree_Copy
                0x000b6a3c                TlvTree_Serialize
                0x000b6aa8                TlvTree_GetTag
                0x000b6ab4                TlvTree_GetLength
                0x000b6a9c                TlvTree_GetNext
                0x000b6a6c                TlvTree_Iterate
                0x000b6a90                TlvTree_GetParent
                0x000b69dc                TlvTree_AddChild
                0x000b69e8                TlvTree_AddChildInteger
                0x000b6af4                TlvTree_SetDataInteger
                0x000b6a60                TlvTree_Find
                0x000b6a04                TlvTree_AddChildString
                0x000b6a54                TlvTree_Unserialize
                0x000b6ac0                TlvTree_GetData
                0x000b6acc                TlvTree_SetData
                0x000b6a84                TlvTree_GetFirstChild
                0x000b6ad8                TlvTree_SetDataString
                0x000b6a48                TlvTree_GetSerializationSize
                0x000b6a30                TlvTree_Release
                0x000b6a24                TlvTree_Graft
                0x000b69d0                TlvTree_New
 .text          0x000b6b2c       0xa0 C:/Program Files/SDK30/SDK 9.20.0.01/SDK/lib_gnu/AVL.lib(Serializer.o)
                0x000b6ba8                __TlvTree_GetSerializationSize
                0x000b6b58                __TlvTree_Unserialize
                0x000b6b2c                __TlvTree_Serialize
 .text          0x000b6bcc      0x2c8 C:/Program Files/SDK30/SDK 9.20.0.01/SDK/lib_gnu/AVL.lib(Serializer_Default.o)
                0x000b6c3c                __TlvTree_Serialize_Default
                0x000b6d90                __TlvTree_Unserialize_Default
                0x000b6d4c                __TlvTree_GetSerializationSize_Default
 .text          0x000b6e94      0x7a4 C:/Program Files/SDK30/SDK 9.20.0.01/SDK/lib_gnu/AVL.lib(Serializer_Xml.o)
                0x000b7548                __TlvTree_Unserialize_Xml
                0x000b717c                __TlvTree_GetSerializationSize_Xml
                0x000b6f68                __TlvTree_Serialize_Xml
 .text          0x000b7638      0x1a4 C:/Program Files/SDK30/SDK 9.20.0.01/SDK/lib_gnu/AVL.lib(XMLs.o)
                0x000b7670                XMLs_Create
                0x000b76a8                XMLs_Destroy
                0x000b778c                XMLs_ParseBuffer
                0x000b76f8                XMLs_ParseStream
 .text          0x000b77dc      0x7fc C:/Program Files/SDK30/SDK 9.20.0.01/SDK/lib_gnu/AVL.lib(XMLs_Parser.o)
                0x000b788c                XMLs_Attributes_Close
                0x000b7860                XMLs_Attributes_Open
                0x000b7a58                XMLgr_Document
 .text          0x000b7fd8      0x254 C:/Program Files/SDK30/SDK 9.20.0.01/SDK/lib_gnu/AVL.lib(XMLs_ProcessData.o)
                0x000b7fd8                XMLs_ProcessData
 .text          0x000b822c       0xf0 C:/Program Files/SDK30/SDK 9.20.0.01/SDK/lib_gnu/AVL.lib(XMLs_Attributes.o)
                0x000b822c                XMLs_Attributes_GetCount
                0x000b8240                XMLs_Attributes_GetByIndex
                0x000b82c4                XMLs_Attributes_GetByName
 .text          0x000b831c       0xbc C:/Program Files/SDK30/SDK 9.20.0.01/SDK/lib_gnu/AVL.lib(XMLs_Common.o)
                0x000b831c                XMLs_CheckHandle
                0x000b83cc                XMLstr_Set
                0x000b8368                XMLs_SetUserData
                0x000b8334                XMLs_Abort
                0x000b839c                XMLs_GetUserData
 .text          0x000b83d8       0x90 C:/Program Files/SDK30/SDK 9.20.0.01/SDK/lib_gnu/AVL.lib(XMLs_Options.o)
                0x000b8424                XMLs_GetOption
                0x000b83d8                XMLs_SetOption
 .text          0x000b8468      0x144 C:/Program Files/SDK30/SDK 9.20.0.01/SDK/lib_gnu/AVL.lib(XMLs_Buffer.o)
                0x000b8468                XMLs_Buffer_New
                0x000b8490                XMLs_Buffer_Release
                0x000b8594                XMLs_Buffer_Tell
                0x000b8570                XMLs_Buffer_GetC
                0x000b8518                XMLs_Buffer_Fill
                0x000b84ac                XMLs_Buffer_Clear
                0x000b8598                XMLs_Buffer_Seek
 .text          0x000b85ac       0xe0 C:/Program Files/SDK30/SDK 9.20.0.01/SDK/lib_gnu/AVL.lib(XMLs_Stream.o)
                0x000b8668                XMLs_STREAM_Destroy
                0x000b8620                XMLs_STREAM_SetOption
                0x000b85cc                XMLs_STREAM_Create
                0x000b8600                XMLs_STREAM_SetUserData
 .text          0x000b868c      0x314 C:/Program Files/SDK30/SDK 9.20.0.01/SDK/lib_gnu/AVL.lib(Internal.o)
                0x000b881c                __TlvTree_Find
                0x000b886c                __TlvTree_GetNext
                0x000b86c4                __TlvTree_SetData
                0x000b896c                __TlvTree_Release
                0x000b8864                __TlvTree_GetFirstChild
                0x000b8888                __TlvTree_GetData
                0x000b88f0                __TlvTree_RemoveChild
                0x000b888c                __TlvTree_Copy
                0x000b8870                __TlvTree_GetTag
                0x000b86b4                __TlvTree_New
                0x000b868c                __TlvTree_NewNode
                0x000b8720                __TlvTree_AddChild
                0x000b871c                __TlvTree_SetTag
                0x000b8754                __TlvTree_Graft
                0x000b8874                __TlvTree_GetLength
                0x000b8868                __TlvTree_GetParent
                0x000b8940                __TlvTree_DeleteNode
                0x000b87a0                __TlvTree_GetNextNode
 .text          0x000b89a0       0xc4 C:/Program Files/SDK30/SDK 9.20.0.01/SDK/lib_gnu/SEC.lib(SECLibOpenClose.o)
                0x000b89a8                SEClib_Open
                0x000b89a0                SEClib_Version
                0x000b8a48                SEClib_Close
 .text          0x000b8a64       0x48 C:/Program Files/SDK30/SDK 9.20.0.01/SDK/lib_gnu/SEC.lib(SEC1.o)
                0x000b8a64                SEC_Version
 .text          0x000b8aac       0x48 C:/Program Files/SDK30/SDK 9.20.0.01/SDK/lib_gnu/SEC.lib(SEC7.o)
                0x000b8aac                SEC_InitVar
 .text          0x000b8af4       0x54 C:/Program Files/SDK30/SDK 9.20.0.01/SDK/lib_gnu/SEC.lib(SEC8.o)
                0x000b8af4                SEC_SetConfig
 .text          0x000b8b48       0x54 C:/Program Files/SDK30/SDK 9.20.0.01/SDK/lib_gnu/SEC.lib(SEC9.o)
                0x000b8b48                SEC_GetConfig
 .text          0x000b8b9c       0x54 C:/Program Files/SDK30/SDK 9.20.0.01/SDK/lib_gnu/SEC.lib(SEC10.o)
                0x000b8b9c                SEC_listSecureId
 .text          0x000b8bf0       0x58 C:/Program Files/SDK30/SDK 9.20.0.01/SDK/lib_gnu/SEC.lib(SEC11.o)
                0x000b8bf0                SEC_isSecretArea
 .text          0x000b8c48       0x5c C:/Program Files/SDK30/SDK 9.20.0.01/SDK/lib_gnu/SEC.lib(SEC19.o)
                0x000b8c48                SEC_CreateSecretArea
 .text          0x000b8ca4       0x58 C:/Program Files/SDK30/SDK 9.20.0.01/SDK/lib_gnu/SEC.lib(SEC20.o)
                0x000b8ca4                SEC_FreeSecret
 .text          0x000b8cfc       0x60 C:/Program Files/SDK30/SDK 9.20.0.01/SDK/lib_gnu/SEC.lib(SEC21.o)
                0x000b8cfc                SEC_LoadKey
 .text          0x000b8d5c       0x58 C:/Program Files/SDK30/SDK 9.20.0.01/SDK/lib_gnu/SEC.lib(SEC22.o)
                0x000b8d5c                SEC_PinEntryInit
 .text          0x000b8db4       0x50 C:/Program Files/SDK30/SDK 9.20.0.01/SDK/lib_gnu/SEC.lib(SEC23.o)
                0x000b8db4                SEC_PinEntry
 .text          0x000b8e04       0x64 C:/Program Files/SDK30/SDK 9.20.0.01/SDK/lib_gnu/SEC.lib(SEC24.o)
                0x000b8e04                SEC_Iso9564
 .text          0x000b8e68       0x54 C:/Program Files/SDK30/SDK 9.20.0.01/SDK/lib_gnu/SEC.lib(SEC25.o)
                0x000b8e68                SEC_DukptLoadKSN
 .text          0x000b8ebc       0x5c C:/Program Files/SDK30/SDK 9.20.0.01/SDK/lib_gnu/SEC.lib(SEC26.o)
                0x000b8ebc                SEC_DukptLoadDerivationKey
 .text          0x000b8f18       0x58 C:/Program Files/SDK30/SDK 9.20.0.01/SDK/lib_gnu/SEC.lib(SEC28.o)
                0x000b8f18                SEC_DukptGenerateInitialKey
 .text          0x000b8f70       0x64 C:/Program Files/SDK30/SDK 9.20.0.01/SDK/lib_gnu/SEC.lib(SEC31.o)
                0x000b8f70                SEC_DukptEncryptPin
 .text          0x000b8fd4       0x64 C:/Program Files/SDK30/SDK 9.20.0.01/SDK/lib_gnu/SEC.lib(SEC32.o)
                0x000b8fd4                SEC_ECBCipher
 .text          0x000b9038       0x5c C:/Program Files/SDK30/SDK 9.20.0.01/SDK/lib_gnu/SEC.lib(SEC34.o)
                0x000b9038                SEC_ComputeMAC
 .text          0x000b9094       0x48 C:/Program Files/SDK30/SDK 9.20.0.01/SDK/lib_gnu/SEC.lib(SEC37.o)
                0x000b9094                SEC_InitInstance
 .text          0x000b90dc     0x1570 C:/Program Files/SDK30/SDK 9.20.0.01/SDK/lib_gnu/IP_.lib(EthernetConfig.o)
                0x000ba638                EthernetSetOption
                0x000b9c00                EthernetGetBluetoothBaseStatus
                0x000b9350                ethernet_conf_init
                0x000b9c88                ethernet_conf_load
                0x000b9d74                __CheckBT_IsBaseAvailable
                0x000b9b94                _CheckBT_KnownBases
                0x000ba624                EthernetGetOption
                0x000b9b3c                ethernet_conf_free
                0x000b9edc                ethernet_conf_save
 .text          0x000ba64c       0x50 C:/Program Files/SDK30/SDK 9.20.0.01/SDK/lib_gnu/IP_.lib(Telium_IP_Host.o)
                0x000ba684                ResolverGetOption
                0x000ba64c                gethostbyname_r
                0x000ba664                gethostbyaddr_r
                0x000ba690                ResolverSetOption
 .text          0x000ba69c      0x13c C:/Program Files/SDK30/SDK 9.20.0.01/SDK/lib_gnu/IP_.lib(Telium_IP_Inet.o)
                0x000ba69c                __inet_addr
                0x000ba6a8                __inet_aton
                0x000ba794                __inet_ntoa
 .text          0x000ba7d8       0x74 C:/Program Files/SDK30/SDK 9.20.0.01/SDK/lib_gnu/IP_.lib(Telium_IP_Socket.o)
                0x000ba824                recvfrom
                0x000ba7f0                setsockopt
                0x000ba808                sendto
                0x000ba840                fcntlsocket
                0x000ba7d8                getsockopt
 .text          0x000ba84c       0x50 C:/Program Files/SDK30/SDK 9.20.0.01/SDK/lib_gnu/IP_.lib(PackIP_Internal.o)
                0x000ba892                __SoftwareActivateSWI
                0x000ba856                __fopenSWI
                0x000ba874                __fcloseSWI
                0x000ba84c                __SystemFioctlSWI
                0x000ba860                __stdperifSWI
                0x000ba888                __OEM_exitSWI
                0x000ba87e                __ttestallSWI
                0x000ba86a                __fioctlSWI
 .text          0x000ba89c      0x5b8 C:/Program Files/SDK30/SDK 9.20.0.01/SDK/lib_gnu/LinkLayerExeInterface.lib(LinkLayerServices.o)
                0x000ba958                LL_GetInfo
                0x000babfc                LL_WaitEvent
                0x000baba4                LL_GetLastError
                0x000bab4c                LL_ClearSendBuffer
                0x000bad78                LL_GSM_Start
                0x000badf8                LL_GetHandle
                0x000baac4                LL_Receive
                0x000baa40                LL_Send
                0x000bac2c                LL_Network_GetStatus
                0x000ba9e8                LL_Connect
                0x000baa14                LL_Disconnect
                0x000bacd8                LL_GPRS_Connect
                0x000bac64                LL_GPRS_Start
                0x000bab78                LL_ClearReceiveBuffer
                0x000badd0                LL_GSM_Stop
                0x000ba89c                LL_Configure
                0x000bad50                LL_GPRS_Stop
                0x000babd0                LL_GetStatus
 .text          0x000bae54       0x10 C:/Program Files/SDK30/SDK 9.20.0.01/SDK/lib_gnu/trap.lib(trap_1386_upload_diagnostic_txt.o)
                0x000bae54                upload_diagnostic_txt
 .text          0x000bae64       0x10 C:/Program Files/SDK30/SDK 9.20.0.01/SDK/lib_gnu/trap.lib(trap_138C_FS_dskkill.o)
                0x000bae64                FS_dskkill
 .text          0x000bae74       0x10 C:/Program Files/SDK30/SDK 9.20.0.01/SDK/lib_gnu/trap.lib(trap_13D8_inet_addr.o)
                0x000bae74                inet_addr
 .text          0x000bae84       0x10 C:/Program Files/SDK30/SDK 9.20.0.01/SDK/lib_gnu/trap.lib(trap_13E2_getsockoptSWI.o)
                0x000bae84                getsockoptSWI
 .text          0x000bae94       0x10 C:/Program Files/SDK30/SDK 9.20.0.01/SDK/lib_gnu/trap.lib(trap_13E3_recvfromSWI.o)
                0x000bae94                recvfromSWI
 .text          0x000baea4       0x10 C:/Program Files/SDK30/SDK 9.20.0.01/SDK/lib_gnu/trap.lib(trap_13E5_sendtoSWI.o)
                0x000baea4                sendtoSWI
 .text          0x000baeb4       0x10 C:/Program Files/SDK30/SDK 9.20.0.01/SDK/lib_gnu/trap.lib(trap_13E6_setsockoptSWI.o)
                0x000baeb4                setsockoptSWI
 .text          0x000baec4       0x10 C:/Program Files/SDK30/SDK 9.20.0.01/SDK/lib_gnu/trap.lib(trap_13E9_ngResolvSetOption.o)
                0x000baec4                ngResolvSetOption
 .text          0x000baed4       0x10 C:/Program Files/SDK30/SDK 9.20.0.01/SDK/lib_gnu/trap.lib(trap_13EA_ngResolvGetOption.o)
                0x000baed4                ngResolvGetOption
 .text          0x000baee4       0x10 C:/Program Files/SDK30/SDK 9.20.0.01/SDK/lib_gnu/trap.lib(trap_13ED_gethostbyaddr_rSWI.o)
                0x000baee4                gethostbyaddr_rSWI
 .text          0x000baef4       0x10 C:/Program Files/SDK30/SDK 9.20.0.01/SDK/lib_gnu/trap.lib(trap_13EE_gethostbyname_rSWI.o)
                0x000baef4                gethostbyname_rSWI
 .text          0x000baf04       0x10 C:/Program Files/SDK30/SDK 9.20.0.01/SDK/lib_gnu/trap.lib(trap_142A_urealloc.o)
                0x000baf04                urealloc
 .text          0x000baf14       0x10 C:/Program Files/SDK30/SDK 9.20.0.01/SDK/lib_gnu/trap.lib(trap_142B_EthIfControl.o)
                0x000baf14                EthIfControl
 .text          0x000baf24       0x20 C:/Program Files/Ingenico/IngeDev_722/plugins/com.ingenico.ingedev.telium.bin.win32.gnuarm.v343_7.20.0.1/os/win32/GNUARM/3.4.3/arm-elf/lib/thumb/soft/interwork/libc.a(atoi.o)
                0x000baf34                _atoi_r
                0x000baf24                atoi
 .text          0x000baf44       0x20 C:/Program Files/Ingenico/IngeDev_722/plugins/com.ingenico.ingedev.telium.bin.win32.gnuarm.v343_7.20.0.1/os/win32/GNUARM/3.4.3/arm-elf/lib/thumb/soft/interwork/libc.a(atol.o)
                0x000baf54                _atol_r
                0x000baf44                atol
 .text          0x000baf64       0x24 C:/Program Files/Ingenico/IngeDev_722/plugins/com.ingenico.ingedev.telium.bin.win32.gnuarm.v343_7.20.0.1/os/win32/GNUARM/3.4.3/arm-elf/lib/thumb/soft/interwork/libc.a(exit.o)
                0x000baf64                exit
 .text          0x000baf88       0x24 C:/Program Files/Ingenico/IngeDev_722/plugins/com.ingenico.ingedev.telium.bin.win32.gnuarm.v343_7.20.0.1/os/win32/GNUARM/3.4.3/arm-elf/lib/thumb/soft/interwork/libc.a(memcmp.o)
                0x000baf88                memcmp
 .text          0x000bafac       0x1c C:/Program Files/Ingenico/IngeDev_722/plugins/com.ingenico.ingedev.telium.bin.win32.gnuarm.v343_7.20.0.1/os/win32/GNUARM/3.4.3/arm-elf/lib/thumb/soft/interwork/libc.a(memcpy.o)
                0x000bafac                memcpy
 .text          0x000bafc8       0x3c C:/Program Files/Ingenico/IngeDev_722/plugins/com.ingenico.ingedev.telium.bin.win32.gnuarm.v343_7.20.0.1/os/win32/GNUARM/3.4.3/arm-elf/lib/thumb/soft/interwork/libc.a(memmove.o)
                0x000bafc8                memmove
 .text          0x000bb004       0x14 C:/Program Files/Ingenico/IngeDev_722/plugins/com.ingenico.ingedev.telium.bin.win32.gnuarm.v343_7.20.0.1/os/win32/GNUARM/3.4.3/arm-elf/lib/thumb/soft/interwork/libc.a(memset.o)
                0x000bb004                memset
 .text          0x000bb018       0x50 C:/Program Files/Ingenico/IngeDev_722/plugins/com.ingenico.ingedev.telium.bin.win32.gnuarm.v343_7.20.0.1/os/win32/GNUARM/3.4.3/arm-elf/lib/thumb/soft/interwork/libc.a(rand.o)
                0x000bb02c                rand
                0x000bb018                srand
 .text          0x000bb068       0x90 C:/Program Files/Ingenico/IngeDev_722/plugins/com.ingenico.ingedev.telium.bin.win32.gnuarm.v343_7.20.0.1/os/win32/GNUARM/3.4.3/arm-elf/lib/thumb/soft/interwork/libc.a(snprintf.o)
                0x000bb0ac                snprintf
                0x000bb068                _snprintf_r
 .text          0x000bb0f8       0x54 C:/Program Files/Ingenico/IngeDev_722/plugins/com.ingenico.ingedev.telium.bin.win32.gnuarm.v343_7.20.0.1/os/win32/GNUARM/3.4.3/arm-elf/lib/thumb/soft/interwork/libc.a(strcasecmp.o)
                0x000bb0f8                strcasecmp
 .text          0x000bb14c       0x24 C:/Program Files/Ingenico/IngeDev_722/plugins/com.ingenico.ingedev.telium.bin.win32.gnuarm.v343_7.20.0.1/os/win32/GNUARM/3.4.3/arm-elf/lib/thumb/soft/interwork/libc.a(strcat.o)
                0x000bb14c                strcat
 .text          0x000bb170       0x20 C:/Program Files/Ingenico/IngeDev_722/plugins/com.ingenico.ingedev.telium.bin.win32.gnuarm.v343_7.20.0.1/os/win32/GNUARM/3.4.3/arm-elf/lib/thumb/soft/interwork/libc.a(strchr.o)
                0x000bb170                strchr
 .text          0x000bb190       0x20 C:/Program Files/Ingenico/IngeDev_722/plugins/com.ingenico.ingedev.telium.bin.win32.gnuarm.v343_7.20.0.1/os/win32/GNUARM/3.4.3/arm-elf/lib/thumb/soft/interwork/libc.a(strcmp.o)
                0x000bb190                strcmp
 .text          0x000bb1b0       0x18 C:/Program Files/Ingenico/IngeDev_722/plugins/com.ingenico.ingedev.telium.bin.win32.gnuarm.v343_7.20.0.1/os/win32/GNUARM/3.4.3/arm-elf/lib/thumb/soft/interwork/libc.a(strcpy.o)
                0x000bb1b0                strcpy
 .text          0x000bb1c8       0x14 C:/Program Files/Ingenico/IngeDev_722/plugins/com.ingenico.ingedev.telium.bin.win32.gnuarm.v343_7.20.0.1/os/win32/GNUARM/3.4.3/arm-elf/lib/thumb/soft/interwork/libc.a(strlen.o)
                0x000bb1c8                strlen
 .text          0x000bb1dc       0x34 C:/Program Files/Ingenico/IngeDev_722/plugins/com.ingenico.ingedev.telium.bin.win32.gnuarm.v343_7.20.0.1/os/win32/GNUARM/3.4.3/arm-elf/lib/thumb/soft/interwork/libc.a(strncpy.o)
                0x000bb1dc                strncpy
 .text          0x000bb210       0x34 C:/Program Files/Ingenico/IngeDev_722/plugins/com.ingenico.ingedev.telium.bin.win32.gnuarm.v343_7.20.0.1/os/win32/GNUARM/3.4.3/arm-elf/lib/thumb/soft/interwork/libc.a(strstr.o)
                0x000bb210                strstr
 .text          0x000bb244      0x138 C:/Program Files/Ingenico/IngeDev_722/plugins/com.ingenico.ingedev.telium.bin.win32.gnuarm.v343_7.20.0.1/os/win32/GNUARM/3.4.3/arm-elf/lib/thumb/soft/interwork/libc.a(strtol.o)
                0x000bb35c                strtol
                0x000bb244                _strtol_r
 .text          0x000bb37c      0x120 C:/Program Files/Ingenico/IngeDev_722/plugins/com.ingenico.ingedev.telium.bin.win32.gnuarm.v343_7.20.0.1/os/win32/GNUARM/3.4.3/arm-elf/lib/thumb/soft/interwork/libc.a(strtoul.o)
                0x000bb47c                strtoul
                0x000bb37c                _strtoul_r
 .text          0x000bb49c      0x520 C:/Program Files/Ingenico/IngeDev_722/plugins/com.ingenico.ingedev.telium.bin.win32.gnuarm.v343_7.20.0.1/os/win32/GNUARM/3.4.3/arm-elf/lib/thumb/soft/interwork/libc.a(syscalls.o)
                0x000bb894                _getpid
                0x000bb55c                initialise_monitor_handles
                0x000bb98c                isatty
                0x000bb8cc                _fstat
                0x000bb808                _open
                0x000bb898                _sbrk
                0x000bb938                _raise
                0x000bb968                _times
                0x000bb8f0                _stat
                0x000bb6fc                _lseek
                0x000bb928                _link
                0x000bb70c                _swiwrite
                0x000bb9a8                _rename
                0x000bb67c                _swilseek
                0x000bb81c                _swiclose
                0x000bb780                _swiopen
                0x000bb930                _unlink
                0x000bb734                _write
                0x000bb878                _kill
                0x000bb93c                _gettimeofday
                0x000bb634                _read
                0x000bb860                _exit
                0x000bb990                _system
                0x000bb60c                _swiread
                0x000bb850                _close
 .text          0x000bb9bc     0x12bc C:/Program Files/Ingenico/IngeDev_722/plugins/com.ingenico.ingedev.telium.bin.win32.gnuarm.v343_7.20.0.1/os/win32/GNUARM/3.4.3/arm-elf/lib/thumb/soft/interwork/libc.a(vfprintf.o)
                0x000bb9dc                _vfprintf_r
                0x000bcc58                vfprintf
 .text          0x000bcc78       0x50 C:/Program Files/Ingenico/IngeDev_722/plugins/com.ingenico.ingedev.telium.bin.win32.gnuarm.v343_7.20.0.1/os/win32/GNUARM/3.4.3/arm-elf/lib/thumb/soft/interwork/libc.a(wcrtomb.o)
                0x000bcc78                _wcrtomb_r
                0x000bcca8                wcrtomb
 .text          0x000bccc8       0xd8 C:/Program Files/Ingenico/IngeDev_722/plugins/com.ingenico.ingedev.telium.bin.win32.gnuarm.v343_7.20.0.1/os/win32/GNUARM/3.4.3/arm-elf/lib/thumb/soft/interwork/libc.a(wcsrtombs.o)
                0x000bccc8                _wcsrtombs_r
                0x000bcd78                wcsrtombs
 .text          0x000bcda0      0x2b0 C:/Program Files/Ingenico/IngeDev_722/plugins/com.ingenico.ingedev.telium.bin.win32.gnuarm.v343_7.20.0.1/os/win32/GNUARM/3.4.3/arm-elf/lib/thumb/soft/interwork/libc.a(wctomb_r.o)
                0x000bcda0                _wctomb_r
 .text          0x000bd050       0xa4 C:/Program Files/Ingenico/IngeDev_722/plugins/com.ingenico.ingedev.telium.bin.win32.gnuarm.v343_7.20.0.1/os/win32/GNUARM/3.4.3/arm-elf/lib/thumb/soft/interwork/libc.a(wsetup.o)
                0x000bd050                __swsetup
 .text          0x000bd0f4       0xc8 C:/Program Files/Ingenico/IngeDev_722/plugins/com.ingenico.ingedev.telium.bin.win32.gnuarm.v343_7.20.0.1/os/win32/GNUARM/3.4.3/arm-elf/lib/thumb/soft/interwork/libc.a(__call_atexit.o)
                0x000bd0f4                __call_exitprocs
 .text          0x000bd1bc      0xd38 C:/Program Files/Ingenico/IngeDev_722/plugins/com.ingenico.ingedev.telium.bin.win32.gnuarm.v343_7.20.0.1/os/win32/GNUARM/3.4.3/arm-elf/lib/thumb/soft/interwork/libc.a(dtoa.o)
                0x000bd314                _dtoa_r
 .text          0x000bdef4        0xc C:/Program Files/Ingenico/IngeDev_722/plugins/com.ingenico.ingedev.telium.bin.win32.gnuarm.v343_7.20.0.1/os/win32/GNUARM/3.4.3/arm-elf/lib/thumb/soft/interwork/libc.a(errno.o)
                0x000bdef4                __errno
 .text          0x000bdf00       0x84 C:/Program Files/Ingenico/IngeDev_722/plugins/com.ingenico.ingedev.telium.bin.win32.gnuarm.v343_7.20.0.1/os/win32/GNUARM/3.4.3/arm-elf/lib/thumb/soft/interwork/libc.a(fflush.o)
                0x000bdf00                fflush
 .text          0x000bdf84      0x1a4 C:/Program Files/Ingenico/IngeDev_722/plugins/com.ingenico.ingedev.telium.bin.win32.gnuarm.v343_7.20.0.1/os/win32/GNUARM/3.4.3/arm-elf/lib/thumb/soft/interwork/libc.a(findfp.o)
                0x000bdff8                __sinit
                0x000bdfbc                __sfmoreglue
                0x000be0dc                _cleanup
                0x000be0cc                _cleanup_r
                0x000be0f8                __fp_lock_all
                0x000bdff4                __sfp_lock_acquire
                0x000be054                __sfp
                0x000be110                __fp_unlock_all
                0x000be050                __sfp_lock_release
 .text          0x000be128      0x244 C:/Program Files/Ingenico/IngeDev_722/plugins/com.ingenico.ingedev.telium.bin.win32.gnuarm.v343_7.20.0.1/os/win32/GNUARM/3.4.3/arm-elf/lib/thumb/soft/interwork/libc.a(freer.o)
                0x000be1d0                _free_r
                0x000be128                _malloc_trim_r
 .text          0x000be36c      0x254 C:/Program Files/Ingenico/IngeDev_722/plugins/com.ingenico.ingedev.telium.bin.win32.gnuarm.v343_7.20.0.1/os/win32/GNUARM/3.4.3/arm-elf/lib/thumb/soft/interwork/libc.a(fvwrite.o)
                0x000be36c                __sfvwrite
 .text          0x000be5c0       0xac C:/Program Files/Ingenico/IngeDev_722/plugins/com.ingenico.ingedev.telium.bin.win32.gnuarm.v343_7.20.0.1/os/win32/GNUARM/3.4.3/arm-elf/lib/thumb/soft/interwork/libc.a(fwalk.o)
                0x000be5c0                _fwalk
                0x000be614                _fwalk_reent
 .text          0x000be66c       0x7c C:/Program Files/Ingenico/IngeDev_722/plugins/com.ingenico.ingedev.telium.bin.win32.gnuarm.v343_7.20.0.1/os/win32/GNUARM/3.4.3/arm-elf/lib/thumb/soft/interwork/libc.a(locale.o)
                0x000be66c                _setlocale_r
                0x000be6a8                __locale_charset
                0x000be6b4                _localeconv_r
                0x000be6bc                setlocale
                0x000be6d4                localeconv
 .text          0x000be6e8       0xcc C:/Program Files/Ingenico/IngeDev_722/plugins/com.ingenico.ingedev.telium.bin.win32.gnuarm.v343_7.20.0.1/os/win32/GNUARM/3.4.3/arm-elf/lib/thumb/soft/interwork/libc.a(makebuf.o)
                0x000be6e8                __smakebuf
 .text          0x000be7b4       0x28 C:/Program Files/Ingenico/IngeDev_722/plugins/com.ingenico.ingedev.telium.bin.win32.gnuarm.v343_7.20.0.1/os/win32/GNUARM/3.4.3/arm-elf/lib/thumb/soft/interwork/libc.a(malloc.o)
                0x000be7b4                malloc
                0x000be7c8                free
 .text          0x000be7dc      0x47c C:/Program Files/Ingenico/IngeDev_722/plugins/com.ingenico.ingedev.telium.bin.win32.gnuarm.v343_7.20.0.1/os/win32/GNUARM/3.4.3/arm-elf/lib/thumb/soft/interwork/libc.a(mallocr.o)
                0x000be7dc                _malloc_r
 .text          0x000bec58       0x20 C:/Program Files/Ingenico/IngeDev_722/plugins/com.ingenico.ingedev.telium.bin.win32.gnuarm.v343_7.20.0.1/os/win32/GNUARM/3.4.3/arm-elf/lib/thumb/soft/interwork/libc.a(memchr.o)
                0x000bec58                memchr
 .text          0x000bec78        0x8 C:/Program Files/Ingenico/IngeDev_722/plugins/com.ingenico.ingedev.telium.bin.win32.gnuarm.v343_7.20.0.1/os/win32/GNUARM/3.4.3/arm-elf/lib/thumb/soft/interwork/libc.a(mlock.o)
                0x000bec7c                __malloc_unlock
                0x000bec78                __malloc_lock
 .text          0x000bec80      0x834 C:/Program Files/Ingenico/IngeDev_722/plugins/com.ingenico.ingedev.telium.bin.win32.gnuarm.v343_7.20.0.1/os/win32/GNUARM/3.4.3/arm-elf/lib/thumb/soft/interwork/libc.a(mprec.o)
                0x000bf470                _mprec_log10
                0x000bedf8                _hi0bits
                0x000bec80                _Balloc
                0x000bf34c                _d2b
                0x000beecc                _multiply
                0x000bf41c                _ratio
                0x000bed74                _s2b
                0x000beeb4                _i2b
                0x000bee44                _lo0bits
                0x000bf12c                __mcmp
                0x000bf010                _pow5mult
                0x000bf24c                _ulp
                0x000bf29c                _b2d
                0x000bece8                _multadd
                0x000bf170                __mdiff
                0x000bf09c                _lshift
                0x000becd4                _Bfree
 .text          0x000bf4b4      0x2dc C:/Program Files/Ingenico/IngeDev_722/plugins/com.ingenico.ingedev.telium.bin.win32.gnuarm.v343_7.20.0.1/os/win32/GNUARM/3.4.3/arm-elf/lib/thumb/soft/interwork/libc.a(reallocr.o)
                0x000bf4b4                _realloc_r
 .text          0x000bf790       0x30 C:/Program Files/Ingenico/IngeDev_722/plugins/com.ingenico.ingedev.telium.bin.win32.gnuarm.v343_7.20.0.1/os/win32/GNUARM/3.4.3/arm-elf/lib/thumb/soft/interwork/libc.a(s_isinf.o)
                0x000bf790                isinf
 .text          0x000bf7c0       0x28 C:/Program Files/Ingenico/IngeDev_722/plugins/com.ingenico.ingedev.telium.bin.win32.gnuarm.v343_7.20.0.1/os/win32/GNUARM/3.4.3/arm-elf/lib/thumb/soft/interwork/libc.a(s_isnan.o)
                0x000bf7c0                isnan
 .text          0x000bf7e8       0x28 C:/Program Files/Ingenico/IngeDev_722/plugins/com.ingenico.ingedev.telium.bin.win32.gnuarm.v343_7.20.0.1/os/win32/GNUARM/3.4.3/arm-elf/lib/thumb/soft/interwork/libc.a(sbrkr.o)
                0x000bf7e8                _sbrk_r
 .text          0x000bf810       0xd0 C:/Program Files/Ingenico/IngeDev_722/plugins/com.ingenico.ingedev.telium.bin.win32.gnuarm.v343_7.20.0.1/os/win32/GNUARM/3.4.3/arm-elf/lib/thumb/soft/interwork/libc.a(stdio.o)
                0x000bf88c                __sseek
                0x000bf810                __sread
                0x000bf8c8                __sclose
                0x000bf848                __swrite
 .text          0x000bf8e0       0x2c C:/Program Files/Ingenico/IngeDev_722/plugins/com.ingenico.ingedev.telium.bin.win32.gnuarm.v343_7.20.0.1/os/win32/GNUARM/3.4.3/arm-elf/lib/thumb/soft/interwork/libc.a(writer.o)
                0x000bf8e0                _write_r
 .text          0x000bf90c       0x58 C:/Program Files/Ingenico/IngeDev_722/plugins/com.ingenico.ingedev.telium.bin.win32.gnuarm.v343_7.20.0.1/os/win32/GNUARM/3.4.3/arm-elf/lib/thumb/soft/interwork/libc.a(callocr.o)
                0x000bf90c                _calloc_r
 .text          0x000bf964       0x28 C:/Program Files/Ingenico/IngeDev_722/plugins/com.ingenico.ingedev.telium.bin.win32.gnuarm.v343_7.20.0.1/os/win32/GNUARM/3.4.3/arm-elf/lib/thumb/soft/interwork/libc.a(closer.o)
                0x000bf964                _close_r
 .text          0x000bf98c       0x28 C:/Program Files/Ingenico/IngeDev_722/plugins/com.ingenico.ingedev.telium.bin.win32.gnuarm.v343_7.20.0.1/os/win32/GNUARM/3.4.3/arm-elf/lib/thumb/soft/interwork/libc.a(fstatr.o)
                0x000bf98c                _fstat_r
 .text          0x000bf9b4       0x2c C:/Program Files/Ingenico/IngeDev_722/plugins/com.ingenico.ingedev.telium.bin.win32.gnuarm.v343_7.20.0.1/os/win32/GNUARM/3.4.3/arm-elf/lib/thumb/soft/interwork/libc.a(lseekr.o)
                0x000bf9b4                _lseek_r
 .text          0x000bf9e0       0x2c C:/Program Files/Ingenico/IngeDev_722/plugins/com.ingenico.ingedev.telium.bin.win32.gnuarm.v343_7.20.0.1/os/win32/GNUARM/3.4.3/arm-elf/lib/thumb/soft/interwork/libc.a(readr.o)
                0x000bf9e0                _read_r
 .text          0x000bfa0c      0x100 C:/Program Files/Ingenico/IngeDev_722/plugins/com.ingenico.ingedev.telium.bin.win32.gnuarm.v343_7.20.0.1/os/win32/GNUARM/3.4.3/arm-elf/lib/thumb/soft/interwork/libc.a(reent.o)
                0x000bfa0c                cleanup_glue
                0x000bfa2c                _reclaim_reent
                0x000bfac0                _wrapup_reent
 .text          0x000bfb0c       0x7c C:/Program Files/Ingenico/IngeDev_722/plugins/com.ingenico.ingedev.telium.bin.win32.gnuarm.v343_7.20.0.1/os/win32/GNUARM/3.4.3/lib/gcc/arm-elf/3.4.3/thumb/soft/interwork/libgcc.a(_udivsi3.o)
                0x000bfb0c                __udivsi3
 .text          0x000bfb88       0x94 C:/Program Files/Ingenico/IngeDev_722/plugins/com.ingenico.ingedev.telium.bin.win32.gnuarm.v343_7.20.0.1/os/win32/GNUARM/3.4.3/lib/gcc/arm-elf/3.4.3/thumb/soft/interwork/libgcc.a(_divsi3.o)
                0x000bfb88                __divsi3
 .text          0x000bfc1c       0xc8 C:/Program Files/Ingenico/IngeDev_722/plugins/com.ingenico.ingedev.telium.bin.win32.gnuarm.v343_7.20.0.1/os/win32/GNUARM/3.4.3/lib/gcc/arm-elf/3.4.3/thumb/soft/interwork/libgcc.a(_umodsi3.o)
                0x000bfc1c                __umodsi3
 .text          0x000bfce4       0xd8 C:/Program Files/Ingenico/IngeDev_722/plugins/com.ingenico.ingedev.telium.bin.win32.gnuarm.v343_7.20.0.1/os/win32/GNUARM/3.4.3/lib/gcc/arm-elf/3.4.3/thumb/soft/interwork/libgcc.a(_modsi3.o)
                0x000bfce4                __modsi3
 .text          0x000bfdbc        0x4 C:/Program Files/Ingenico/IngeDev_722/plugins/com.ingenico.ingedev.telium.bin.win32.gnuarm.v343_7.20.0.1/os/win32/GNUARM/3.4.3/lib/gcc/arm-elf/3.4.3/thumb/soft/interwork/libgcc.a(_dvmd_tls.o)
                0x000bfdbc                __div0
 .text          0x000bfdc0       0x3c C:/Program Files/Ingenico/IngeDev_722/plugins/com.ingenico.ingedev.telium.bin.win32.gnuarm.v343_7.20.0.1/os/win32/GNUARM/3.4.3/lib/gcc/arm-elf/3.4.3/thumb/soft/interwork/libgcc.a(_call_via_rX.o)
                0x000bfdc8                _call_via_r2
                0x000bfdd8                _call_via_r6
                0x000bfdd4                _call_via_r5
                0x000bfdcc                _call_via_r3
                0x000bfdec                _call_via_fp
                0x000bfde0                _call_via_r8
                0x000bfddc                _call_via_r7
                0x000bfdc0                _call_via_r0
                0x000bfde8                _call_via_sl
                0x000bfdf4                _call_via_sp
                0x000bfde4                _call_via_r9
                0x000bfdd0                _call_via_r4
                0x000bfdc4                _call_via_r1
                0x000bfdf0                _call_via_ip
                0x000bfdf8                _call_via_lr
 .text          0x000bfdfc      0x3a8 C:/Program Files/Ingenico/IngeDev_722/plugins/com.ingenico.ingedev.telium.bin.win32.gnuarm.v343_7.20.0.1/os/win32/GNUARM/3.4.3/lib/gcc/arm-elf/3.4.3/thumb/soft/interwork/libgcc.a(_addsubdf3.o)
                0x000c012c                __floatsidf
                0x000c0158                __extendsfdf2
                0x000bfe00                __adddf3
                0x000c0104                __floatunsidf
                0x000bfdfc                __subdf3
 .text          0x000c01a4      0x4ec C:/Program Files/Ingenico/IngeDev_722/plugins/com.ingenico.ingedev.telium.bin.win32.gnuarm.v343_7.20.0.1/os/win32/GNUARM/3.4.3/lib/gcc/arm-elf/3.4.3/thumb/soft/interwork/libgcc.a(_muldivdf3.o)
                0x000c041c                __divdf3
                0x000c01a4                __muldf3
 .text          0x000c0690       0xb4 C:/Program Files/Ingenico/IngeDev_722/plugins/com.ingenico.ingedev.telium.bin.win32.gnuarm.v343_7.20.0.1/os/win32/GNUARM/3.4.3/lib/gcc/arm-elf/3.4.3/thumb/soft/interwork/libgcc.a(_cmpdf2.o)
                0x000c06a0                __cmpdf2
                0x000c06a0                __eqdf2
                0x000c0690                __gtdf2
                0x000c0698                __ltdf2
                0x000c0698                __ledf2
                0x000c06a0                __nedf2
                0x000c0690                __gedf2
 .text          0x000c0744       0x80 C:/Program Files/Ingenico/IngeDev_722/plugins/com.ingenico.ingedev.telium.bin.win32.gnuarm.v343_7.20.0.1/os/win32/GNUARM/3.4.3/lib/gcc/arm-elf/3.4.3/thumb/soft/interwork/libgcc.a(_fixdfsi.o)
                0x000c0744                __fixdfsi
 .text          0x000c07c4       0x78 C:/Program Files/Ingenico/IngeDev_722/plugins/com.ingenico.ingedev.telium.bin.win32.gnuarm.v343_7.20.0.1/os/win32/GNUARM/3.4.3/lib/gcc/arm-elf/3.4.3/thumb/soft/interwork/libgcc.a(_muldi3.o)
                0x000c07c4                __muldi3
 .text          0x000c083c       0x38 C:/Program Files/Ingenico/IngeDev_722/plugins/com.ingenico.ingedev.telium.bin.win32.gnuarm.v343_7.20.0.1/os/win32/GNUARM/3.4.3/lib/gcc/arm-elf/3.4.3/thumb/soft/interwork/libgcc.a(_lshrdi3.o)
                0x000c083c                __lshrdi3
 .text          0x000c0874       0x38 C:/Program Files/Ingenico/IngeDev_722/plugins/com.ingenico.ingedev.telium.bin.win32.gnuarm.v343_7.20.0.1/os/win32/GNUARM/3.4.3/lib/gcc/arm-elf/3.4.3/thumb/soft/interwork/libgcc.a(_ashldi3.o)
                0x000c0874                __ashldi3
 .text          0x000c08ac      0x3ec C:/Program Files/Ingenico/IngeDev_722/plugins/com.ingenico.ingedev.telium.bin.win32.gnuarm.v343_7.20.0.1/os/win32/GNUARM/3.4.3/lib/gcc/arm-elf/3.4.3/thumb/soft/interwork/libgcc.a(_udivdi3.o)
                0x000c08ac                __udivdi3
 *(.gnu.linkonce.t.*)
 *(.strings .strings.*)
 *(.glue_7)
 *(.glue_7t)
 .glue_7t       0x000c0c98       0x58 C:/Program Files/Ingenico/IngeDev_722/plugins/com.ingenico.ingedev.telium.bin.win32.gnuarm.v343_7.20.0.1/os/win32/GNUARM/3.4.3/lib/gcc/arm-elf/3.4.3/thumb/soft/interwork/libgcc.a(_clz.o)
                0x000c0cd8                ____gtdf2_from_thumb
                0x000c0cc0                ____subdf3_from_thumb
                0x000c0c9c                ____ltdf2_change_to_arm
                0x000c0cc4                ____subdf3_change_to_arm
                0x000c0cec                ____gedf2_change_to_arm
                0x000c0ca8                ____eqdf2_from_thumb
                0x000c0cd0                ____fixdfsi_from_thumb
                0x000c0ce4                ____divdf3_change_to_arm
                0x000c0ce8                ____gedf2_from_thumb
                0x000c0ccc                ____muldf3_change_to_arm
                0x000c0cd4                ____fixdfsi_change_to_arm
                0x000c0ce0                ____divdf3_from_thumb
                0x000c0cbc                ____adddf3_change_to_arm
                0x000c0cdc                ____gtdf2_change_to_arm
                0x000c0cb0                ____floatsidf_from_thumb
                0x000c0c98                ____ltdf2_from_thumb
                0x000c0ca4                ____nedf2_change_to_arm
                0x000c0cb8                ____adddf3_from_thumb
                0x000c0cac                ____eqdf2_change_to_arm
                0x000c0cc8                ____muldf3_from_thumb
                0x000c0ca0                ____nedf2_from_thumb
                0x000c0cb4                ____floatsidf_change_to_arm
 *(.gcc_except_table)

.eh_frame
 *(.eh_frame)

.jcr
 *(.jcr)

.ctors          0x000c0cf0        0x0
                0x000c0cf0                __ctors_start = .
 *(SORT(.ctors.*))
 *(.ctors)
                0x000c0cf0                __ctors_end = .

.dtors          0x000c0cf0        0x0
                0x000c0cf0                __dtors_start = .
 *(SORT(.dtors.*))
 *(.dtors)
                0x000c0cf0                __dtors_end = .

.rodata         0x000c0cf0    0x1ab48
 *(.rodata .rodata.*)
 .rodata        0x000c0cf0      0x1f4 Obj/RELEASE_T2/tbx.o
 .rodata        0x000c0ee4      0x224 Obj/RELEASE_T2/tlm.o
 .rodata        0x000c1108      0x198 Obj/RELEASE_T2/tlmhmi.o
 .rodata        0x000c12a0       0xc4 Obj/RELEASE_T2/tlmmem.o
 .rodata        0x000c1364      0x2a0 Obj/RELEASE_T2/std.o
 .rodata        0x000c1604       0x10 Obj/RELEASE_T2/fmt.o
 .rodata        0x000c1614      0x164 Obj/RELEASE_T2/dba.o
 .rodata        0x000c1778      0x258 Obj/RELEASE_T2/drv.o
 .rodata        0x000c19d0      0xbb0 Obj/RELEASE_T2/dlg.o
 .rodata        0x000c2580       0xfc Obj/RELEASE_T2/Main.o
 .rodata        0x000c267c      0xb0c Obj/RELEASE_T2/sgm.o
                0x000c267c                __BMP_briLogo
 .rodata        0x000c3188       0x58 Obj/RELEASE_T2/map.o
 .rodata        0x000c31e0     0x7260 Obj/RELEASE_T2/dft.o
 .rodata        0x000ca440      0x3c8 Obj/RELEASE_T2/rpt.o
 .rodata        0x000ca808      0x160 Obj/RELEASE_T2/scr.o
 .rodata        0x000ca968     0x12d4 Obj/RELEASE_T2/str.o
                0x000cb554                __BMP_
 .rodata        0x000cbc3c      0x830 Obj/RELEASE_T2/hdl.o
 .rodata        0x000cc46c      0x14c Obj/RELEASE_T2/val.o
 .rodata        0x000cc5b8      0x698 Obj/RELEASE_T2/adm.o
 .rodata        0x000ccc50      0x30c Obj/RELEASE_T2/emv.o
 .rodata        0x000ccf5c      0x660 Obj/RELEASE_T2/function.o
 .rodata        0x000cd5bc      0x1f0 Obj/RELEASE_T2/log.o
 .rodata        0x000cd7ac       0x60 Obj/RELEASE_T2/onl.o
 .rodata        0x000cd80c     0x20a4 Obj/RELEASE_T2/pmt.o
 .rodata        0x000cf8b0      0xa54 Obj/RELEASE_T2/req.o
 .rodata        0x000d0304       0x2c Obj/RELEASE_T2/rev.o
 .rodata        0x000d0330      0xae0 Obj/RELEASE_T2/rsp.o
 .rodata        0x000d0e10      0x448 Obj/RELEASE_T2/tle.o
 .rodata        0x000d1258      0x5e4 Obj/RELEASE_T2/tlmchn.o
 .rodata        0x000d183c       0x94 Obj/RELEASE_T2/tlmcry.o
 .rodata        0x000d18d0      0x2c0 Obj/RELEASE_T2/tlmemv.o
 .rodata        0x000d1b90     0x7490 Obj/RELEASE_T2/BRI.o
 .rodata        0x000d9020      0x200 Obj/RELEASE_T2/LineEncryption.o
 .rodata        0x000d9220      0x800 Obj/RELEASE_T2/AES.o
 .rodata        0x000d9a20      0x174 Obj/RELEASE_T2/keyinject.o
 .rodata        0x000d9b94      0x6ac Obj/RELEASE_T2/prepaid.o
 .rodata        0x000da240       0x8c Obj/RELEASE_T2/logon.o
 .rodata        0x000da2cc        0x8 Obj/RELEASE_T2/prsa.o
 .rodata        0x000da2d4      0x2b4 Obj/RELEASE_T2/bignum.o
 .rodata.str1.4
                0x000da588       0x12 libs/GNU_ARM_RELEASE/RSA.lib(m_mem.o)
                                 0x14 (size before relaxing)
 *fill*         0x000da59a        0x2 00
 .rodata.str1.4
                0x000da59c        0xd C:/Program Files/SDK30/SDK 9.20.0.01/SDK/lib_gnu/eft30.lib(iam1.o)
                                 0x10 (size before relaxing)
 *fill*         0x000da5a9        0x3 00
 .rodata        0x000da5ac        0x4 C:/Program Files/SDK30/SDK 9.20.0.01/SDK/lib_gnu/eft30.lib(iamtd1.o)
 .rodata.str1.4
                0x000da5b0        0x0 C:/Program Files/SDK30/SDK 9.20.0.01/SDK/lib_gnu/eft30.lib(iamtd1.o)
                                  0x8 (size before relaxing)
 .rodata.str1.4
                0x000da5b0       0x10 C:/Program Files/SDK30/SDK 9.20.0.01/SDK/lib_gnu/eft30.lib(extens280.o)
 .rodata.str1.4
                0x000da5c0        0x9 C:/Program Files/SDK30/SDK 9.20.0.01/SDK/lib_gnu/eft30.lib(extens53.o)
                                  0xc (size before relaxing)
 *fill*         0x000da5c9        0x3 00
 .rodata.str1.4
                0x000da5cc       0x11 C:/Program Files/SDK30/SDK 9.20.0.01/SDK/lib_gnu/eft30.lib(extens89.o)
                                 0x14 (size before relaxing)
 *fill*         0x000da5dd        0x3 00
 .rodata.str1.4
                0x000da5e0       0x12 C:/Program Files/SDK30/SDK 9.20.0.01/SDK/lib_gnu/eft30.lib(extens90.o)
                                 0x14 (size before relaxing)
 *fill*         0x000da5f2        0x2 00
 .rodata.str1.4
                0x000da5f4        0xd C:/Program Files/SDK30/SDK 9.20.0.01/SDK/lib_gnu/eft30.lib(extens93.o)
                                 0x10 (size before relaxing)
 *fill*         0x000da601        0x3 00
 .rodata.str1.4
                0x000da604        0xe C:/Program Files/SDK30/SDK 9.20.0.01/SDK/lib_gnu/eft30.lib(extens94.o)
                                 0x10 (size before relaxing)
 *fill*         0x000da612        0x2 00
 .rodata        0x000da614        0x8 C:/Program Files/SDK30/SDK 9.20.0.01/SDK/lib_gnu/eft30.lib(extenstd1.o)
 .rodata.str1.4
                0x000da61c        0x0 C:/Program Files/SDK30/SDK 9.20.0.01/SDK/lib_gnu/eft30.lib(extenstd1.o)
                                  0x8 (size before relaxing)
 .rodata.str1.4
                0x000da61c        0xd C:/Program Files/SDK30/SDK 9.20.0.01/SDK/lib_gnu/eft30.lib(extenstdeux5.o)
                                 0x10 (size before relaxing)
 *fill*         0x000da629        0x3 00
 .rodata.str1.4
                0x000da62c        0xc C:/Program Files/SDK30/SDK 9.20.0.01/SDK/lib_gnu/eft30.lib(extensostd119.o)
 .rodata.str1.4
                0x000da638       0x13 C:/Program Files/SDK30/SDK 9.20.0.01/SDK/lib_gnu/eft30.lib(param17.o)
                                 0x14 (size before relaxing)
 *fill*         0x000da64b        0x1 00
 .rodata.str1.4
                0x000da64c       0x1b C:/Program Files/SDK30/SDK 9.20.0.01/SDK/lib_gnu/eft30.lib(param46.o)
                                 0x1c (size before relaxing)
 *fill*         0x000da667        0x1 00
 .rodata.str1.4
                0x000da668       0x17 C:/Program Files/SDK30/SDK 9.20.0.01/SDK/lib_gnu/eft30.lib(param72.o)
                                 0x18 (size before relaxing)
 *fill*         0x000da67f        0x1 00
 .rodata        0x000da680        0x8 C:/Program Files/SDK30/SDK 9.20.0.01/SDK/lib_gnu/eft30.lib(paramtd1.o)
 .rodata.str1.4
                0x000da688        0x0 C:/Program Files/SDK30/SDK 9.20.0.01/SDK/lib_gnu/eft30.lib(paramtd1.o)
                                  0x8 (size before relaxing)
 .rodata.str1.4
                0x000da688      0x247 C:/Program Files/SDK30/SDK 9.20.0.01/SDK/lib_gnu/eft30.lib(crypto2.o)
                                0x258 (size before relaxing)
 *fill*         0x000da8cf        0x1 00
 .rodata.str1.4
                0x000da8d0        0x7 C:/Program Files/SDK30/SDK 9.20.0.01/SDK/lib_gnu/eft30.lib(cryptotd1.o)
                                 0x10 (size before relaxing)
 *fill*         0x000da8d7        0x1 00
 .rodata.str1.4
                0x000da8d8        0xe C:/Program Files/SDK30/SDK 9.20.0.01/SDK/lib_gnu/eft30.lib(pinpad10.o)
                                 0x10 (size before relaxing)
 *fill*         0x000da8e6        0x2 00
 .rodata.str1.4
                0x000da8e8       0x14 C:/Program Files/SDK30/SDK 9.20.0.01/SDK/lib_gnu/eft30.lib(pinpad12.o)
 .rodata.str1.4
                0x000da8fc       0x12 C:/Program Files/SDK30/SDK 9.20.0.01/SDK/lib_gnu/eft30.lib(pinpad15.o)
                                 0x14 (size before relaxing)
 *fill*         0x000da90e        0x2 00
 .rodata.str1.4
                0x000da910        0xc C:/Program Files/SDK30/SDK 9.20.0.01/SDK/lib_gnu/eft30.lib(pinpad8.o)
 .rodata.str1.4
                0x000da91c        0xe C:/Program Files/SDK30/SDK 9.20.0.01/SDK/lib_gnu/eft30.lib(pinpad9.o)
                                 0x10 (size before relaxing)
 *fill*         0x000da92a        0x2 00
 .rodata        0x000da92c        0x8 C:/Program Files/SDK30/SDK 9.20.0.01/SDK/lib_gnu/eft30.lib(pinpadtd1.o)
 .rodata.str1.4
                0x000da934        0x0 C:/Program Files/SDK30/SDK 9.20.0.01/SDK/lib_gnu/eft30.lib(pinpadtd1.o)
                                  0x8 (size before relaxing)
 .rodata.str1.4
                0x000da934        0xd C:/Program Files/SDK30/SDK 9.20.0.01/SDK/lib_gnu/eft30.lib(sv24.o)
                                 0x10 (size before relaxing)
 *fill*         0x000da941        0x3 00
 .rodata.str1.4
                0x000da944        0xe C:/Program Files/SDK30/SDK 9.20.0.01/SDK/lib_gnu/eft30.lib(sv25.o)
                                 0x10 (size before relaxing)
 *fill*         0x000da952        0x2 00
 .rodata        0x000da954        0x4 C:/Program Files/SDK30/SDK 9.20.0.01/SDK/lib_gnu/eft30.lib(svtd1.o)
 .rodata.str1.4
                0x000da958        0x0 C:/Program Files/SDK30/SDK 9.20.0.01/SDK/lib_gnu/eft30.lib(svtd1.o)
                                  0x8 (size before relaxing)
 .rodata.str1.4
                0x000da958       0x11 C:/Program Files/SDK30/SDK 9.20.0.01/SDK/lib_gnu/eft30.lib(svtd21.o)
                                 0x14 (size before relaxing)
 *fill*         0x000da969        0x3 00
 .rodata.str1.4
                0x000da96c       0x12 C:/Program Files/SDK30/SDK 9.20.0.01/SDK/lib_gnu/eft30.lib(svtd22.o)
                                 0x14 (size before relaxing)
 *fill*         0x000da97e        0x2 00
 .rodata.str1.4
                0x000da980        0xc C:/Program Files/SDK30/SDK 9.20.0.01/SDK/lib_gnu/eft30.lib(svtd23.o)
 .rodata.str1.4
                0x000da98c        0xe C:/Program Files/SDK30/SDK 9.20.0.01/SDK/lib_gnu/eft30.lib(libgr137.o)
                                 0x10 (size before relaxing)
 *fill*         0x000da99a        0x2 00
 .rodata.str1.4
                0x000da99c        0x8 C:/Program Files/SDK30/SDK 9.20.0.01/SDK/lib_gnu/eft30.lib(libgr35.o)
 .rodata.str1.4
                0x000da9a4       0x16 C:/Program Files/SDK30/SDK 9.20.0.01/SDK/lib_gnu/eft30.lib(libgr40.o)
                                 0x18 (size before relaxing)
 *fill*         0x000da9ba        0x2 00
 .rodata.str1.4
                0x000da9bc        0xe C:/Program Files/SDK30/SDK 9.20.0.01/SDK/lib_gnu/eft30.lib(libgr41.o)
                                 0x10 (size before relaxing)
 *fill*         0x000da9ca        0x2 00
 .rodata.str1.4
                0x000da9cc        0xf C:/Program Files/SDK30/SDK 9.20.0.01/SDK/lib_gnu/eft30.lib(libgr49.o)
                                 0x10 (size before relaxing)
 *fill*         0x000da9db        0x1 00
 .rodata.str1.4
                0x000da9dc        0xf C:/Program Files/SDK30/SDK 9.20.0.01/SDK/lib_gnu/eft30.lib(libgr54.o)
                                 0x10 (size before relaxing)
 *fill*         0x000da9eb        0x1 00
 .rodata.str1.4
                0x000da9ec       0x17 C:/Program Files/SDK30/SDK 9.20.0.01/SDK/lib_gnu/eft30.lib(libgr55.o)
                                 0x18 (size before relaxing)
 *fill*         0x000daa03        0x1 00
 .rodata.str1.4
                0x000daa04        0xc C:/Program Files/SDK30/SDK 9.20.0.01/SDK/lib_gnu/eft30.lib(libgr58.o)
 .rodata.str1.4
                0x000daa10       0x16 C:/Program Files/SDK30/SDK 9.20.0.01/SDK/lib_gnu/eft30.lib(libgr66.o)
                                 0x18 (size before relaxing)
 *fill*         0x000daa26        0x2 00
 .rodata.str1.4
                0x000daa28        0x9 C:/Program Files/SDK30/SDK 9.20.0.01/SDK/lib_gnu/eft30.lib(libgr68.o)
                                  0xc (size before relaxing)
 *fill*         0x000daa31        0x3 00
 .rodata.str1.4
                0x000daa34        0xf C:/Program Files/SDK30/SDK 9.20.0.01/SDK/lib_gnu/eft30.lib(libgr7.o)
                                 0x10 (size before relaxing)
 *fill*         0x000daa43        0x1 00
 .rodata.str1.4
                0x000daa44        0xa C:/Program Files/SDK30/SDK 9.20.0.01/SDK/lib_gnu/eft30.lib(libgr8.o)
                                  0xc (size before relaxing)
 *fill*         0x000daa4e        0x2 00
 .rodata.str1.4
                0x000daa50       0x15 C:/Program Files/SDK30/SDK 9.20.0.01/SDK/lib_gnu/eft30.lib(libgr82.o)
                                 0x18 (size before relaxing)
 *fill*         0x000daa65        0x3 00
 .rodata.str1.4
                0x000daa68       0x12 C:/Program Files/SDK30/SDK 9.20.0.01/SDK/lib_gnu/eft30.lib(libgr83.o)
                                 0x14 (size before relaxing)
 *fill*         0x000daa7a        0x2 00
 .rodata.str1.4
                0x000daa7c        0xf C:/Program Files/SDK30/SDK 9.20.0.01/SDK/lib_gnu/eft30.lib(libgr86.o)
                                 0x10 (size before relaxing)
 *fill*         0x000daa8b        0x1 00
 .rodata        0x000daa8c        0x8 C:/Program Files/SDK30/SDK 9.20.0.01/SDK/lib_gnu/eft30.lib(libgrtd1.o)
 .rodata.str1.4
                0x000daa94        0x0 C:/Program Files/SDK30/SDK 9.20.0.01/SDK/lib_gnu/eft30.lib(libgrtd1.o)
                                  0x8 (size before relaxing)
 .rodata.str1.4
                0x000daa94        0xd C:/Program Files/SDK30/SDK 9.20.0.01/SDK/lib_gnu/eft30.lib(Tools35.o)
                                 0x10 (size before relaxing)
 *fill*         0x000daaa1        0x3 00
 .rodata.str1.4
                0x000daaa4        0xe C:/Program Files/SDK30/SDK 9.20.0.01/SDK/lib_gnu/eft30.lib(Tools36.o)
                                 0x10 (size before relaxing)
 *fill*         0x000daab2        0x2 00
 .rodata        0x000daab4        0x8 C:/Program Files/SDK30/SDK 9.20.0.01/SDK/lib_gnu/eft30.lib(Toolstd1.o)
 .rodata.str1.4
                0x000daabc        0x0 C:/Program Files/SDK30/SDK 9.20.0.01/SDK/lib_gnu/eft30.lib(Toolstd1.o)
                                  0x8 (size before relaxing)
 .rodata        0x000daabc        0x8 C:/Program Files/SDK30/SDK 9.20.0.01/SDK/lib_gnu/eft30.lib(gprstd1.o)
 .rodata.str1.4
                0x000daac4        0x0 C:/Program Files/SDK30/SDK 9.20.0.01/SDK/lib_gnu/eft30.lib(gprstd1.o)
                                  0x8 (size before relaxing)
 .rodata.str1.4
                0x000daac4       0x21 C:/Program Files/SDK30/SDK 9.20.0.01/SDK/lib_gnu/eft30.lib(LibAppliT2.o)
                                 0x28 (size before relaxing)
 *fill*         0x000daae5        0x3 00
 .rodata.str1.4
                0x000daae8       0x19 C:/Program Files/SDK30/SDK 9.20.0.01/SDK/lib_gnu/eft30.lib(extens252.o)
                                 0x1c (size before relaxing)
 *fill*         0x000dab01        0x3 00
 .rodata.str1.4
                0x000dab04       0xc1 C:/Program Files/SDK30/SDK 9.20.0.01/SDK/lib_gnu/AVL.lib(Serializer_Xml.o)
                                 0xc4 (size before relaxing)
 .rodata.str1.4
                0x000dabc5        0x0 C:/Program Files/SDK30/SDK 9.20.0.01/SDK/lib_gnu/AVL.lib(XMLs_Parser.o)
                                  0x4 (size before relaxing)
 *fill*         0x000dabc5        0x3 00
 .rodata.str1.4
                0x000dabc8       0x17 C:/Program Files/SDK30/SDK 9.20.0.01/SDK/lib_gnu/AVL.lib(XMLs_ProcessData.o)
                                 0x18 (size before relaxing)
 *fill*         0x000dabdf        0x1 00
 .rodata        0x000dabe0       0x14 C:/Program Files/SDK30/SDK 9.20.0.01/SDK/lib_gnu/AVL.lib(XMLs_Stream.o)
 .rodata        0x000dabf4        0xc C:/Program Files/SDK30/SDK 9.20.0.01/SDK/lib_gnu/SEC.lib(SECLibOpenClose.o)
 .rodata.str1.4
                0x000dac00        0x5 C:/Program Files/SDK30/SDK 9.20.0.01/SDK/lib_gnu/SEC.lib(SECLibOpenClose.o)
                                 0x10 (size before relaxing)
 *fill*         0x000dac05        0x3 00
 .rodata.str1.4
                0x000dac08        0xc C:/Program Files/SDK30/SDK 9.20.0.01/SDK/lib_gnu/SEC.lib(SEC1.o)
 .rodata.str1.4
                0x000dac14        0xc C:/Program Files/SDK30/SDK 9.20.0.01/SDK/lib_gnu/SEC.lib(SEC7.o)
 .rodata.str1.4
                0x000dac20        0xe C:/Program Files/SDK30/SDK 9.20.0.01/SDK/lib_gnu/SEC.lib(SEC8.o)
                                 0x10 (size before relaxing)
 *fill*         0x000dac2e        0x2 00
 .rodata.str1.4
                0x000dac30        0xe C:/Program Files/SDK30/SDK 9.20.0.01/SDK/lib_gnu/SEC.lib(SEC9.o)
                                 0x10 (size before relaxing)
 *fill*         0x000dac3e        0x2 00
 .rodata.str1.4
                0x000dac40       0x11 C:/Program Files/SDK30/SDK 9.20.0.01/SDK/lib_gnu/SEC.lib(SEC10.o)
                                 0x14 (size before relaxing)
 *fill*         0x000dac51        0x3 00
 .rodata.str1.4
                0x000dac54       0x11 C:/Program Files/SDK30/SDK 9.20.0.01/SDK/lib_gnu/SEC.lib(SEC11.o)
                                 0x14 (size before relaxing)
 *fill*         0x000dac65        0x3 00
 .rodata.str1.4
                0x000dac68       0x15 C:/Program Files/SDK30/SDK 9.20.0.01/SDK/lib_gnu/SEC.lib(SEC19.o)
                                 0x18 (size before relaxing)
 *fill*         0x000dac7d        0x3 00
 .rodata.str1.4
                0x000dac80        0xf C:/Program Files/SDK30/SDK 9.20.0.01/SDK/lib_gnu/SEC.lib(SEC20.o)
                                 0x10 (size before relaxing)
 *fill*         0x000dac8f        0x1 00
 .rodata.str1.4
                0x000dac90        0xc C:/Program Files/SDK30/SDK 9.20.0.01/SDK/lib_gnu/SEC.lib(SEC21.o)
 .rodata.str1.4
                0x000dac9c       0x11 C:/Program Files/SDK30/SDK 9.20.0.01/SDK/lib_gnu/SEC.lib(SEC22.o)
                                 0x14 (size before relaxing)
 *fill*         0x000dacad        0x3 00
 .rodata.str1.4
                0x000dacb0        0xd C:/Program Files/SDK30/SDK 9.20.0.01/SDK/lib_gnu/SEC.lib(SEC23.o)
                                 0x10 (size before relaxing)
 *fill*         0x000dacbd        0x3 00
 .rodata.str1.4
                0x000dacc0        0xc C:/Program Files/SDK30/SDK 9.20.0.01/SDK/lib_gnu/SEC.lib(SEC24.o)
 .rodata.str1.4
                0x000daccc       0x11 C:/Program Files/SDK30/SDK 9.20.0.01/SDK/lib_gnu/SEC.lib(SEC25.o)
                                 0x14 (size before relaxing)
 *fill*         0x000dacdd        0x3 00
 .rodata.str1.4
                0x000dace0       0x1b C:/Program Files/SDK30/SDK 9.20.0.01/SDK/lib_gnu/SEC.lib(SEC26.o)
                                 0x1c (size before relaxing)
 *fill*         0x000dacfb        0x1 00
 .rodata.str1.4
                0x000dacfc       0x1c C:/Program Files/SDK30/SDK 9.20.0.01/SDK/lib_gnu/SEC.lib(SEC28.o)
 .rodata.str1.4
                0x000dad18       0x14 C:/Program Files/SDK30/SDK 9.20.0.01/SDK/lib_gnu/SEC.lib(SEC31.o)
 .rodata.str1.4
                0x000dad2c        0xe C:/Program Files/SDK30/SDK 9.20.0.01/SDK/lib_gnu/SEC.lib(SEC32.o)
                                 0x10 (size before relaxing)
 *fill*         0x000dad3a        0x2 00
 .rodata.str1.4
                0x000dad3c        0xf C:/Program Files/SDK30/SDK 9.20.0.01/SDK/lib_gnu/SEC.lib(SEC34.o)
                                 0x10 (size before relaxing)
 *fill*         0x000dad4b        0x1 00
 .rodata.str1.4
                0x000dad4c       0x11 C:/Program Files/SDK30/SDK 9.20.0.01/SDK/lib_gnu/SEC.lib(SEC37.o)
                                 0x14 (size before relaxing)
 *fill*         0x000dad5d        0x3 00
 .rodata.str1.4
                0x000dad60      0x479 C:/Program Files/SDK30/SDK 9.20.0.01/SDK/lib_gnu/IP_.lib(EthernetConfig.o)
                                0x490 (size before relaxing)
 *fill*         0x000db1d9        0x3 00
 .rodata.str1.4
                0x000db1dc        0xc C:/Program Files/SDK30/SDK 9.20.0.01/SDK/lib_gnu/IP_.lib(Telium_IP_Inet.o)
 .rodata.str1.4
                0x000db1e8       0xc4 C:/Program Files/SDK30/SDK 9.20.0.01/SDK/lib_gnu/LinkLayerExeInterface.lib(LinkLayerServices.o)
                                 0xc8 (size before relaxing)
 .rodata        0x000db2ac        0x4 C:/Program Files/Ingenico/IngeDev_722/plugins/com.ingenico.ingedev.telium.bin.win32.gnuarm.v343_7.20.0.1/os/win32/GNUARM/3.4.3/arm-elf/lib/thumb/soft/interwork/libc.a(impure.o)
                0x000db2ac                _global_impure_ptr
 .rodata.str1.4
                0x000db2b0        0x2 C:/Program Files/Ingenico/IngeDev_722/plugins/com.ingenico.ingedev.telium.bin.win32.gnuarm.v343_7.20.0.1/os/win32/GNUARM/3.4.3/arm-elf/lib/thumb/soft/interwork/libc.a(impure.o)
                                  0x4 (size before relaxing)
 *fill*         0x000db2b2        0x2 00
 .rodata.str1.4
                0x000db2b4        0x4 C:/Program Files/Ingenico/IngeDev_722/plugins/com.ingenico.ingedev.telium.bin.win32.gnuarm.v343_7.20.0.1/os/win32/GNUARM/3.4.3/arm-elf/lib/thumb/soft/interwork/libc.a(syscalls.o)
 .rodata        0x000db2b8      0x184 C:/Program Files/Ingenico/IngeDev_722/plugins/com.ingenico.ingedev.telium.bin.win32.gnuarm.v343_7.20.0.1/os/win32/GNUARM/3.4.3/arm-elf/lib/thumb/soft/interwork/libc.a(vfprintf.o)
 .rodata.str1.4
                0x000db43c       0x56 C:/Program Files/Ingenico/IngeDev_722/plugins/com.ingenico.ingedev.telium.bin.win32.gnuarm.v343_7.20.0.1/os/win32/GNUARM/3.4.3/arm-elf/lib/thumb/soft/interwork/libc.a(vfprintf.o)
                                 0x5c (size before relaxing)
 *fill*         0x000db492        0x2 00
 .rodata.str1.4
                0x000db494       0x1e C:/Program Files/Ingenico/IngeDev_722/plugins/com.ingenico.ingedev.telium.bin.win32.gnuarm.v343_7.20.0.1/os/win32/GNUARM/3.4.3/arm-elf/lib/thumb/soft/interwork/libc.a(wctomb_r.o)
                                 0x20 (size before relaxing)
 .rodata        0x000db4b2      0x101 C:/Program Files/Ingenico/IngeDev_722/plugins/com.ingenico.ingedev.telium.bin.win32.gnuarm.v343_7.20.0.1/os/win32/GNUARM/3.4.3/arm-elf/lib/thumb/soft/interwork/libc.a(ctype_.o)
                0x000db4b2                _ctype_
 *fill*         0x000db5b3        0x1 00
 .rodata.str1.4
                0x000db5b4        0x9 C:/Program Files/Ingenico/IngeDev_722/plugins/com.ingenico.ingedev.telium.bin.win32.gnuarm.v343_7.20.0.1/os/win32/GNUARM/3.4.3/arm-elf/lib/thumb/soft/interwork/libc.a(dtoa.o)
                                 0x14 (size before relaxing)
 *fill*         0x000db5bd        0x3 00
 .rodata        0x000db5c0       0x18 C:/Program Files/Ingenico/IngeDev_722/plugins/com.ingenico.ingedev.telium.bin.win32.gnuarm.v343_7.20.0.1/os/win32/GNUARM/3.4.3/arm-elf/lib/thumb/soft/interwork/libc.a(dtoa.o)
 .rodata.str1.4
                0x000db5d8        0xb C:/Program Files/Ingenico/IngeDev_722/plugins/com.ingenico.ingedev.telium.bin.win32.gnuarm.v343_7.20.0.1/os/win32/GNUARM/3.4.3/arm-elf/lib/thumb/soft/interwork/libc.a(locale.o)
                                 0x18 (size before relaxing)
 *fill*         0x000db5e3        0x1 00
 .rodata        0x000db5e4       0x30 C:/Program Files/Ingenico/IngeDev_722/plugins/com.ingenico.ingedev.telium.bin.win32.gnuarm.v343_7.20.0.1/os/win32/GNUARM/3.4.3/arm-elf/lib/thumb/soft/interwork/libc.a(locale.o)
 .rodata        0x000db614      0x124 C:/Program Files/Ingenico/IngeDev_722/plugins/com.ingenico.ingedev.telium.bin.win32.gnuarm.v343_7.20.0.1/os/win32/GNUARM/3.4.3/arm-elf/lib/thumb/soft/interwork/libc.a(mprec.o)
                0x000db614                __mprec_tinytens
                0x000db664                __mprec_tens
                0x000db63c                __mprec_bigtens
 .rodata        0x000db738      0x100 C:/Program Files/Ingenico/IngeDev_722/plugins/com.ingenico.ingedev.telium.bin.win32.gnuarm.v343_7.20.0.1/os/win32/GNUARM/3.4.3/lib/gcc/arm-elf/3.4.3/thumb/soft/interwork/libgcc.a(_clz.o)
                0x000db738                __clz_tab
 *(.gnu.linkonce.r.*)
                0x000db838                __text_end = .
                0x00200000                . = 0x200000

.data           0x00200000     0xc190 load address 0x000db838
                0x00200000                __data_start = .
 *(.data .data.*)
 .data          0x00200000       0x18 Obj/RELEASE_T2/tlmhmi.o
 .data          0x00200018        0xc Obj/RELEASE_T2/tlmmem.o
 .data          0x00200024     0x2e80 Obj/RELEASE_T2/map.o
 .data          0x00202ea4     0x4778 Obj/RELEASE_T2/dft.o
 .data          0x0020761c     0x3590 Obj/RELEASE_T2/rpt.o
 .data          0x0020abac      0x480 Obj/RELEASE_T2/scr.o
 .data          0x0020b02c      0x100 Obj/RELEASE_T2/iso.o
 .data          0x0020b12c       0xd0 Obj/RELEASE_T2/log.o
 .data          0x0020b1fc        0x1 Obj/RELEASE_T2/req.o
 *fill*         0x0020b1fd        0x1 00
 .data          0x0020b1fe       0x5a Obj/RELEASE_T2/rev.o
 .data          0x0020b258        0x9 Obj/RELEASE_T2/tlmcry.o
 *fill*         0x0020b261        0x1 00
 .data          0x0020b262      0x2c0 Obj/RELEASE_T2/BRI.o
 .data          0x0020b522       0x40 Obj/RELEASE_T2/LineEncryption.o
                0x0020b522                encryptedField
 *fill*         0x0020b562        0x2 00
 .data          0x0020b564      0x3fc Obj/RELEASE_T2/AES.o
                0x0020b564                Rcon
 .data          0x0020b960        0x3 C:/Program Files/SDK30/SDK 9.20.0.01/SDK/lib_gnu/SEC.lib(SECLibOpenClose.o)
 *fill*         0x0020b963        0x1 00
 .data          0x0020b964      0x404 C:/Program Files/Ingenico/IngeDev_722/plugins/com.ingenico.ingedev.telium.bin.win32.gnuarm.v343_7.20.0.1/os/win32/GNUARM/3.4.3/arm-elf/lib/thumb/soft/interwork/libc.a(impure.o)
                0x0020bd64                _impure_ptr
 .data          0x0020bd68        0x4 C:/Program Files/Ingenico/IngeDev_722/plugins/com.ingenico.ingedev.telium.bin.win32.gnuarm.v343_7.20.0.1/os/win32/GNUARM/3.4.3/arm-elf/lib/thumb/soft/interwork/libc.a(ctype_.o)
                0x0020bd68                __ctype_ptr
 .data          0x0020bd6c       0x14 C:/Program Files/Ingenico/IngeDev_722/plugins/com.ingenico.ingedev.telium.bin.win32.gnuarm.v343_7.20.0.1/os/win32/GNUARM/3.4.3/arm-elf/lib/thumb/soft/interwork/libc.a(locale.o)
                0x0020bd78                __mb_cur_max
                0x0020bd6c                __lc_ctype
 .data          0x0020bd80      0x410 C:/Program Files/Ingenico/IngeDev_722/plugins/com.ingenico.ingedev.telium.bin.win32.gnuarm.v343_7.20.0.1/os/win32/GNUARM/3.4.3/arm-elf/lib/thumb/soft/interwork/libc.a(mallocr.o)
                0x0020bd80                __malloc_sbrk_base
                0x0020bd88                __malloc_av_
                0x0020bd84                __malloc_trim_threshold
 *(.gnu.linkonce.d.*)
                0x0020c190                __data_end = .

.bss            0x0020c190    0x2bc0c
                0x0020c190                __bss_start = .
 *(.bss .bss.*)
 .bss           0x0020c190        0x8 Obj/RELEASE_T2/tbx.o
 .bss           0x0020c198      0x144 Obj/RELEASE_T2/tlm.o
 .bss           0x0020c2dc       0x14 Obj/RELEASE_T2/tlmhmi.o
 .bss           0x0020c2f0       0x4c Obj/RELEASE_T2/tlmmem.o
 .bss           0x0020c33c        0x4 Obj/RELEASE_T2/dba.o
 .bss           0x0020c340        0x2 Obj/RELEASE_T2/dlg.o
 *fill*         0x0020c342        0x2 00
 .bss           0x0020c344      0x418 Obj/RELEASE_T2/sgm.o
                0x0020c344                testHandle
 .bss           0x0020c75c     0xa230 Obj/RELEASE_T2/map.o
 .bss           0x0021698c        0x1 Obj/RELEASE_T2/hdl.o
 .bss           0x0021698d        0x2 Obj/RELEASE_T2/adm.o
 .bss           0x0021698f        0x1 Obj/RELEASE_T2/emv.o
                0x0021698f                goOnline
 .bss           0x00216990        0x1 Obj/RELEASE_T2/log.o
 .bss           0x00216991       0x12 Obj/RELEASE_T2/onl.o
 .bss           0x002169a3        0x1 Obj/RELEASE_T2/pmt.o
 .bss           0x002169a4        0x2 Obj/RELEASE_T2/req.o
                0x002169a4                txnAsli
 *fill*         0x002169a6        0x2 00
 .bss           0x002169a8    0x10008 Obj/RELEASE_T2/rsp.o
 .bss           0x002269b0       0x12 Obj/RELEASE_T2/tle.o
 *fill*         0x002269c2        0x2 00
 .bss           0x002269c4       0x4c Obj/RELEASE_T2/tlmchn.o
 .bss           0x00226a10        0xc Obj/RELEASE_T2/tlmcry.o
 .bss           0x00226a1c    0x10c3c Obj/RELEASE_T2/tlmemv.o
 .bss           0x00237658       0xfa Obj/RELEASE_T2/BRI.o
 *fill*         0x00237752        0x2 00
 .bss           0x00237754      0x108 Obj/RELEASE_T2/AES.o
 .bss           0x0023785c       0x30 Obj/RELEASE_T2/keyinject.o
 .bss           0x0023788c        0x4 Obj/RELEASE_T2/timing.o
                0x0023788c                alarmed
 .bss           0x00237890        0xc libs/GNU_ARM_RELEASE/RSA.lib(m_mem.o)
 .bss           0x0023789c        0x2 libs/GNU_ARM_RELEASE/RSA.lib(m_rand.o)
 *fill*         0x0023789e        0x2 00
 .bss           0x002378a0        0x4 C:/Program Files/SDK30/SDK 9.20.0.01/SDK/lib_gnu/eft30.lib(param17.o)
 .bss           0x002378a4        0x4 C:/Program Files/SDK30/SDK 9.20.0.01/SDK/lib_gnu/eft30.lib(param46.o)
 .bss           0x002378a8        0x4 C:/Program Files/SDK30/SDK 9.20.0.01/SDK/lib_gnu/eft30.lib(param72.o)
 .bss           0x002378ac       0xa8 C:/Program Files/SDK30/SDK 9.20.0.01/SDK/lib_gnu/eft30.lib(crypto2.o)
 .bss           0x00237954        0x4 C:/Program Files/SDK30/SDK 9.20.0.01/SDK/lib_gnu/eft30.lib(sv24.o)
 .bss           0x00237958        0x4 C:/Program Files/SDK30/SDK 9.20.0.01/SDK/lib_gnu/eft30.lib(sv25.o)
 .bss           0x0023795c        0x4 C:/Program Files/SDK30/SDK 9.20.0.01/SDK/lib_gnu/eft30.lib(svtd21.o)
 .bss           0x00237960        0x4 C:/Program Files/SDK30/SDK 9.20.0.01/SDK/lib_gnu/eft30.lib(svtd22.o)
 .bss           0x00237964        0x4 C:/Program Files/SDK30/SDK 9.20.0.01/SDK/lib_gnu/eft30.lib(svtd23.o)
 .bss           0x00237968        0x4 C:/Program Files/SDK30/SDK 9.20.0.01/SDK/lib_gnu/eft30.lib(libgr137.o)
 .bss           0x0023796c        0x4 C:/Program Files/SDK30/SDK 9.20.0.01/SDK/lib_gnu/eft30.lib(libgr35.o)
 .bss           0x00237970        0x4 C:/Program Files/SDK30/SDK 9.20.0.01/SDK/lib_gnu/eft30.lib(libgr40.o)
 .bss           0x00237974        0x4 C:/Program Files/SDK30/SDK 9.20.0.01/SDK/lib_gnu/eft30.lib(libgr41.o)
 .bss           0x00237978        0x4 C:/Program Files/SDK30/SDK 9.20.0.01/SDK/lib_gnu/eft30.lib(libgr49.o)
 .bss           0x0023797c        0x4 C:/Program Files/SDK30/SDK 9.20.0.01/SDK/lib_gnu/eft30.lib(libgr54.o)
 .bss           0x00237980        0x4 C:/Program Files/SDK30/SDK 9.20.0.01/SDK/lib_gnu/eft30.lib(libgr55.o)
 .bss           0x00237984        0x4 C:/Program Files/SDK30/SDK 9.20.0.01/SDK/lib_gnu/eft30.lib(libgr58.o)
 .bss           0x00237988        0x4 C:/Program Files/SDK30/SDK 9.20.0.01/SDK/lib_gnu/eft30.lib(libgr66.o)
 .bss           0x0023798c        0x4 C:/Program Files/SDK30/SDK 9.20.0.01/SDK/lib_gnu/eft30.lib(libgr68.o)
 .bss           0x00237990        0x4 C:/Program Files/SDK30/SDK 9.20.0.01/SDK/lib_gnu/eft30.lib(libgr7.o)
 .bss           0x00237994        0x4 C:/Program Files/SDK30/SDK 9.20.0.01/SDK/lib_gnu/eft30.lib(libgr8.o)
 .bss           0x00237998        0x4 C:/Program Files/SDK30/SDK 9.20.0.01/SDK/lib_gnu/eft30.lib(libgr82.o)
 .bss           0x0023799c        0x4 C:/Program Files/SDK30/SDK 9.20.0.01/SDK/lib_gnu/eft30.lib(libgr83.o)
 .bss           0x002379a0        0x4 C:/Program Files/SDK30/SDK 9.20.0.01/SDK/lib_gnu/eft30.lib(libgr86.o)
 .bss           0x002379a4        0x4 C:/Program Files/SDK30/SDK 9.20.0.01/SDK/lib_gnu/eft30.lib(Tools35.o)
 .bss           0x002379a8        0x4 C:/Program Files/SDK30/SDK 9.20.0.01/SDK/lib_gnu/eft30.lib(Tools36.o)
 .bss           0x002379ac        0x4 C:/Program Files/SDK30/SDK 9.20.0.01/SDK/lib_gnu/SEC.lib(SECLibOpenClose.o)
                0x002379ac                __SEC_DllGetProcAddress
 .bss           0x002379b0        0x4 C:/Program Files/SDK30/SDK 9.20.0.01/SDK/lib_gnu/SEC.lib(SEC1.o)
 .bss           0x002379b4        0x4 C:/Program Files/SDK30/SDK 9.20.0.01/SDK/lib_gnu/SEC.lib(SEC7.o)
 .bss           0x002379b8        0x4 C:/Program Files/SDK30/SDK 9.20.0.01/SDK/lib_gnu/SEC.lib(SEC8.o)
 .bss           0x002379bc        0x4 C:/Program Files/SDK30/SDK 9.20.0.01/SDK/lib_gnu/SEC.lib(SEC9.o)
 .bss           0x002379c0        0x4 C:/Program Files/SDK30/SDK 9.20.0.01/SDK/lib_gnu/SEC.lib(SEC10.o)
 .bss           0x002379c4        0x4 C:/Program Files/SDK30/SDK 9.20.0.01/SDK/lib_gnu/SEC.lib(SEC11.o)
 .bss           0x002379c8        0x4 C:/Program Files/SDK30/SDK 9.20.0.01/SDK/lib_gnu/SEC.lib(SEC19.o)
 .bss           0x002379cc        0x4 C:/Program Files/SDK30/SDK 9.20.0.01/SDK/lib_gnu/SEC.lib(SEC20.o)
 .bss           0x002379d0        0x4 C:/Program Files/SDK30/SDK 9.20.0.01/SDK/lib_gnu/SEC.lib(SEC21.o)
 .bss           0x002379d4        0x4 C:/Program Files/SDK30/SDK 9.20.0.01/SDK/lib_gnu/SEC.lib(SEC22.o)
 .bss           0x002379d8        0x4 C:/Program Files/SDK30/SDK 9.20.0.01/SDK/lib_gnu/SEC.lib(SEC23.o)
 .bss           0x002379dc        0x4 C:/Program Files/SDK30/SDK 9.20.0.01/SDK/lib_gnu/SEC.lib(SEC24.o)
 .bss           0x002379e0        0x4 C:/Program Files/SDK30/SDK 9.20.0.01/SDK/lib_gnu/SEC.lib(SEC25.o)
 .bss           0x002379e4        0x4 C:/Program Files/SDK30/SDK 9.20.0.01/SDK/lib_gnu/SEC.lib(SEC26.o)
 .bss           0x002379e8        0x4 C:/Program Files/SDK30/SDK 9.20.0.01/SDK/lib_gnu/SEC.lib(SEC28.o)
 .bss           0x002379ec        0x4 C:/Program Files/SDK30/SDK 9.20.0.01/SDK/lib_gnu/SEC.lib(SEC31.o)
 .bss           0x002379f0        0x4 C:/Program Files/SDK30/SDK 9.20.0.01/SDK/lib_gnu/SEC.lib(SEC32.o)
 .bss           0x002379f4        0x4 C:/Program Files/SDK30/SDK 9.20.0.01/SDK/lib_gnu/SEC.lib(SEC34.o)
 .bss           0x002379f8        0x4 C:/Program Files/SDK30/SDK 9.20.0.01/SDK/lib_gnu/SEC.lib(SEC37.o)
 .bss           0x002379fc       0x10 C:/Program Files/SDK30/SDK 9.20.0.01/SDK/lib_gnu/IP_.lib(Telium_IP_Inet.o)
 .bss           0x00237a0c       0xb4 C:/Program Files/Ingenico/IngeDev_722/plugins/com.ingenico.ingedev.telium.bin.win32.gnuarm.v343_7.20.0.1/os/win32/GNUARM/3.4.3/arm-elf/lib/thumb/soft/interwork/libc.a(syscalls.o)
 .bss           0x00237ac0        0xc C:/Program Files/Ingenico/IngeDev_722/plugins/com.ingenico.ingedev.telium.bin.win32.gnuarm.v343_7.20.0.1/os/win32/GNUARM/3.4.3/arm-elf/lib/thumb/soft/interwork/libc.a(locale.o)
                0x00237ac8                __nlocale_changed
                0x00237ac4                __mlocale_changed
                0x00237ac0                _PathLocale
 .bss           0x00237acc       0x34 C:/Program Files/Ingenico/IngeDev_722/plugins/com.ingenico.ingedev.telium.bin.win32.gnuarm.v343_7.20.0.1/os/win32/GNUARM/3.4.3/arm-elf/lib/thumb/soft/interwork/libc.a(mallocr.o)
                0x00237afc                __malloc_top_pad
                0x00237af8                __malloc_max_sbrked_mem
                0x00237acc                __malloc_current_mallinfo
                0x00237af4                __malloc_max_total_mem
 *(.gnu.linkonce.b.*)
 *(COMMON)
 COMMON         0x00237b00       0x26 Obj/RELEASE_T2/Main.o
                0x00237b00                EMV_IDLE_SHOW_FLAG
                0x00237b04                EMV_ENTRYMODE
                0x00237b08                EMVFallback
                0x00237b0c                EMV_ENTRY_SERVICE_CODE
                0x00237b10                debugRspFlag
                0x00237b14                EMVIdleFallback
                0x00237b18                debugReqFlag
                0x00237b1c                EMVFlagSet
                0x00237b20                EMV_FALLBACK_IDLE_SHOW
                0x00237b24                EMVFallbackFlagSet
                0x00237b25                debugEmvFlag
 COMMON         0x00237b26       0x20 Obj/RELEASE_T2/tle.o
                0x00237b26                uploadedPrepaidIdx
 COMMON         0x00237b46       0x5b Obj/RELEASE_T2/LineEncryption.o
                0x00237b46                xsec_USK
                0x00237b67                xsec_TLE
                0x00237b78                xsec_UMK
                0x00237b99                xsec_derivation_data
 COMMON         0x00237ba1       0x40 Obj/RELEASE_T2/AES.o
                0x00237ba1                AESDataIn
                0x00237bb1                AESDataOut
                0x00237bc1                AESKey
 COMMON         0x00237be1      0x104 Obj/RELEASE_T2/keyinject.o
                0x00237be1                serialBuff
 *fill*         0x00237ce5        0x3 00
 COMMON         0x00237ce8       0x4d Obj/RELEASE_T2/prepaid.o
                0x00237ce8                prepaidCom
                0x00237d34                prepaidRespCode
 *fill*         0x00237d35        0x3 00
 COMMON         0x00237d38        0x4 C:/Program Files/SDK30/SDK 9.20.0.01/SDK/lib_gnu/eft30.lib(iam1.o)
                0x00237d38                _Send_MessageAddress
 COMMON         0x00237d3c        0x4 C:/Program Files/SDK30/SDK 9.20.0.01/SDK/lib_gnu/eft30.lib(iamtd1.o)
                0x00237d3c                DllGetProcAddress4
 COMMON         0x00237d40        0x4 C:/Program Files/SDK30/SDK 9.20.0.01/SDK/lib_gnu/eft30.lib(extens280.o)
                0x00237d40                _USR_ServiceCallAddress
 COMMON         0x00237d44        0x4 C:/Program Files/SDK30/SDK 9.20.0.01/SDK/lib_gnu/eft30.lib(extens53.o)
                0x00237d44                _d_tolongAddress
 COMMON         0x00237d48        0x4 C:/Program Files/SDK30/SDK 9.20.0.01/SDK/lib_gnu/eft30.lib(extens89.o)
                0x00237d48                _GetSemaphoreUserAddress
 COMMON         0x00237d4c        0x4 C:/Program Files/SDK30/SDK 9.20.0.01/SDK/lib_gnu/eft30.lib(extens90.o)
                0x00237d4c                _FreeSemaphoreUserAddress
 COMMON         0x00237d50        0x4 C:/Program Files/SDK30/SDK 9.20.0.01/SDK/lib_gnu/eft30.lib(extens93.o)
                0x00237d50                _GetDelayUserAddress
 COMMON         0x00237d54        0x4 C:/Program Files/SDK30/SDK 9.20.0.01/SDK/lib_gnu/eft30.lib(extens94.o)
                0x00237d54                _FreeDelayUserAddress
 COMMON         0x00237d58        0x4 C:/Program Files/SDK30/SDK 9.20.0.01/SDK/lib_gnu/eft30.lib(extenstd1.o)
                0x00237d58                DllGetProcAddress3
 COMMON         0x00237d5c        0x4 C:/Program Files/SDK30/SDK 9.20.0.01/SDK/lib_gnu/eft30.lib(extenstdeux5.o)
                0x00237d5c                _Get_TypeCodeAddress
 COMMON         0x00237d60        0x4 C:/Program Files/SDK30/SDK 9.20.0.01/SDK/lib_gnu/eft30.lib(extensostd119.o)
                0x00237d60                _StateHeaderAddress
 COMMON         0x00237d64        0x4 C:/Program Files/SDK30/SDK 9.20.0.01/SDK/lib_gnu/eft30.lib(paramtd1.o)
                0x00237d64                DllGetProcAddress7
 COMMON         0x00237d68        0x4 C:/Program Files/SDK30/SDK 9.20.0.01/SDK/lib_gnu/eft30.lib(cryptotd1.o)
                0x00237d68                DllGetProcAddress
 COMMON         0x00237d6c        0x4 C:/Program Files/SDK30/SDK 9.20.0.01/SDK/lib_gnu/eft30.lib(pinpad10.o)
                0x00237d6c                _PPS_firstlineAddress
 COMMON         0x00237d70        0x4 C:/Program Files/SDK30/SDK 9.20.0.01/SDK/lib_gnu/eft30.lib(pinpad12.o)
                0x00237d70                _PPS_DisplayAddress
 COMMON         0x00237d74        0x4 C:/Program Files/SDK30/SDK 9.20.0.01/SDK/lib_gnu/eft30.lib(pinpad15.o)
                0x00237d74                _PPS_clear_displayAddress
 COMMON         0x00237d78        0x4 C:/Program Files/SDK30/SDK 9.20.0.01/SDK/lib_gnu/eft30.lib(pinpad8.o)
                0x00237d78                _PPS_newlineAddress
 COMMON         0x00237d7c        0x4 C:/Program Files/SDK30/SDK 9.20.0.01/SDK/lib_gnu/eft30.lib(pinpad9.o)
                0x00237d7c                _PPS_clearlineAddress
 COMMON         0x00237d80        0x4 C:/Program Files/SDK30/SDK 9.20.0.01/SDK/lib_gnu/eft30.lib(pinpadtd1.o)
                0x00237d80                DllGetProcAddress9
 COMMON         0x00237d84        0x4 C:/Program Files/SDK30/SDK 9.20.0.01/SDK/lib_gnu/eft30.lib(svtd1.o)
                0x00237d84                DllGetProcAddress12
 COMMON         0x00237d88        0x4 C:/Program Files/SDK30/SDK 9.20.0.01/SDK/lib_gnu/eft30.lib(libgrtd1.o)
                0x00237d88                DllGetProcAddress6
 COMMON         0x00237d8c        0x4 C:/Program Files/SDK30/SDK 9.20.0.01/SDK/lib_gnu/eft30.lib(Toolstd1.o)
                0x00237d8c                DllGetProcAddressTools
 COMMON         0x00237d90        0x4 C:/Program Files/SDK30/SDK 9.20.0.01/SDK/lib_gnu/eft30.lib(gprstd1.o)
                0x00237d90                DllGetProcAddress13
 COMMON         0x00237d94        0x4 C:/Program Files/SDK30/SDK 9.20.0.01/SDK/lib_gnu/eft30.lib(extens252.o)
                0x00237d94                _TM_InitContexteGraphiqueAddress
 COMMON         0x00237d98        0x4 C:/Program Files/Ingenico/IngeDev_722/plugins/com.ingenico.ingedev.telium.bin.win32.gnuarm.v343_7.20.0.1/os/win32/GNUARM/3.4.3/arm-elf/lib/thumb/soft/interwork/libc.a(reent.o)
                0x00237d98                errno
                0x00237d9c                __bss_end = .
                0x00237d9c                PROVIDE (end, .)
LOAD Obj/RELEASE_T2/trc.o
LOAD Obj/RELEASE_T2/tbx.o
LOAD Obj/RELEASE_T2/tlm.o
LOAD Obj/RELEASE_T2/tlmhmi.o
LOAD Obj/RELEASE_T2/tlmmem.o
LOAD Obj/RELEASE_T2/std.o
LOAD Obj/RELEASE_T2/fmt.o
LOAD Obj/RELEASE_T2/dba.o
LOAD Obj/RELEASE_T2/drv.o
LOAD Obj/RELEASE_T2/dlg.o
LOAD Obj/RELEASE_T2/Main.o
LOAD Obj/RELEASE_T2/sgm.o
LOAD Obj/RELEASE_T2/map.o
LOAD Obj/RELEASE_T2/dft.o
LOAD Obj/RELEASE_T2/rpt.o
LOAD Obj/RELEASE_T2/scr.o
LOAD Obj/RELEASE_T2/str.o
LOAD Obj/RELEASE_T2/hdl.o
LOAD Obj/RELEASE_T2/val.o
LOAD Obj/RELEASE_T2/adm.o
LOAD Obj/RELEASE_T2/emv.o
LOAD Obj/RELEASE_T2/function.o
LOAD Obj/RELEASE_T2/iso.o
LOAD Obj/RELEASE_T2/log.o
LOAD Obj/RELEASE_T2/onl.o
LOAD Obj/RELEASE_T2/pmt.o
LOAD Obj/RELEASE_T2/req.o
LOAD Obj/RELEASE_T2/rev.o
LOAD Obj/RELEASE_T2/rsp.o
LOAD Obj/RELEASE_T2/tle.o
LOAD Obj/RELEASE_T2/cmm.o
LOAD Obj/RELEASE_T2/tlmchn.o
LOAD Obj/RELEASE_T2/tlmcry.o
LOAD Obj/RELEASE_T2/tlmemv.o
LOAD Obj/RELEASE_T2/tcan0020.o
LOAD Obj/RELEASE_T2/BRI.o
LOAD Obj/RELEASE_T2/LineEncryption.o
LOAD Obj/RELEASE_T2/AES.o
LOAD Obj/RELEASE_T2/keyinject.o
LOAD Obj/RELEASE_T2/prepaid.o
LOAD Obj/RELEASE_T2/logon.o
LOAD Obj/RELEASE_T2/rsagen.o
LOAD Obj/RELEASE_T2/prsa.o
LOAD Obj/RELEASE_T2/bignum.o
LOAD Obj/RELEASE_T2/havege.o
LOAD Obj/RELEASE_T2/timing.o
LOAD Obj/RELEASE_T2/cstartup.o
START GROUP
LOAD libs/GNU_ARM_RELEASE/RSA.lib
LOAD C:/Program Files/SDK30/Easy Path to EMV 22.4.1/SDK_Engine/lib_gnu/DEL.lib
LOAD C:/Program Files/SDK30/SDK 9.20.0.01/SDK/lib_gnu/GTL.lib
LOAD C:/Program Files/SDK30/SDK 9.20.0.01/SDK/lib_gnu/eft30.lib
LOAD C:/Program Files/SDK30/SDK 9.20.0.01/SDK/lib_gnu/TPass.lib
LOAD C:/Program Files/SDK30/SDK 9.20.0.01/SDK/lib_gnu/PinLib_Deprecated.lib
LOAD C:/Program Files/SDK30/SDK 9.20.0.01/SDK/lib_gnu/trap.lib
LOAD C:/Program Files/SDK30/SDK 9.20.0.01/SDK/lib_gnu/AVL.lib
LOAD C:/Program Files/SDK30/SDK 9.20.0.01/SDK/lib_gnu/E2EE_DLL.lib
LOAD C:/Program Files/SDK30/SDK 9.20.0.01/SDK/lib_gnu/SEC.lib
LOAD C:/Program Files/SDK30/SDK 9.20.0.01/SDK/lib_gnu/IMG_.lib
LOAD C:/Program Files/SDK30/SDK 9.20.0.01/SDK/lib_gnu/IP_.lib
LOAD C:/Program Files/SDK30/SDK 9.20.0.01/SDK/lib_gnu/SEC_extend.lib
LOAD C:/Program Files/SDK30/SDK 9.20.0.01/SDK/lib_gnu/LinkLayerExeInterface.lib
LOAD C:/Program Files/SDK30/SDK 9.20.0.01/SDK/lib_gnu/SSL_.lib
END GROUP
LOAD C:/Program Files/Ingenico/IngeDev_722/plugins/com.ingenico.ingedev.telium.bin.win32.gnuarm.v343_7.20.0.1/os/win32/GNUARM/3.4.3/arm-elf/lib/thumb/soft/interwork/libsupc++.a
LOAD C:/Program Files/Ingenico/IngeDev_722/plugins/com.ingenico.ingedev.telium.bin.win32.gnuarm.v343_7.20.0.1/os/win32/GNUARM/3.4.3/arm-elf/lib/thumb/soft/interwork/libc.a
LOAD C:/Program Files/Ingenico/IngeDev_722/plugins/com.ingenico.ingedev.telium.bin.win32.gnuarm.v343_7.20.0.1/os/win32/GNUARM/3.4.3/lib/gcc/arm-elf/3.4.3/thumb/soft/interwork/libgcc.a
OUTPUT(Obj/RELEASE_T2/SIMAS.axf elf32-littlearm)

.debug_abbrev   0x00000000     0xa1e9
 .debug_abbrev  0x00000000       0x6b Obj/RELEASE_T2/trc.o
 .debug_abbrev  0x0000006b      0x16f Obj/RELEASE_T2/tbx.o
 .debug_abbrev  0x000001da      0x24a Obj/RELEASE_T2/tlm.o
 .debug_abbrev  0x00000424      0x148 Obj/RELEASE_T2/tlmhmi.o
 .debug_abbrev  0x0000056c      0x16c Obj/RELEASE_T2/tlmmem.o
 .debug_abbrev  0x000006d8      0x169 Obj/RELEASE_T2/std.o
 .debug_abbrev  0x00000841       0xe7 Obj/RELEASE_T2/fmt.o
 .debug_abbrev  0x00000928      0x1cb Obj/RELEASE_T2/dba.o
 .debug_abbrev  0x00000af3      0x189 Obj/RELEASE_T2/drv.o
 .debug_abbrev  0x00000c7c      0x18c Obj/RELEASE_T2/dlg.o
 .debug_abbrev  0x00000e08      0x1f7 Obj/RELEASE_T2/Main.o
 .debug_abbrev  0x00000fff      0x1e8 Obj/RELEASE_T2/sgm.o
 .debug_abbrev  0x000011e7      0x1b0 Obj/RELEASE_T2/map.o
 .debug_abbrev  0x00001397      0x150 Obj/RELEASE_T2/dft.o
 .debug_abbrev  0x000014e7       0xf0 Obj/RELEASE_T2/rpt.o
 .debug_abbrev  0x000015d7      0x11d Obj/RELEASE_T2/scr.o
 .debug_abbrev  0x000016f4      0x119 Obj/RELEASE_T2/str.o
 .debug_abbrev  0x0000180d      0x1b4 Obj/RELEASE_T2/hdl.o
 .debug_abbrev  0x000019c1      0x143 Obj/RELEASE_T2/val.o
 .debug_abbrev  0x00001b04      0x182 Obj/RELEASE_T2/adm.o
 .debug_abbrev  0x00001c86      0x23f Obj/RELEASE_T2/emv.o
 .debug_abbrev  0x00001ec5      0x1d0 Obj/RELEASE_T2/function.o
 .debug_abbrev  0x00002095       0x80 Obj/RELEASE_T2/iso.o
 .debug_abbrev  0x00002115      0x1c9 Obj/RELEASE_T2/log.o
 .debug_abbrev  0x000022de      0x169 Obj/RELEASE_T2/onl.o
 .debug_abbrev  0x00002447      0x1e7 Obj/RELEASE_T2/pmt.o
 .debug_abbrev  0x0000262e      0x1a9 Obj/RELEASE_T2/req.o
 .debug_abbrev  0x000027d7       0xa5 Obj/RELEASE_T2/rev.o
 .debug_abbrev  0x0000287c      0x190 Obj/RELEASE_T2/rsp.o
 .debug_abbrev  0x00002a0c      0x195 Obj/RELEASE_T2/tle.o
 .debug_abbrev  0x00002ba1       0x2a Obj/RELEASE_T2/cmm.o
 .debug_abbrev  0x00002bcb      0x1f7 Obj/RELEASE_T2/tlmchn.o
 .debug_abbrev  0x00002dc2      0x1ab Obj/RELEASE_T2/tlmcry.o
 .debug_abbrev  0x00002f6d      0x245 Obj/RELEASE_T2/tlmemv.o
 .debug_abbrev  0x000031b2       0x3f Obj/RELEASE_T2/tcan0020.o
 .debug_abbrev  0x000031f1      0x23f Obj/RELEASE_T2/BRI.o
 .debug_abbrev  0x00003430      0x21f Obj/RELEASE_T2/LineEncryption.o
 .debug_abbrev  0x0000364f      0x12b Obj/RELEASE_T2/AES.o
 .debug_abbrev  0x0000377a      0x1bb Obj/RELEASE_T2/keyinject.o
 .debug_abbrev  0x00003935      0x248 Obj/RELEASE_T2/prepaid.o
 .debug_abbrev  0x00003b7d       0x9e Obj/RELEASE_T2/logon.o
 .debug_abbrev  0x00003c1b       0x6a Obj/RELEASE_T2/rsagen.o
 .debug_abbrev  0x00003c85      0x178 Obj/RELEASE_T2/prsa.o
 .debug_abbrev  0x00003dfd      0x275 Obj/RELEASE_T2/bignum.o
 .debug_abbrev  0x00004072       0xf3 Obj/RELEASE_T2/havege.o
 .debug_abbrev  0x00004165       0x71 Obj/RELEASE_T2/timing.o
 .debug_abbrev  0x000041d6       0xc1 libs/GNU_ARM_RELEASE/RSA.lib(RSA_dec.o)
 .debug_abbrev  0x00004297       0x4a libs/GNU_ARM_RELEASE/RSA.lib(RSA_init.o)
 .debug_abbrev  0x000042e1       0x6e libs/GNU_ARM_RELEASE/RSA.lib(m_add.o)
 .debug_abbrev  0x0000434f       0x6e libs/GNU_ARM_RELEASE/RSA.lib(m_b2w.o)
 .debug_abbrev  0x000043bd       0x4e libs/GNU_ARM_RELEASE/RSA.lib(m_clr.o)
 .debug_abbrev  0x0000440b       0x50 libs/GNU_ARM_RELEASE/RSA.lib(m_cmp.o)
 .debug_abbrev  0x0000445b       0x5d libs/GNU_ARM_RELEASE/RSA.lib(m_cpy.o)
 .debug_abbrev  0x000044b8       0xb5 libs/GNU_ARM_RELEASE/RSA.lib(m_div.o)
 .debug_abbrev  0x0000456d       0xc5 libs/GNU_ARM_RELEASE/RSA.lib(m_mem.o)
 .debug_abbrev  0x00004632       0x5d libs/GNU_ARM_RELEASE/RSA.lib(m_modmul.o)
 .debug_abbrev  0x0000468f       0x84 libs/GNU_ARM_RELEASE/RSA.lib(m_monexp.o)
 .debug_abbrev  0x00004713       0x72 libs/GNU_ARM_RELEASE/RSA.lib(m_moninv.o)
 .debug_abbrev  0x00004785       0x5d libs/GNU_ARM_RELEASE/RSA.lib(m_monmul.o)
 .debug_abbrev  0x000047e2       0x93 libs/GNU_ARM_RELEASE/RSA.lib(m_msb.o)
 .debug_abbrev  0x00004875       0x82 libs/GNU_ARM_RELEASE/RSA.lib(m_mul.o)
 .debug_abbrev  0x000048f7       0x5f libs/GNU_ARM_RELEASE/RSA.lib(m_mulsub.o)
 .debug_abbrev  0x00004956       0x90 libs/GNU_ARM_RELEASE/RSA.lib(m_rand.o)
 .debug_abbrev  0x000049e6       0x84 libs/GNU_ARM_RELEASE/RSA.lib(m_red.o)
 .debug_abbrev  0x00004a6a       0x5f libs/GNU_ARM_RELEASE/RSA.lib(m_shlx.o)
 .debug_abbrev  0x00004ac9       0x5f libs/GNU_ARM_RELEASE/RSA.lib(m_shrx.o)
 .debug_abbrev  0x00004b28       0x6e libs/GNU_ARM_RELEASE/RSA.lib(m_sub.o)
 .debug_abbrev  0x00004b96       0x75 libs/GNU_ARM_RELEASE/RSA.lib(m_w2b.o)
 .debug_abbrev  0x00004c0b      0x346 C:/Program Files/SDK30/SDK 9.20.0.01/SDK/lib_gnu/IP_.lib(EthernetConfig.o)
 .debug_abbrev  0x00004f51       0xe7 C:/Program Files/SDK30/SDK 9.20.0.01/SDK/lib_gnu/IP_.lib(Telium_IP_Host.o)
 .debug_abbrev  0x00005038      0x124 C:/Program Files/SDK30/SDK 9.20.0.01/SDK/lib_gnu/IP_.lib(Telium_IP_Inet.o)
 .debug_abbrev  0x0000515c       0xf4 C:/Program Files/SDK30/SDK 9.20.0.01/SDK/lib_gnu/IP_.lib(Telium_IP_Socket.o)
 .debug_abbrev  0x00005250        0x1 C:/Program Files/SDK30/SDK 9.20.0.01/SDK/lib_gnu/IP_.lib(PackIP_Internal.o)
 .debug_abbrev  0x00005251      0x176 C:/Program Files/Ingenico/IngeDev_722/plugins/com.ingenico.ingedev.telium.bin.win32.gnuarm.v343_7.20.0.1/os/win32/GNUARM/3.4.3/arm-elf/lib/thumb/soft/interwork/libc.a(atoi.o)
 .debug_abbrev  0x000053c7      0x176 C:/Program Files/Ingenico/IngeDev_722/plugins/com.ingenico.ingedev.telium.bin.win32.gnuarm.v343_7.20.0.1/os/win32/GNUARM/3.4.3/arm-elf/lib/thumb/soft/interwork/libc.a(atol.o)
 .debug_abbrev  0x0000553d      0x16e C:/Program Files/Ingenico/IngeDev_722/plugins/com.ingenico.ingedev.telium.bin.win32.gnuarm.v343_7.20.0.1/os/win32/GNUARM/3.4.3/arm-elf/lib/thumb/soft/interwork/libc.a(exit.o)
 .debug_abbrev  0x000056ab      0x157 C:/Program Files/Ingenico/IngeDev_722/plugins/com.ingenico.ingedev.telium.bin.win32.gnuarm.v343_7.20.0.1/os/win32/GNUARM/3.4.3/arm-elf/lib/thumb/soft/interwork/libc.a(impure.o)
 .debug_abbrev  0x00005802       0x7c C:/Program Files/Ingenico/IngeDev_722/plugins/com.ingenico.ingedev.telium.bin.win32.gnuarm.v343_7.20.0.1/os/win32/GNUARM/3.4.3/arm-elf/lib/thumb/soft/interwork/libc.a(memcmp.o)
 .debug_abbrev  0x0000587e       0x90 C:/Program Files/Ingenico/IngeDev_722/plugins/com.ingenico.ingedev.telium.bin.win32.gnuarm.v343_7.20.0.1/os/win32/GNUARM/3.4.3/arm-elf/lib/thumb/soft/interwork/libc.a(memcpy.o)
 .debug_abbrev  0x0000590e       0x8a C:/Program Files/Ingenico/IngeDev_722/plugins/com.ingenico.ingedev.telium.bin.win32.gnuarm.v343_7.20.0.1/os/win32/GNUARM/3.4.3/arm-elf/lib/thumb/soft/interwork/libc.a(memmove.o)
 .debug_abbrev  0x00005998       0x7c C:/Program Files/Ingenico/IngeDev_722/plugins/com.ingenico.ingedev.telium.bin.win32.gnuarm.v343_7.20.0.1/os/win32/GNUARM/3.4.3/arm-elf/lib/thumb/soft/interwork/libc.a(memset.o)
 .debug_abbrev  0x00005a14      0x185 C:/Program Files/Ingenico/IngeDev_722/plugins/com.ingenico.ingedev.telium.bin.win32.gnuarm.v343_7.20.0.1/os/win32/GNUARM/3.4.3/arm-elf/lib/thumb/soft/interwork/libc.a(rand.o)
 .debug_abbrev  0x00005b99      0x1a0 C:/Program Files/Ingenico/IngeDev_722/plugins/com.ingenico.ingedev.telium.bin.win32.gnuarm.v343_7.20.0.1/os/win32/GNUARM/3.4.3/arm-elf/lib/thumb/soft/interwork/libc.a(snprintf.o)
 .debug_abbrev  0x00005d39       0xa2 C:/Program Files/Ingenico/IngeDev_722/plugins/com.ingenico.ingedev.telium.bin.win32.gnuarm.v343_7.20.0.1/os/win32/GNUARM/3.4.3/arm-elf/lib/thumb/soft/interwork/libc.a(strcasecmp.o)
 .debug_abbrev  0x00005ddb       0x6f C:/Program Files/Ingenico/IngeDev_722/plugins/com.ingenico.ingedev.telium.bin.win32.gnuarm.v343_7.20.0.1/os/win32/GNUARM/3.4.3/arm-elf/lib/thumb/soft/interwork/libc.a(strcat.o)
 .debug_abbrev  0x00005e4a       0x71 C:/Program Files/Ingenico/IngeDev_722/plugins/com.ingenico.ingedev.telium.bin.win32.gnuarm.v343_7.20.0.1/os/win32/GNUARM/3.4.3/arm-elf/lib/thumb/soft/interwork/libc.a(strchr.o)
 .debug_abbrev  0x00005ebb       0x60 C:/Program Files/Ingenico/IngeDev_722/plugins/com.ingenico.ingedev.telium.bin.win32.gnuarm.v343_7.20.0.1/os/win32/GNUARM/3.4.3/arm-elf/lib/thumb/soft/interwork/libc.a(strcmp.o)
 .debug_abbrev  0x00005f1b       0x6f C:/Program Files/Ingenico/IngeDev_722/plugins/com.ingenico.ingedev.telium.bin.win32.gnuarm.v343_7.20.0.1/os/win32/GNUARM/3.4.3/arm-elf/lib/thumb/soft/interwork/libc.a(strcpy.o)
 .debug_abbrev  0x00005f8a       0x7c C:/Program Files/Ingenico/IngeDev_722/plugins/com.ingenico.ingedev.telium.bin.win32.gnuarm.v343_7.20.0.1/os/win32/GNUARM/3.4.3/arm-elf/lib/thumb/soft/interwork/libc.a(strlen.o)
 .debug_abbrev  0x00006006       0x7c C:/Program Files/Ingenico/IngeDev_722/plugins/com.ingenico.ingedev.telium.bin.win32.gnuarm.v343_7.20.0.1/os/win32/GNUARM/3.4.3/arm-elf/lib/thumb/soft/interwork/libc.a(strncpy.o)
 .debug_abbrev  0x00006082       0x85 C:/Program Files/Ingenico/IngeDev_722/plugins/com.ingenico.ingedev.telium.bin.win32.gnuarm.v343_7.20.0.1/os/win32/GNUARM/3.4.3/arm-elf/lib/thumb/soft/interwork/libc.a(strstr.o)
 .debug_abbrev  0x00006107      0x1b3 C:/Program Files/Ingenico/IngeDev_722/plugins/com.ingenico.ingedev.telium.bin.win32.gnuarm.v343_7.20.0.1/os/win32/GNUARM/3.4.3/arm-elf/lib/thumb/soft/interwork/libc.a(strtol.o)
 .debug_abbrev  0x000062ba      0x1b3 C:/Program Files/Ingenico/IngeDev_722/plugins/com.ingenico.ingedev.telium.bin.win32.gnuarm.v343_7.20.0.1/os/win32/GNUARM/3.4.3/arm-elf/lib/thumb/soft/interwork/libc.a(strtoul.o)
 .debug_abbrev  0x0000646d      0x349 C:/Program Files/Ingenico/IngeDev_722/plugins/com.ingenico.ingedev.telium.bin.win32.gnuarm.v343_7.20.0.1/os/win32/GNUARM/3.4.3/arm-elf/lib/thumb/soft/interwork/libc.a(syscalls.o)
 .debug_abbrev  0x000067b6      0x315 C:/Program Files/Ingenico/IngeDev_722/plugins/com.ingenico.ingedev.telium.bin.win32.gnuarm.v343_7.20.0.1/os/win32/GNUARM/3.4.3/arm-elf/lib/thumb/soft/interwork/libc.a(vfprintf.o)
 .debug_abbrev  0x00006acb      0x18e C:/Program Files/Ingenico/IngeDev_722/plugins/com.ingenico.ingedev.telium.bin.win32.gnuarm.v343_7.20.0.1/os/win32/GNUARM/3.4.3/arm-elf/lib/thumb/soft/interwork/libc.a(wcrtomb.o)
 .debug_abbrev  0x00006c59      0x197 C:/Program Files/Ingenico/IngeDev_722/plugins/com.ingenico.ingedev.telium.bin.win32.gnuarm.v343_7.20.0.1/os/win32/GNUARM/3.4.3/arm-elf/lib/thumb/soft/interwork/libc.a(wcsrtombs.o)
 .debug_abbrev  0x00006df0      0x1b1 C:/Program Files/Ingenico/IngeDev_722/plugins/com.ingenico.ingedev.telium.bin.win32.gnuarm.v343_7.20.0.1/os/win32/GNUARM/3.4.3/arm-elf/lib/thumb/soft/interwork/libc.a(wctomb_r.o)
 .debug_abbrev  0x00006fa1      0x170 C:/Program Files/Ingenico/IngeDev_722/plugins/com.ingenico.ingedev.telium.bin.win32.gnuarm.v343_7.20.0.1/os/win32/GNUARM/3.4.3/arm-elf/lib/thumb/soft/interwork/libc.a(wsetup.o)
 .debug_abbrev  0x00007111      0x19b C:/Program Files/Ingenico/IngeDev_722/plugins/com.ingenico.ingedev.telium.bin.win32.gnuarm.v343_7.20.0.1/os/win32/GNUARM/3.4.3/arm-elf/lib/thumb/soft/interwork/libc.a(__call_atexit.o)
 .debug_abbrev  0x000072ac       0x52 C:/Program Files/Ingenico/IngeDev_722/plugins/com.ingenico.ingedev.telium.bin.win32.gnuarm.v343_7.20.0.1/os/win32/GNUARM/3.4.3/arm-elf/lib/thumb/soft/interwork/libc.a(ctype_.o)
 .debug_abbrev  0x000072fe      0x1fc C:/Program Files/Ingenico/IngeDev_722/plugins/com.ingenico.ingedev.telium.bin.win32.gnuarm.v343_7.20.0.1/os/win32/GNUARM/3.4.3/arm-elf/lib/thumb/soft/interwork/libc.a(dtoa.o)
 .debug_abbrev  0x000074fa      0x15f C:/Program Files/Ingenico/IngeDev_722/plugins/com.ingenico.ingedev.telium.bin.win32.gnuarm.v343_7.20.0.1/os/win32/GNUARM/3.4.3/arm-elf/lib/thumb/soft/interwork/libc.a(errno.o)
 .debug_abbrev  0x00007659      0x17f C:/Program Files/Ingenico/IngeDev_722/plugins/com.ingenico.ingedev.telium.bin.win32.gnuarm.v343_7.20.0.1/os/win32/GNUARM/3.4.3/arm-elf/lib/thumb/soft/interwork/libc.a(fflush.o)
 .debug_abbrev  0x000077d8      0x202 C:/Program Files/Ingenico/IngeDev_722/plugins/com.ingenico.ingedev.telium.bin.win32.gnuarm.v343_7.20.0.1/os/win32/GNUARM/3.4.3/arm-elf/lib/thumb/soft/interwork/libc.a(findfp.o)
 .debug_abbrev  0x000079da      0x1d9 C:/Program Files/Ingenico/IngeDev_722/plugins/com.ingenico.ingedev.telium.bin.win32.gnuarm.v343_7.20.0.1/os/win32/GNUARM/3.4.3/arm-elf/lib/thumb/soft/interwork/libc.a(freer.o)
 .debug_abbrev  0x00007bb3      0x1a7 C:/Program Files/Ingenico/IngeDev_722/plugins/com.ingenico.ingedev.telium.bin.win32.gnuarm.v343_7.20.0.1/os/win32/GNUARM/3.4.3/arm-elf/lib/thumb/soft/interwork/libc.a(fvwrite.o)
 .debug_abbrev  0x00007d5a      0x1dd C:/Program Files/Ingenico/IngeDev_722/plugins/com.ingenico.ingedev.telium.bin.win32.gnuarm.v343_7.20.0.1/os/win32/GNUARM/3.4.3/arm-elf/lib/thumb/soft/interwork/libc.a(fwalk.o)
 .debug_abbrev  0x00007f37      0x1de C:/Program Files/Ingenico/IngeDev_722/plugins/com.ingenico.ingedev.telium.bin.win32.gnuarm.v343_7.20.0.1/os/win32/GNUARM/3.4.3/arm-elf/lib/thumb/soft/interwork/libc.a(locale.o)
 .debug_abbrev  0x00008115      0x18c C:/Program Files/Ingenico/IngeDev_722/plugins/com.ingenico.ingedev.telium.bin.win32.gnuarm.v343_7.20.0.1/os/win32/GNUARM/3.4.3/arm-elf/lib/thumb/soft/interwork/libc.a(makebuf.o)
 .debug_abbrev  0x000082a1      0x187 C:/Program Files/Ingenico/IngeDev_722/plugins/com.ingenico.ingedev.telium.bin.win32.gnuarm.v343_7.20.0.1/os/win32/GNUARM/3.4.3/arm-elf/lib/thumb/soft/interwork/libc.a(malloc.o)
 .debug_abbrev  0x00008428      0x216 C:/Program Files/Ingenico/IngeDev_722/plugins/com.ingenico.ingedev.telium.bin.win32.gnuarm.v343_7.20.0.1/os/win32/GNUARM/3.4.3/arm-elf/lib/thumb/soft/interwork/libc.a(mallocr.o)
 .debug_abbrev  0x0000863e       0x99 C:/Program Files/Ingenico/IngeDev_722/plugins/com.ingenico.ingedev.telium.bin.win32.gnuarm.v343_7.20.0.1/os/win32/GNUARM/3.4.3/arm-elf/lib/thumb/soft/interwork/libc.a(memchr.o)
 .debug_abbrev  0x000086d7      0x16a C:/Program Files/Ingenico/IngeDev_722/plugins/com.ingenico.ingedev.telium.bin.win32.gnuarm.v343_7.20.0.1/os/win32/GNUARM/3.4.3/arm-elf/lib/thumb/soft/interwork/libc.a(mlock.o)
 .debug_abbrev  0x00008841      0x221 C:/Program Files/Ingenico/IngeDev_722/plugins/com.ingenico.ingedev.telium.bin.win32.gnuarm.v343_7.20.0.1/os/win32/GNUARM/3.4.3/arm-elf/lib/thumb/soft/interwork/libc.a(mprec.o)
 .debug_abbrev  0x00008a62      0x1d0 C:/Program Files/Ingenico/IngeDev_722/plugins/com.ingenico.ingedev.telium.bin.win32.gnuarm.v343_7.20.0.1/os/win32/GNUARM/3.4.3/arm-elf/lib/thumb/soft/interwork/libc.a(reallocr.o)
 .debug_abbrev  0x00008c32       0xd4 C:/Program Files/Ingenico/IngeDev_722/plugins/com.ingenico.ingedev.telium.bin.win32.gnuarm.v343_7.20.0.1/os/win32/GNUARM/3.4.3/arm-elf/lib/thumb/soft/interwork/libc.a(s_isinf.o)
 .debug_abbrev  0x00008d06       0xd4 C:/Program Files/Ingenico/IngeDev_722/plugins/com.ingenico.ingedev.telium.bin.win32.gnuarm.v343_7.20.0.1/os/win32/GNUARM/3.4.3/arm-elf/lib/thumb/soft/interwork/libc.a(s_isnan.o)
 .debug_abbrev  0x00008dda      0x1a1 C:/Program Files/Ingenico/IngeDev_722/plugins/com.ingenico.ingedev.telium.bin.win32.gnuarm.v343_7.20.0.1/os/win32/GNUARM/3.4.3/arm-elf/lib/thumb/soft/interwork/libc.a(sbrkr.o)
 .debug_abbrev  0x00008f7b      0x19b C:/Program Files/Ingenico/IngeDev_722/plugins/com.ingenico.ingedev.telium.bin.win32.gnuarm.v343_7.20.0.1/os/win32/GNUARM/3.4.3/arm-elf/lib/thumb/soft/interwork/libc.a(stdio.o)
 .debug_abbrev  0x00009116      0x19a C:/Program Files/Ingenico/IngeDev_722/plugins/com.ingenico.ingedev.telium.bin.win32.gnuarm.v343_7.20.0.1/os/win32/GNUARM/3.4.3/arm-elf/lib/thumb/soft/interwork/libc.a(writer.o)
 .debug_abbrev  0x000092b0      0x1b1 C:/Program Files/Ingenico/IngeDev_722/plugins/com.ingenico.ingedev.telium.bin.win32.gnuarm.v343_7.20.0.1/os/win32/GNUARM/3.4.3/arm-elf/lib/thumb/soft/interwork/libc.a(callocr.o)
 .debug_abbrev  0x00009461      0x195 C:/Program Files/Ingenico/IngeDev_722/plugins/com.ingenico.ingedev.telium.bin.win32.gnuarm.v343_7.20.0.1/os/win32/GNUARM/3.4.3/arm-elf/lib/thumb/soft/interwork/libc.a(closer.o)
 .debug_abbrev  0x000095f6      0x1a4 C:/Program Files/Ingenico/IngeDev_722/plugins/com.ingenico.ingedev.telium.bin.win32.gnuarm.v343_7.20.0.1/os/win32/GNUARM/3.4.3/arm-elf/lib/thumb/soft/interwork/libc.a(fstatr.o)
 .debug_abbrev  0x0000979a      0x1a4 C:/Program Files/Ingenico/IngeDev_722/plugins/com.ingenico.ingedev.telium.bin.win32.gnuarm.v343_7.20.0.1/os/win32/GNUARM/3.4.3/arm-elf/lib/thumb/soft/interwork/libc.a(lseekr.o)
 .debug_abbrev  0x0000993e      0x195 C:/Program Files/Ingenico/IngeDev_722/plugins/com.ingenico.ingedev.telium.bin.win32.gnuarm.v343_7.20.0.1/os/win32/GNUARM/3.4.3/arm-elf/lib/thumb/soft/interwork/libc.a(readr.o)
 .debug_abbrev  0x00009ad3      0x1c0 C:/Program Files/Ingenico/IngeDev_722/plugins/com.ingenico.ingedev.telium.bin.win32.gnuarm.v343_7.20.0.1/os/win32/GNUARM/3.4.3/arm-elf/lib/thumb/soft/interwork/libc.a(reent.o)
 .debug_abbrev  0x00009c93       0x14 C:/Program Files/Ingenico/IngeDev_722/plugins/com.ingenico.ingedev.telium.bin.win32.gnuarm.v343_7.20.0.1/os/win32/GNUARM/3.4.3/lib/gcc/arm-elf/3.4.3/thumb/soft/interwork/libgcc.a(_udivsi3.o)
 .debug_abbrev  0x00009ca7       0x14 C:/Program Files/Ingenico/IngeDev_722/plugins/com.ingenico.ingedev.telium.bin.win32.gnuarm.v343_7.20.0.1/os/win32/GNUARM/3.4.3/lib/gcc/arm-elf/3.4.3/thumb/soft/interwork/libgcc.a(_divsi3.o)
 .debug_abbrev  0x00009cbb       0x14 C:/Program Files/Ingenico/IngeDev_722/plugins/com.ingenico.ingedev.telium.bin.win32.gnuarm.v343_7.20.0.1/os/win32/GNUARM/3.4.3/lib/gcc/arm-elf/3.4.3/thumb/soft/interwork/libgcc.a(_umodsi3.o)
 .debug_abbrev  0x00009ccf       0x14 C:/Program Files/Ingenico/IngeDev_722/plugins/com.ingenico.ingedev.telium.bin.win32.gnuarm.v343_7.20.0.1/os/win32/GNUARM/3.4.3/lib/gcc/arm-elf/3.4.3/thumb/soft/interwork/libgcc.a(_modsi3.o)
 .debug_abbrev  0x00009ce3       0x14 C:/Program Files/Ingenico/IngeDev_722/plugins/com.ingenico.ingedev.telium.bin.win32.gnuarm.v343_7.20.0.1/os/win32/GNUARM/3.4.3/lib/gcc/arm-elf/3.4.3/thumb/soft/interwork/libgcc.a(_dvmd_tls.o)
 .debug_abbrev  0x00009cf7       0x14 C:/Program Files/Ingenico/IngeDev_722/plugins/com.ingenico.ingedev.telium.bin.win32.gnuarm.v343_7.20.0.1/os/win32/GNUARM/3.4.3/lib/gcc/arm-elf/3.4.3/thumb/soft/interwork/libgcc.a(_call_via_rX.o)
 .debug_abbrev  0x00009d0b       0x14 C:/Program Files/Ingenico/IngeDev_722/plugins/com.ingenico.ingedev.telium.bin.win32.gnuarm.v343_7.20.0.1/os/win32/GNUARM/3.4.3/lib/gcc/arm-elf/3.4.3/thumb/soft/interwork/libgcc.a(_addsubdf3.o)
 .debug_abbrev  0x00009d1f       0x14 C:/Program Files/Ingenico/IngeDev_722/plugins/com.ingenico.ingedev.telium.bin.win32.gnuarm.v343_7.20.0.1/os/win32/GNUARM/3.4.3/lib/gcc/arm-elf/3.4.3/thumb/soft/interwork/libgcc.a(_muldivdf3.o)
 .debug_abbrev  0x00009d33       0x14 C:/Program Files/Ingenico/IngeDev_722/plugins/com.ingenico.ingedev.telium.bin.win32.gnuarm.v343_7.20.0.1/os/win32/GNUARM/3.4.3/lib/gcc/arm-elf/3.4.3/thumb/soft/interwork/libgcc.a(_cmpdf2.o)
 .debug_abbrev  0x00009d47       0x14 C:/Program Files/Ingenico/IngeDev_722/plugins/com.ingenico.ingedev.telium.bin.win32.gnuarm.v343_7.20.0.1/os/win32/GNUARM/3.4.3/lib/gcc/arm-elf/3.4.3/thumb/soft/interwork/libgcc.a(_fixdfsi.o)
 .debug_abbrev  0x00009d5b       0xec C:/Program Files/Ingenico/IngeDev_722/plugins/com.ingenico.ingedev.telium.bin.win32.gnuarm.v343_7.20.0.1/os/win32/GNUARM/3.4.3/lib/gcc/arm-elf/3.4.3/thumb/soft/interwork/libgcc.a(_muldi3.o)
 .debug_abbrev  0x00009e47       0xee C:/Program Files/Ingenico/IngeDev_722/plugins/com.ingenico.ingedev.telium.bin.win32.gnuarm.v343_7.20.0.1/os/win32/GNUARM/3.4.3/lib/gcc/arm-elf/3.4.3/thumb/soft/interwork/libgcc.a(_lshrdi3.o)
 .debug_abbrev  0x00009f35       0xee C:/Program Files/Ingenico/IngeDev_722/plugins/com.ingenico.ingedev.telium.bin.win32.gnuarm.v343_7.20.0.1/os/win32/GNUARM/3.4.3/lib/gcc/arm-elf/3.4.3/thumb/soft/interwork/libgcc.a(_ashldi3.o)
 .debug_abbrev  0x0000a023      0x165 C:/Program Files/Ingenico/IngeDev_722/plugins/com.ingenico.ingedev.telium.bin.win32.gnuarm.v343_7.20.0.1/os/win32/GNUARM/3.4.3/lib/gcc/arm-elf/3.4.3/thumb/soft/interwork/libgcc.a(_udivdi3.o)
 .debug_abbrev  0x0000a188       0x61 C:/Program Files/Ingenico/IngeDev_722/plugins/com.ingenico.ingedev.telium.bin.win32.gnuarm.v343_7.20.0.1/os/win32/GNUARM/3.4.3/lib/gcc/arm-elf/3.4.3/thumb/soft/interwork/libgcc.a(_clz.o)

.debug_info     0x00000000    0x6159f
 .debug_info    0x00000000      0x17a Obj/RELEASE_T2/trc.o
 .debug_info    0x0000017a     0x1068 Obj/RELEASE_T2/tbx.o
 .debug_info    0x000011e2     0x16d7 Obj/RELEASE_T2/tlm.o
 .debug_info    0x000028b9      0xab0 Obj/RELEASE_T2/tlmhmi.o
 .debug_info    0x00003369      0xb04 Obj/RELEASE_T2/tlmmem.o
 .debug_info    0x00003e6d     0x11d2 Obj/RELEASE_T2/std.o
 .debug_info    0x0000503f      0x6be Obj/RELEASE_T2/fmt.o
 .debug_info    0x000056fd     0x2c11 Obj/RELEASE_T2/dba.o
 .debug_info    0x0000830e     0x1997 Obj/RELEASE_T2/drv.o
 .debug_info    0x00009ca5     0x11d4 Obj/RELEASE_T2/dlg.o
 .debug_info    0x0000ae79     0x3841 Obj/RELEASE_T2/Main.o
 .debug_info    0x0000e6ba     0x1f3d Obj/RELEASE_T2/sgm.o
 .debug_info    0x000105f7     0x37b7 Obj/RELEASE_T2/map.o
 .debug_info    0x00013dae     0x2169 Obj/RELEASE_T2/dft.o
 .debug_info    0x00015f17     0x2e62 Obj/RELEASE_T2/rpt.o
 .debug_info    0x00018d79      0x749 Obj/RELEASE_T2/scr.o
 .debug_info    0x000194c2      0x572 Obj/RELEASE_T2/str.o
 .debug_info    0x00019a34      0xe29 Obj/RELEASE_T2/hdl.o
 .debug_info    0x0001a85d      0xfef Obj/RELEASE_T2/val.o
 .debug_info    0x0001b84c     0x1e31 Obj/RELEASE_T2/adm.o
 .debug_info    0x0001d67d     0x1ee1 Obj/RELEASE_T2/emv.o
 .debug_info    0x0001f55e     0x1062 Obj/RELEASE_T2/function.o
 .debug_info    0x000205c0      0x110 Obj/RELEASE_T2/iso.o
 .debug_info    0x000206d0     0x2b5a Obj/RELEASE_T2/log.o
 .debug_info    0x0002322a      0x6af Obj/RELEASE_T2/onl.o
 .debug_info    0x000238d9     0x2006 Obj/RELEASE_T2/pmt.o
 .debug_info    0x000258df     0x1bcb Obj/RELEASE_T2/req.o
 .debug_info    0x000274aa      0x43a Obj/RELEASE_T2/rev.o
 .debug_info    0x000278e4     0x367c Obj/RELEASE_T2/rsp.o
 .debug_info    0x0002af60     0x1175 Obj/RELEASE_T2/tle.o
 .debug_info    0x0002c0d5      0x10c Obj/RELEASE_T2/cmm.o
 .debug_info    0x0002c1e1     0x22cd Obj/RELEASE_T2/tlmchn.o
 .debug_info    0x0002e4ae     0x12c1 Obj/RELEASE_T2/tlmcry.o
 .debug_info    0x0002f76f     0x1f30 Obj/RELEASE_T2/tlmemv.o
 .debug_info    0x0003169f      0x12c Obj/RELEASE_T2/tcan0020.o
 .debug_info    0x000317cb     0x7e4f Obj/RELEASE_T2/BRI.o
 .debug_info    0x0003961a     0x157c Obj/RELEASE_T2/LineEncryption.o
 .debug_info    0x0003ab96      0x66c Obj/RELEASE_T2/AES.o
 .debug_info    0x0003b202      0xdb3 Obj/RELEASE_T2/keyinject.o
 .debug_info    0x0003bfb5     0x314b Obj/RELEASE_T2/prepaid.o
 .debug_info    0x0003f100      0x650 Obj/RELEASE_T2/logon.o
 .debug_info    0x0003f750      0x1bb Obj/RELEASE_T2/rsagen.o
 .debug_info    0x0003f90b      0x6ff Obj/RELEASE_T2/prsa.o
 .debug_info    0x0004000a     0x2721 Obj/RELEASE_T2/bignum.o
 .debug_info    0x0004272b      0x3c7 Obj/RELEASE_T2/havege.o
 .debug_info    0x00042af2      0x166 Obj/RELEASE_T2/timing.o
 .debug_info    0x00042c58      0x21f libs/GNU_ARM_RELEASE/RSA.lib(RSA_dec.o)
 .debug_info    0x00042e77       0x5d libs/GNU_ARM_RELEASE/RSA.lib(RSA_init.o)
 .debug_info    0x00042ed4       0x96 libs/GNU_ARM_RELEASE/RSA.lib(m_add.o)
 .debug_info    0x00042f6a       0xa5 libs/GNU_ARM_RELEASE/RSA.lib(m_b2w.o)
 .debug_info    0x0004300f       0x6c libs/GNU_ARM_RELEASE/RSA.lib(m_clr.o)
 .debug_info    0x0004307b       0x84 libs/GNU_ARM_RELEASE/RSA.lib(m_cmp.o)
 .debug_info    0x000430ff       0x79 libs/GNU_ARM_RELEASE/RSA.lib(m_cpy.o)
 .debug_info    0x00043178      0x14a libs/GNU_ARM_RELEASE/RSA.lib(m_div.o)
 .debug_info    0x000432c2      0x128 libs/GNU_ARM_RELEASE/RSA.lib(m_mem.o)
 .debug_info    0x000433ea       0x86 libs/GNU_ARM_RELEASE/RSA.lib(m_modmul.o)
 .debug_info    0x00043470       0xeb libs/GNU_ARM_RELEASE/RSA.lib(m_monexp.o)
 .debug_info    0x0004355b       0x9b libs/GNU_ARM_RELEASE/RSA.lib(m_moninv.o)
 .debug_info    0x000435f6       0x93 libs/GNU_ARM_RELEASE/RSA.lib(m_monmul.o)
 .debug_info    0x00043689       0x9f libs/GNU_ARM_RELEASE/RSA.lib(m_msb.o)
 .debug_info    0x00043728       0xdd libs/GNU_ARM_RELEASE/RSA.lib(m_mul.o)
 .debug_info    0x00043805       0xa6 libs/GNU_ARM_RELEASE/RSA.lib(m_mulsub.o)
 .debug_info    0x000438ab       0xce libs/GNU_ARM_RELEASE/RSA.lib(m_rand.o)
 .debug_info    0x00043979       0xda libs/GNU_ARM_RELEASE/RSA.lib(m_red.o)
 .debug_info    0x00043a53       0xb2 libs/GNU_ARM_RELEASE/RSA.lib(m_shlx.o)
 .debug_info    0x00043b05       0xad libs/GNU_ARM_RELEASE/RSA.lib(m_shrx.o)
 .debug_info    0x00043bb2       0x9d libs/GNU_ARM_RELEASE/RSA.lib(m_sub.o)
 .debug_info    0x00043c4f       0x9d libs/GNU_ARM_RELEASE/RSA.lib(m_w2b.o)
 .debug_info    0x00043cec     0x169c C:/Program Files/SDK30/SDK 9.20.0.01/SDK/lib_gnu/IP_.lib(EthernetConfig.o)
 .debug_info    0x00045388      0x29c C:/Program Files/SDK30/SDK 9.20.0.01/SDK/lib_gnu/IP_.lib(Telium_IP_Host.o)
 .debug_info    0x00045624      0x294 C:/Program Files/SDK30/SDK 9.20.0.01/SDK/lib_gnu/IP_.lib(Telium_IP_Inet.o)
 .debug_info    0x000458b8      0x325 C:/Program Files/SDK30/SDK 9.20.0.01/SDK/lib_gnu/IP_.lib(Telium_IP_Socket.o)
 .debug_info    0x00045bdd      0x93f C:/Program Files/Ingenico/IngeDev_722/plugins/com.ingenico.ingedev.telium.bin.win32.gnuarm.v343_7.20.0.1/os/win32/GNUARM/3.4.3/arm-elf/lib/thumb/soft/interwork/libc.a(atoi.o)
 .debug_info    0x0004651c      0x93f C:/Program Files/Ingenico/IngeDev_722/plugins/com.ingenico.ingedev.telium.bin.win32.gnuarm.v343_7.20.0.1/os/win32/GNUARM/3.4.3/arm-elf/lib/thumb/soft/interwork/libc.a(atol.o)
 .debug_info    0x00046e5b      0x920 C:/Program Files/Ingenico/IngeDev_722/plugins/com.ingenico.ingedev.telium.bin.win32.gnuarm.v343_7.20.0.1/os/win32/GNUARM/3.4.3/arm-elf/lib/thumb/soft/interwork/libc.a(exit.o)
 .debug_info    0x0004777b      0x922 C:/Program Files/Ingenico/IngeDev_722/plugins/com.ingenico.ingedev.telium.bin.win32.gnuarm.v343_7.20.0.1/os/win32/GNUARM/3.4.3/arm-elf/lib/thumb/soft/interwork/libc.a(impure.o)
 .debug_info    0x0004809d       0xe2 C:/Program Files/Ingenico/IngeDev_722/plugins/com.ingenico.ingedev.telium.bin.win32.gnuarm.v343_7.20.0.1/os/win32/GNUARM/3.4.3/arm-elf/lib/thumb/soft/interwork/libc.a(memcmp.o)
 .debug_info    0x0004817f       0xc4 C:/Program Files/Ingenico/IngeDev_722/plugins/com.ingenico.ingedev.telium.bin.win32.gnuarm.v343_7.20.0.1/os/win32/GNUARM/3.4.3/arm-elf/lib/thumb/soft/interwork/libc.a(memcpy.o)
 .debug_info    0x00048243       0xf5 C:/Program Files/Ingenico/IngeDev_722/plugins/com.ingenico.ingedev.telium.bin.win32.gnuarm.v343_7.20.0.1/os/win32/GNUARM/3.4.3/arm-elf/lib/thumb/soft/interwork/libc.a(memmove.o)
 .debug_info    0x00048338       0xca C:/Program Files/Ingenico/IngeDev_722/plugins/com.ingenico.ingedev.telium.bin.win32.gnuarm.v343_7.20.0.1/os/win32/GNUARM/3.4.3/arm-elf/lib/thumb/soft/interwork/libc.a(memset.o)
 .debug_info    0x00048402      0x932 C:/Program Files/Ingenico/IngeDev_722/plugins/com.ingenico.ingedev.telium.bin.win32.gnuarm.v343_7.20.0.1/os/win32/GNUARM/3.4.3/arm-elf/lib/thumb/soft/interwork/libc.a(rand.o)
 .debug_info    0x00048d34      0xa03 C:/Program Files/Ingenico/IngeDev_722/plugins/com.ingenico.ingedev.telium.bin.win32.gnuarm.v343_7.20.0.1/os/win32/GNUARM/3.4.3/arm-elf/lib/thumb/soft/interwork/libc.a(snprintf.o)
 .debug_info    0x00049737      0x12f C:/Program Files/Ingenico/IngeDev_722/plugins/com.ingenico.ingedev.telium.bin.win32.gnuarm.v343_7.20.0.1/os/win32/GNUARM/3.4.3/arm-elf/lib/thumb/soft/interwork/libc.a(strcasecmp.o)
 .debug_info    0x00049866       0xbf C:/Program Files/Ingenico/IngeDev_722/plugins/com.ingenico.ingedev.telium.bin.win32.gnuarm.v343_7.20.0.1/os/win32/GNUARM/3.4.3/arm-elf/lib/thumb/soft/interwork/libc.a(strcat.o)
 .debug_info    0x00049925       0xd8 C:/Program Files/Ingenico/IngeDev_722/plugins/com.ingenico.ingedev.telium.bin.win32.gnuarm.v343_7.20.0.1/os/win32/GNUARM/3.4.3/arm-elf/lib/thumb/soft/interwork/libc.a(strchr.o)
 .debug_info    0x000499fd       0xae C:/Program Files/Ingenico/IngeDev_722/plugins/com.ingenico.ingedev.telium.bin.win32.gnuarm.v343_7.20.0.1/os/win32/GNUARM/3.4.3/arm-elf/lib/thumb/soft/interwork/libc.a(strcmp.o)
 .debug_info    0x00049aab       0xc1 C:/Program Files/Ingenico/IngeDev_722/plugins/com.ingenico.ingedev.telium.bin.win32.gnuarm.v343_7.20.0.1/os/win32/GNUARM/3.4.3/arm-elf/lib/thumb/soft/interwork/libc.a(strcpy.o)
 .debug_info    0x00049b6c       0xbb C:/Program Files/Ingenico/IngeDev_722/plugins/com.ingenico.ingedev.telium.bin.win32.gnuarm.v343_7.20.0.1/os/win32/GNUARM/3.4.3/arm-elf/lib/thumb/soft/interwork/libc.a(strlen.o)
 .debug_info    0x00049c27       0xe8 C:/Program Files/Ingenico/IngeDev_722/plugins/com.ingenico.ingedev.telium.bin.win32.gnuarm.v343_7.20.0.1/os/win32/GNUARM/3.4.3/arm-elf/lib/thumb/soft/interwork/libc.a(strncpy.o)
 .debug_info    0x00049d0f       0xd6 C:/Program Files/Ingenico/IngeDev_722/plugins/com.ingenico.ingedev.telium.bin.win32.gnuarm.v343_7.20.0.1/os/win32/GNUARM/3.4.3/arm-elf/lib/thumb/soft/interwork/libc.a(strstr.o)
 .debug_info    0x00049de5      0xa06 C:/Program Files/Ingenico/IngeDev_722/plugins/com.ingenico.ingedev.telium.bin.win32.gnuarm.v343_7.20.0.1/os/win32/GNUARM/3.4.3/arm-elf/lib/thumb/soft/interwork/libc.a(strtol.o)
 .debug_info    0x0004a7eb      0xa05 C:/Program Files/Ingenico/IngeDev_722/plugins/com.ingenico.ingedev.telium.bin.win32.gnuarm.v343_7.20.0.1/os/win32/GNUARM/3.4.3/arm-elf/lib/thumb/soft/interwork/libc.a(strtoul.o)
 .debug_info    0x0004b1f0     0x155f C:/Program Files/Ingenico/IngeDev_722/plugins/com.ingenico.ingedev.telium.bin.win32.gnuarm.v343_7.20.0.1/os/win32/GNUARM/3.4.3/arm-elf/lib/thumb/soft/interwork/libc.a(syscalls.o)
 .debug_info    0x0004c74f     0x10d5 C:/Program Files/Ingenico/IngeDev_722/plugins/com.ingenico.ingedev.telium.bin.win32.gnuarm.v343_7.20.0.1/os/win32/GNUARM/3.4.3/arm-elf/lib/thumb/soft/interwork/libc.a(vfprintf.o)
 .debug_info    0x0004d824      0x9d4 C:/Program Files/Ingenico/IngeDev_722/plugins/com.ingenico.ingedev.telium.bin.win32.gnuarm.v343_7.20.0.1/os/win32/GNUARM/3.4.3/arm-elf/lib/thumb/soft/interwork/libc.a(wcrtomb.o)
 .debug_info    0x0004e1f8      0xa63 C:/Program Files/Ingenico/IngeDev_722/plugins/com.ingenico.ingedev.telium.bin.win32.gnuarm.v343_7.20.0.1/os/win32/GNUARM/3.4.3/arm-elf/lib/thumb/soft/interwork/libc.a(wcsrtombs.o)
 .debug_info    0x0004ec5b      0x9ef C:/Program Files/Ingenico/IngeDev_722/plugins/com.ingenico.ingedev.telium.bin.win32.gnuarm.v343_7.20.0.1/os/win32/GNUARM/3.4.3/arm-elf/lib/thumb/soft/interwork/libc.a(wctomb_r.o)
 .debug_info    0x0004f64a      0x92f C:/Program Files/Ingenico/IngeDev_722/plugins/com.ingenico.ingedev.telium.bin.win32.gnuarm.v343_7.20.0.1/os/win32/GNUARM/3.4.3/arm-elf/lib/thumb/soft/interwork/libc.a(wsetup.o)
 .debug_info    0x0004ff79      0x981 C:/Program Files/Ingenico/IngeDev_722/plugins/com.ingenico.ingedev.telium.bin.win32.gnuarm.v343_7.20.0.1/os/win32/GNUARM/3.4.3/arm-elf/lib/thumb/soft/interwork/libc.a(__call_atexit.o)
 .debug_info    0x000508fa       0x79 C:/Program Files/Ingenico/IngeDev_722/plugins/com.ingenico.ingedev.telium.bin.win32.gnuarm.v343_7.20.0.1/os/win32/GNUARM/3.4.3/arm-elf/lib/thumb/soft/interwork/libc.a(ctype_.o)
 .debug_info    0x00050973      0xd3b C:/Program Files/Ingenico/IngeDev_722/plugins/com.ingenico.ingedev.telium.bin.win32.gnuarm.v343_7.20.0.1/os/win32/GNUARM/3.4.3/arm-elf/lib/thumb/soft/interwork/libc.a(dtoa.o)
 .debug_info    0x000516ae      0x913 C:/Program Files/Ingenico/IngeDev_722/plugins/com.ingenico.ingedev.telium.bin.win32.gnuarm.v343_7.20.0.1/os/win32/GNUARM/3.4.3/arm-elf/lib/thumb/soft/interwork/libc.a(errno.o)
 .debug_info    0x00051fc1      0x963 C:/Program Files/Ingenico/IngeDev_722/plugins/com.ingenico.ingedev.telium.bin.win32.gnuarm.v343_7.20.0.1/os/win32/GNUARM/3.4.3/arm-elf/lib/thumb/soft/interwork/libc.a(fflush.o)
 .debug_info    0x00052924      0xb04 C:/Program Files/Ingenico/IngeDev_722/plugins/com.ingenico.ingedev.telium.bin.win32.gnuarm.v343_7.20.0.1/os/win32/GNUARM/3.4.3/arm-elf/lib/thumb/soft/interwork/libc.a(findfp.o)
 .debug_info    0x00053428      0xb8f C:/Program Files/Ingenico/IngeDev_722/plugins/com.ingenico.ingedev.telium.bin.win32.gnuarm.v343_7.20.0.1/os/win32/GNUARM/3.4.3/arm-elf/lib/thumb/soft/interwork/libc.a(freer.o)
 .debug_info    0x00053fb7      0xa4a C:/Program Files/Ingenico/IngeDev_722/plugins/com.ingenico.ingedev.telium.bin.win32.gnuarm.v343_7.20.0.1/os/win32/GNUARM/3.4.3/arm-elf/lib/thumb/soft/interwork/libc.a(fvwrite.o)
 .debug_info    0x00054a01      0xac5 C:/Program Files/Ingenico/IngeDev_722/plugins/com.ingenico.ingedev.telium.bin.win32.gnuarm.v343_7.20.0.1/os/win32/GNUARM/3.4.3/arm-elf/lib/thumb/soft/interwork/libc.a(fwalk.o)
 .debug_info    0x000554c6      0xb6b C:/Program Files/Ingenico/IngeDev_722/plugins/com.ingenico.ingedev.telium.bin.win32.gnuarm.v343_7.20.0.1/os/win32/GNUARM/3.4.3/arm-elf/lib/thumb/soft/interwork/libc.a(locale.o)
 .debug_info    0x00056031      0xacb C:/Program Files/Ingenico/IngeDev_722/plugins/com.ingenico.ingedev.telium.bin.win32.gnuarm.v343_7.20.0.1/os/win32/GNUARM/3.4.3/arm-elf/lib/thumb/soft/interwork/libc.a(makebuf.o)
 .debug_info    0x00056afc      0x94f C:/Program Files/Ingenico/IngeDev_722/plugins/com.ingenico.ingedev.telium.bin.win32.gnuarm.v343_7.20.0.1/os/win32/GNUARM/3.4.3/arm-elf/lib/thumb/soft/interwork/libc.a(malloc.o)
 .debug_info    0x0005744b      0xc98 C:/Program Files/Ingenico/IngeDev_722/plugins/com.ingenico.ingedev.telium.bin.win32.gnuarm.v343_7.20.0.1/os/win32/GNUARM/3.4.3/arm-elf/lib/thumb/soft/interwork/libc.a(mallocr.o)
 .debug_info    0x000580e3       0xe0 C:/Program Files/Ingenico/IngeDev_722/plugins/com.ingenico.ingedev.telium.bin.win32.gnuarm.v343_7.20.0.1/os/win32/GNUARM/3.4.3/arm-elf/lib/thumb/soft/interwork/libc.a(memchr.o)
 .debug_info    0x000581c3      0x93c C:/Program Files/Ingenico/IngeDev_722/plugins/com.ingenico.ingedev.telium.bin.win32.gnuarm.v343_7.20.0.1/os/win32/GNUARM/3.4.3/arm-elf/lib/thumb/soft/interwork/libc.a(mlock.o)
 .debug_info    0x00058aff     0x126e C:/Program Files/Ingenico/IngeDev_722/plugins/com.ingenico.ingedev.telium.bin.win32.gnuarm.v343_7.20.0.1/os/win32/GNUARM/3.4.3/arm-elf/lib/thumb/soft/interwork/libc.a(mprec.o)
 .debug_info    0x00059d6d      0xb5c C:/Program Files/Ingenico/IngeDev_722/plugins/com.ingenico.ingedev.telium.bin.win32.gnuarm.v343_7.20.0.1/os/win32/GNUARM/3.4.3/arm-elf/lib/thumb/soft/interwork/libc.a(reallocr.o)
 .debug_info    0x0005a8c9      0x147 C:/Program Files/Ingenico/IngeDev_722/plugins/com.ingenico.ingedev.telium.bin.win32.gnuarm.v343_7.20.0.1/os/win32/GNUARM/3.4.3/arm-elf/lib/thumb/soft/interwork/libc.a(s_isinf.o)
 .debug_info    0x0005aa10      0x147 C:/Program Files/Ingenico/IngeDev_722/plugins/com.ingenico.ingedev.telium.bin.win32.gnuarm.v343_7.20.0.1/os/win32/GNUARM/3.4.3/arm-elf/lib/thumb/soft/interwork/libc.a(s_isnan.o)
 .debug_info    0x0005ab57      0x957 C:/Program Files/Ingenico/IngeDev_722/plugins/com.ingenico.ingedev.telium.bin.win32.gnuarm.v343_7.20.0.1/os/win32/GNUARM/3.4.3/arm-elf/lib/thumb/soft/interwork/libc.a(sbrkr.o)
 .debug_info    0x0005b4ae      0xa4b C:/Program Files/Ingenico/IngeDev_722/plugins/com.ingenico.ingedev.telium.bin.win32.gnuarm.v343_7.20.0.1/os/win32/GNUARM/3.4.3/arm-elf/lib/thumb/soft/interwork/libc.a(stdio.o)
 .debug_info    0x0005bef9      0x97d C:/Program Files/Ingenico/IngeDev_722/plugins/com.ingenico.ingedev.telium.bin.win32.gnuarm.v343_7.20.0.1/os/win32/GNUARM/3.4.3/arm-elf/lib/thumb/soft/interwork/libc.a(writer.o)
 .debug_info    0x0005c876      0x9f8 C:/Program Files/Ingenico/IngeDev_722/plugins/com.ingenico.ingedev.telium.bin.win32.gnuarm.v343_7.20.0.1/os/win32/GNUARM/3.4.3/arm-elf/lib/thumb/soft/interwork/libc.a(callocr.o)
 .debug_info    0x0005d26e      0x946 C:/Program Files/Ingenico/IngeDev_722/plugins/com.ingenico.ingedev.telium.bin.win32.gnuarm.v343_7.20.0.1/os/win32/GNUARM/3.4.3/arm-elf/lib/thumb/soft/interwork/libc.a(closer.o)
 .debug_info    0x0005dbb4      0xabc C:/Program Files/Ingenico/IngeDev_722/plugins/com.ingenico.ingedev.telium.bin.win32.gnuarm.v343_7.20.0.1/os/win32/GNUARM/3.4.3/arm-elf/lib/thumb/soft/interwork/libc.a(fstatr.o)
 .debug_info    0x0005e670      0x96b C:/Program Files/Ingenico/IngeDev_722/plugins/com.ingenico.ingedev.telium.bin.win32.gnuarm.v343_7.20.0.1/os/win32/GNUARM/3.4.3/arm-elf/lib/thumb/soft/interwork/libc.a(lseekr.o)
 .debug_info    0x0005efdb      0x976 C:/Program Files/Ingenico/IngeDev_722/plugins/com.ingenico.ingedev.telium.bin.win32.gnuarm.v343_7.20.0.1/os/win32/GNUARM/3.4.3/arm-elf/lib/thumb/soft/interwork/libc.a(readr.o)
 .debug_info    0x0005f951      0x9f7 C:/Program Files/Ingenico/IngeDev_722/plugins/com.ingenico.ingedev.telium.bin.win32.gnuarm.v343_7.20.0.1/os/win32/GNUARM/3.4.3/arm-elf/lib/thumb/soft/interwork/libc.a(reent.o)
 .debug_info    0x00060348       0x97 C:/Program Files/Ingenico/IngeDev_722/plugins/com.ingenico.ingedev.telium.bin.win32.gnuarm.v343_7.20.0.1/os/win32/GNUARM/3.4.3/lib/gcc/arm-elf/3.4.3/thumb/soft/interwork/libgcc.a(_udivsi3.o)
 .debug_info    0x000603df       0x97 C:/Program Files/Ingenico/IngeDev_722/plugins/com.ingenico.ingedev.telium.bin.win32.gnuarm.v343_7.20.0.1/os/win32/GNUARM/3.4.3/lib/gcc/arm-elf/3.4.3/thumb/soft/interwork/libgcc.a(_divsi3.o)
 .debug_info    0x00060476       0x97 C:/Program Files/Ingenico/IngeDev_722/plugins/com.ingenico.ingedev.telium.bin.win32.gnuarm.v343_7.20.0.1/os/win32/GNUARM/3.4.3/lib/gcc/arm-elf/3.4.3/thumb/soft/interwork/libgcc.a(_umodsi3.o)
 .debug_info    0x0006050d       0x97 C:/Program Files/Ingenico/IngeDev_722/plugins/com.ingenico.ingedev.telium.bin.win32.gnuarm.v343_7.20.0.1/os/win32/GNUARM/3.4.3/lib/gcc/arm-elf/3.4.3/thumb/soft/interwork/libgcc.a(_modsi3.o)
 .debug_info    0x000605a4       0x97 C:/Program Files/Ingenico/IngeDev_722/plugins/com.ingenico.ingedev.telium.bin.win32.gnuarm.v343_7.20.0.1/os/win32/GNUARM/3.4.3/lib/gcc/arm-elf/3.4.3/thumb/soft/interwork/libgcc.a(_dvmd_tls.o)
 .debug_info    0x0006063b       0x97 C:/Program Files/Ingenico/IngeDev_722/plugins/com.ingenico.ingedev.telium.bin.win32.gnuarm.v343_7.20.0.1/os/win32/GNUARM/3.4.3/lib/gcc/arm-elf/3.4.3/thumb/soft/interwork/libgcc.a(_call_via_rX.o)
 .debug_info    0x000606d2       0x96 C:/Program Files/Ingenico/IngeDev_722/plugins/com.ingenico.ingedev.telium.bin.win32.gnuarm.v343_7.20.0.1/os/win32/GNUARM/3.4.3/lib/gcc/arm-elf/3.4.3/thumb/soft/interwork/libgcc.a(_addsubdf3.o)
 .debug_info    0x00060768       0x96 C:/Program Files/Ingenico/IngeDev_722/plugins/com.ingenico.ingedev.telium.bin.win32.gnuarm.v343_7.20.0.1/os/win32/GNUARM/3.4.3/lib/gcc/arm-elf/3.4.3/thumb/soft/interwork/libgcc.a(_muldivdf3.o)
 .debug_info    0x000607fe       0x96 C:/Program Files/Ingenico/IngeDev_722/plugins/com.ingenico.ingedev.telium.bin.win32.gnuarm.v343_7.20.0.1/os/win32/GNUARM/3.4.3/lib/gcc/arm-elf/3.4.3/thumb/soft/interwork/libgcc.a(_cmpdf2.o)
 .debug_info    0x00060894       0x96 C:/Program Files/Ingenico/IngeDev_722/plugins/com.ingenico.ingedev.telium.bin.win32.gnuarm.v343_7.20.0.1/os/win32/GNUARM/3.4.3/lib/gcc/arm-elf/3.4.3/thumb/soft/interwork/libgcc.a(_fixdfsi.o)
 .debug_info    0x0006092a      0x1eb C:/Program Files/Ingenico/IngeDev_722/plugins/com.ingenico.ingedev.telium.bin.win32.gnuarm.v343_7.20.0.1/os/win32/GNUARM/3.4.3/lib/gcc/arm-elf/3.4.3/thumb/soft/interwork/libgcc.a(_muldi3.o)
 .debug_info    0x00060b15      0x18e C:/Program Files/Ingenico/IngeDev_722/plugins/com.ingenico.ingedev.telium.bin.win32.gnuarm.v343_7.20.0.1/os/win32/GNUARM/3.4.3/lib/gcc/arm-elf/3.4.3/thumb/soft/interwork/libgcc.a(_lshrdi3.o)
 .debug_info    0x00060ca3      0x18e C:/Program Files/Ingenico/IngeDev_722/plugins/com.ingenico.ingedev.telium.bin.win32.gnuarm.v343_7.20.0.1/os/win32/GNUARM/3.4.3/lib/gcc/arm-elf/3.4.3/thumb/soft/interwork/libgcc.a(_ashldi3.o)
 .debug_info    0x00060e31      0x6ae C:/Program Files/Ingenico/IngeDev_722/plugins/com.ingenico.ingedev.telium.bin.win32.gnuarm.v343_7.20.0.1/os/win32/GNUARM/3.4.3/lib/gcc/arm-elf/3.4.3/thumb/soft/interwork/libgcc.a(_udivdi3.o)
 .debug_info    0x000614df       0xc0 C:/Program Files/Ingenico/IngeDev_722/plugins/com.ingenico.ingedev.telium.bin.win32.gnuarm.v343_7.20.0.1/os/win32/GNUARM/3.4.3/lib/gcc/arm-elf/3.4.3/thumb/soft/interwork/libgcc.a(_clz.o)

.debug_line     0x00000000    0x136e7
 .debug_line    0x00000000       0x83 Obj/RELEASE_T2/trc.o
 .debug_line    0x00000083      0x21f Obj/RELEASE_T2/tbx.o
 .debug_line    0x000002a2      0x354 Obj/RELEASE_T2/tlm.o
 .debug_line    0x000005f6      0x1d3 Obj/RELEASE_T2/tlmhmi.o
 .debug_line    0x000007c9      0x193 Obj/RELEASE_T2/tlmmem.o
 .debug_line    0x0000095c      0x293 Obj/RELEASE_T2/std.o
 .debug_line    0x00000bef      0x171 Obj/RELEASE_T2/fmt.o
 .debug_line    0x00000d60      0x5b2 Obj/RELEASE_T2/dba.o
 .debug_line    0x00001312      0x2f0 Obj/RELEASE_T2/drv.o
 .debug_line    0x00001602      0x463 Obj/RELEASE_T2/dlg.o
 .debug_line    0x00001a65      0x1ff Obj/RELEASE_T2/Main.o
 .debug_line    0x00001c64      0x2a4 Obj/RELEASE_T2/sgm.o
 .debug_line    0x00001f08      0x3d7 Obj/RELEASE_T2/map.o
 .debug_line    0x000022df      0x48a Obj/RELEASE_T2/dft.o
 .debug_line    0x00002769      0x176 Obj/RELEASE_T2/rpt.o
 .debug_line    0x000028df      0x191 Obj/RELEASE_T2/scr.o
 .debug_line    0x00002a70      0x168 Obj/RELEASE_T2/str.o
 .debug_line    0x00002bd8      0x3e5 Obj/RELEASE_T2/hdl.o
 .debug_line    0x00002fbd      0x2a5 Obj/RELEASE_T2/val.o
 .debug_line    0x00003262      0x6dc Obj/RELEASE_T2/adm.o
 .debug_line    0x0000393e      0x555 Obj/RELEASE_T2/emv.o
 .debug_line    0x00003e93      0x4f1 Obj/RELEASE_T2/function.o
 .debug_line    0x00004384       0x7a Obj/RELEASE_T2/iso.o
 .debug_line    0x000043fe      0xdb9 Obj/RELEASE_T2/log.o
 .debug_line    0x000051b7      0x18d Obj/RELEASE_T2/onl.o
 .debug_line    0x00005344      0xbe8 Obj/RELEASE_T2/pmt.o
 .debug_line    0x00005f2c      0x649 Obj/RELEASE_T2/req.o
 .debug_line    0x00006575       0xbf Obj/RELEASE_T2/rev.o
 .debug_line    0x00006634      0x6fa Obj/RELEASE_T2/rsp.o
 .debug_line    0x00006d2e      0x46d Obj/RELEASE_T2/tle.o
 .debug_line    0x0000719b       0x1a Obj/RELEASE_T2/cmm.o
 .debug_line    0x000071b5      0x59e Obj/RELEASE_T2/tlmchn.o
 .debug_line    0x00007753      0x2a0 Obj/RELEASE_T2/tlmcry.o
 .debug_line    0x000079f3      0x515 Obj/RELEASE_T2/tlmemv.o
 .debug_line    0x00007f08       0x4c Obj/RELEASE_T2/tcan0020.o
 .debug_line    0x00007f54     0x3020 Obj/RELEASE_T2/BRI.o
 .debug_line    0x0000af74      0x31c Obj/RELEASE_T2/LineEncryption.o
 .debug_line    0x0000b290      0x13b Obj/RELEASE_T2/AES.o
 .debug_line    0x0000b3cb      0x22d Obj/RELEASE_T2/keyinject.o
 .debug_line    0x0000b5f8      0xa5c Obj/RELEASE_T2/prepaid.o
 .debug_line    0x0000c054      0x143 Obj/RELEASE_T2/logon.o
 .debug_line    0x0000c197       0x46 Obj/RELEASE_T2/rsagen.o
 .debug_line    0x0000c1dd      0x191 Obj/RELEASE_T2/prsa.o
 .debug_line    0x0000c36e      0x6d5 Obj/RELEASE_T2/bignum.o
 .debug_line    0x0000ca43       0x7b Obj/RELEASE_T2/havege.o
 .debug_line    0x0000cabe       0x49 Obj/RELEASE_T2/timing.o
 .debug_line    0x0000cb07       0xd6 libs/GNU_ARM_RELEASE/RSA.lib(RSA_dec.o)
 .debug_line    0x0000cbdd       0x77 libs/GNU_ARM_RELEASE/RSA.lib(RSA_init.o)
 .debug_line    0x0000cc54       0x84 libs/GNU_ARM_RELEASE/RSA.lib(m_add.o)
 .debug_line    0x0000ccd8       0x7f libs/GNU_ARM_RELEASE/RSA.lib(m_b2w.o)
 .debug_line    0x0000cd57       0x73 libs/GNU_ARM_RELEASE/RSA.lib(m_clr.o)
 .debug_line    0x0000cdca       0x83 libs/GNU_ARM_RELEASE/RSA.lib(m_cmp.o)
 .debug_line    0x0000ce4d       0x79 libs/GNU_ARM_RELEASE/RSA.lib(m_cpy.o)
 .debug_line    0x0000cec6       0xa8 libs/GNU_ARM_RELEASE/RSA.lib(m_div.o)
 .debug_line    0x0000cf6e       0x98 libs/GNU_ARM_RELEASE/RSA.lib(m_mem.o)
 .debug_line    0x0000d006       0x77 libs/GNU_ARM_RELEASE/RSA.lib(m_modmul.o)
 .debug_line    0x0000d07d       0x9c libs/GNU_ARM_RELEASE/RSA.lib(m_monexp.o)
 .debug_line    0x0000d119       0x87 libs/GNU_ARM_RELEASE/RSA.lib(m_moninv.o)
 .debug_line    0x0000d1a0       0x77 libs/GNU_ARM_RELEASE/RSA.lib(m_monmul.o)
 .debug_line    0x0000d217       0x87 libs/GNU_ARM_RELEASE/RSA.lib(m_msb.o)
 .debug_line    0x0000d29e       0x9f libs/GNU_ARM_RELEASE/RSA.lib(m_mul.o)
 .debug_line    0x0000d33d       0x8e libs/GNU_ARM_RELEASE/RSA.lib(m_mulsub.o)
 .debug_line    0x0000d3cb       0x8e libs/GNU_ARM_RELEASE/RSA.lib(m_rand.o)
 .debug_line    0x0000d459       0x9b libs/GNU_ARM_RELEASE/RSA.lib(m_red.o)
 .debug_line    0x0000d4f4       0x86 libs/GNU_ARM_RELEASE/RSA.lib(m_shlx.o)
 .debug_line    0x0000d57a       0x8c libs/GNU_ARM_RELEASE/RSA.lib(m_shrx.o)
 .debug_line    0x0000d606       0x84 libs/GNU_ARM_RELEASE/RSA.lib(m_sub.o)
 .debug_line    0x0000d68a       0x78 libs/GNU_ARM_RELEASE/RSA.lib(m_w2b.o)
 .debug_line    0x0000d702      0x474 C:/Program Files/SDK30/SDK 9.20.0.01/SDK/lib_gnu/IP_.lib(EthernetConfig.o)
 .debug_line    0x0000db76       0xcb C:/Program Files/SDK30/SDK 9.20.0.01/SDK/lib_gnu/IP_.lib(Telium_IP_Host.o)
 .debug_line    0x0000dc41       0xd1 C:/Program Files/SDK30/SDK 9.20.0.01/SDK/lib_gnu/IP_.lib(Telium_IP_Inet.o)
 .debug_line    0x0000dd12       0xce C:/Program Files/SDK30/SDK 9.20.0.01/SDK/lib_gnu/IP_.lib(Telium_IP_Socket.o)
 .debug_line    0x0000dde0       0x1a C:/Program Files/SDK30/SDK 9.20.0.01/SDK/lib_gnu/IP_.lib(PackIP_Internal.o)
 .debug_line    0x0000ddfa      0x143 C:/Program Files/Ingenico/IngeDev_722/plugins/com.ingenico.ingedev.telium.bin.win32.gnuarm.v343_7.20.0.1/os/win32/GNUARM/3.4.3/arm-elf/lib/thumb/soft/interwork/libc.a(atoi.o)
 .debug_line    0x0000df3d      0x142 C:/Program Files/Ingenico/IngeDev_722/plugins/com.ingenico.ingedev.telium.bin.win32.gnuarm.v343_7.20.0.1/os/win32/GNUARM/3.4.3/arm-elf/lib/thumb/soft/interwork/libc.a(atol.o)
 .debug_line    0x0000e07f      0x143 C:/Program Files/Ingenico/IngeDev_722/plugins/com.ingenico.ingedev.telium.bin.win32.gnuarm.v343_7.20.0.1/os/win32/GNUARM/3.4.3/arm-elf/lib/thumb/soft/interwork/libc.a(exit.o)
 .debug_line    0x0000e1c2      0x12f C:/Program Files/Ingenico/IngeDev_722/plugins/com.ingenico.ingedev.telium.bin.win32.gnuarm.v343_7.20.0.1/os/win32/GNUARM/3.4.3/arm-elf/lib/thumb/soft/interwork/libc.a(impure.o)
 .debug_line    0x0000e2f1       0xd9 C:/Program Files/Ingenico/IngeDev_722/plugins/com.ingenico.ingedev.telium.bin.win32.gnuarm.v343_7.20.0.1/os/win32/GNUARM/3.4.3/arm-elf/lib/thumb/soft/interwork/libc.a(memcmp.o)
 .debug_line    0x0000e3ca       0xd4 C:/Program Files/Ingenico/IngeDev_722/plugins/com.ingenico.ingedev.telium.bin.win32.gnuarm.v343_7.20.0.1/os/win32/GNUARM/3.4.3/arm-elf/lib/thumb/soft/interwork/libc.a(memcpy.o)
 .debug_line    0x0000e49e       0xd7 C:/Program Files/Ingenico/IngeDev_722/plugins/com.ingenico.ingedev.telium.bin.win32.gnuarm.v343_7.20.0.1/os/win32/GNUARM/3.4.3/arm-elf/lib/thumb/soft/interwork/libc.a(memmove.o)
 .debug_line    0x0000e575       0xd2 C:/Program Files/Ingenico/IngeDev_722/plugins/com.ingenico.ingedev.telium.bin.win32.gnuarm.v343_7.20.0.1/os/win32/GNUARM/3.4.3/arm-elf/lib/thumb/soft/interwork/libc.a(memset.o)
 .debug_line    0x0000e647      0x143 C:/Program Files/Ingenico/IngeDev_722/plugins/com.ingenico.ingedev.telium.bin.win32.gnuarm.v343_7.20.0.1/os/win32/GNUARM/3.4.3/arm-elf/lib/thumb/soft/interwork/libc.a(rand.o)
 .debug_line    0x0000e78a      0x1b7 C:/Program Files/Ingenico/IngeDev_722/plugins/com.ingenico.ingedev.telium.bin.win32.gnuarm.v343_7.20.0.1/os/win32/GNUARM/3.4.3/arm-elf/lib/thumb/soft/interwork/libc.a(snprintf.o)
 .debug_line    0x0000e941       0xd8 C:/Program Files/Ingenico/IngeDev_722/plugins/com.ingenico.ingedev.telium.bin.win32.gnuarm.v343_7.20.0.1/os/win32/GNUARM/3.4.3/arm-elf/lib/thumb/soft/interwork/libc.a(strcasecmp.o)
 .debug_line    0x0000ea19       0x7d C:/Program Files/Ingenico/IngeDev_722/plugins/com.ingenico.ingedev.telium.bin.win32.gnuarm.v343_7.20.0.1/os/win32/GNUARM/3.4.3/arm-elf/lib/thumb/soft/interwork/libc.a(strcat.o)
 .debug_line    0x0000ea96       0x7c C:/Program Files/Ingenico/IngeDev_722/plugins/com.ingenico.ingedev.telium.bin.win32.gnuarm.v343_7.20.0.1/os/win32/GNUARM/3.4.3/arm-elf/lib/thumb/soft/interwork/libc.a(strchr.o)
 .debug_line    0x0000eb12       0x7c C:/Program Files/Ingenico/IngeDev_722/plugins/com.ingenico.ingedev.telium.bin.win32.gnuarm.v343_7.20.0.1/os/win32/GNUARM/3.4.3/arm-elf/lib/thumb/soft/interwork/libc.a(strcmp.o)
 .debug_line    0x0000eb8e       0x7a C:/Program Files/Ingenico/IngeDev_722/plugins/com.ingenico.ingedev.telium.bin.win32.gnuarm.v343_7.20.0.1/os/win32/GNUARM/3.4.3/arm-elf/lib/thumb/soft/interwork/libc.a(strcpy.o)
 .debug_line    0x0000ec08       0xd2 C:/Program Files/Ingenico/IngeDev_722/plugins/com.ingenico.ingedev.telium.bin.win32.gnuarm.v343_7.20.0.1/os/win32/GNUARM/3.4.3/arm-elf/lib/thumb/soft/interwork/libc.a(strlen.o)
 .debug_line    0x0000ecda       0xdb C:/Program Files/Ingenico/IngeDev_722/plugins/com.ingenico.ingedev.telium.bin.win32.gnuarm.v343_7.20.0.1/os/win32/GNUARM/3.4.3/arm-elf/lib/thumb/soft/interwork/libc.a(strncpy.o)
 .debug_line    0x0000edb5       0xd8 C:/Program Files/Ingenico/IngeDev_722/plugins/com.ingenico.ingedev.telium.bin.win32.gnuarm.v343_7.20.0.1/os/win32/GNUARM/3.4.3/arm-elf/lib/thumb/soft/interwork/libc.a(strstr.o)
 .debug_line    0x0000ee8d      0x1d4 C:/Program Files/Ingenico/IngeDev_722/plugins/com.ingenico.ingedev.telium.bin.win32.gnuarm.v343_7.20.0.1/os/win32/GNUARM/3.4.3/arm-elf/lib/thumb/soft/interwork/libc.a(strtol.o)
 .debug_line    0x0000f061      0x1d2 C:/Program Files/Ingenico/IngeDev_722/plugins/com.ingenico.ingedev.telium.bin.win32.gnuarm.v343_7.20.0.1/os/win32/GNUARM/3.4.3/arm-elf/lib/thumb/soft/interwork/libc.a(strtoul.o)
 .debug_line    0x0000f233      0x2de C:/Program Files/Ingenico/IngeDev_722/plugins/com.ingenico.ingedev.telium.bin.win32.gnuarm.v343_7.20.0.1/os/win32/GNUARM/3.4.3/arm-elf/lib/thumb/soft/interwork/libc.a(syscalls.o)
 .debug_line    0x0000f511      0x43d C:/Program Files/Ingenico/IngeDev_722/plugins/com.ingenico.ingedev.telium.bin.win32.gnuarm.v343_7.20.0.1/os/win32/GNUARM/3.4.3/arm-elf/lib/thumb/soft/interwork/libc.a(vfprintf.o)
 .debug_line    0x0000f94e      0x1aa C:/Program Files/Ingenico/IngeDev_722/plugins/com.ingenico.ingedev.telium.bin.win32.gnuarm.v343_7.20.0.1/os/win32/GNUARM/3.4.3/arm-elf/lib/thumb/soft/interwork/libc.a(wcrtomb.o)
 .debug_line    0x0000faf8      0x1d3 C:/Program Files/Ingenico/IngeDev_722/plugins/com.ingenico.ingedev.telium.bin.win32.gnuarm.v343_7.20.0.1/os/win32/GNUARM/3.4.3/arm-elf/lib/thumb/soft/interwork/libc.a(wcsrtombs.o)
 .debug_line    0x0000fccb      0x20f C:/Program Files/Ingenico/IngeDev_722/plugins/com.ingenico.ingedev.telium.bin.win32.gnuarm.v343_7.20.0.1/os/win32/GNUARM/3.4.3/arm-elf/lib/thumb/soft/interwork/libc.a(wctomb_r.o)
 .debug_line    0x0000feda      0x1ab C:/Program Files/Ingenico/IngeDev_722/plugins/com.ingenico.ingedev.telium.bin.win32.gnuarm.v343_7.20.0.1/os/win32/GNUARM/3.4.3/arm-elf/lib/thumb/soft/interwork/libc.a(wsetup.o)
 .debug_line    0x00010085      0x177 C:/Program Files/Ingenico/IngeDev_722/plugins/com.ingenico.ingedev.telium.bin.win32.gnuarm.v343_7.20.0.1/os/win32/GNUARM/3.4.3/arm-elf/lib/thumb/soft/interwork/libc.a(__call_atexit.o)
 .debug_line    0x000101fc       0x65 C:/Program Files/Ingenico/IngeDev_722/plugins/com.ingenico.ingedev.telium.bin.win32.gnuarm.v343_7.20.0.1/os/win32/GNUARM/3.4.3/arm-elf/lib/thumb/soft/interwork/libc.a(ctype_.o)
 .debug_line    0x00010261      0x3bd C:/Program Files/Ingenico/IngeDev_722/plugins/com.ingenico.ingedev.telium.bin.win32.gnuarm.v343_7.20.0.1/os/win32/GNUARM/3.4.3/arm-elf/lib/thumb/soft/interwork/libc.a(dtoa.o)
 .debug_line    0x0001061e      0x13d C:/Program Files/Ingenico/IngeDev_722/plugins/com.ingenico.ingedev.telium.bin.win32.gnuarm.v343_7.20.0.1/os/win32/GNUARM/3.4.3/arm-elf/lib/thumb/soft/interwork/libc.a(errno.o)
 .debug_line    0x0001075b      0x1b5 C:/Program Files/Ingenico/IngeDev_722/plugins/com.ingenico.ingedev.telium.bin.win32.gnuarm.v343_7.20.0.1/os/win32/GNUARM/3.4.3/arm-elf/lib/thumb/soft/interwork/libc.a(fflush.o)
 .debug_line    0x00010910      0x20e C:/Program Files/Ingenico/IngeDev_722/plugins/com.ingenico.ingedev.telium.bin.win32.gnuarm.v343_7.20.0.1/os/win32/GNUARM/3.4.3/arm-elf/lib/thumb/soft/interwork/libc.a(findfp.o)
 .debug_line    0x00010b1e      0x19d C:/Program Files/Ingenico/IngeDev_722/plugins/com.ingenico.ingedev.telium.bin.win32.gnuarm.v343_7.20.0.1/os/win32/GNUARM/3.4.3/arm-elf/lib/thumb/soft/interwork/libc.a(freer.o)
 .debug_line    0x00010cbb      0x22e C:/Program Files/Ingenico/IngeDev_722/plugins/com.ingenico.ingedev.telium.bin.win32.gnuarm.v343_7.20.0.1/os/win32/GNUARM/3.4.3/arm-elf/lib/thumb/soft/interwork/libc.a(fvwrite.o)
 .debug_line    0x00010ee9      0x1b9 C:/Program Files/Ingenico/IngeDev_722/plugins/com.ingenico.ingedev.telium.bin.win32.gnuarm.v343_7.20.0.1/os/win32/GNUARM/3.4.3/arm-elf/lib/thumb/soft/interwork/libc.a(fwalk.o)
 .debug_line    0x000110a2      0x1b0 C:/Program Files/Ingenico/IngeDev_722/plugins/com.ingenico.ingedev.telium.bin.win32.gnuarm.v343_7.20.0.1/os/win32/GNUARM/3.4.3/arm-elf/lib/thumb/soft/interwork/libc.a(locale.o)
 .debug_line    0x00011252      0x1d4 C:/Program Files/Ingenico/IngeDev_722/plugins/com.ingenico.ingedev.telium.bin.win32.gnuarm.v343_7.20.0.1/os/win32/GNUARM/3.4.3/arm-elf/lib/thumb/soft/interwork/libc.a(makebuf.o)
 .debug_line    0x00011426      0x148 C:/Program Files/Ingenico/IngeDev_722/plugins/com.ingenico.ingedev.telium.bin.win32.gnuarm.v343_7.20.0.1/os/win32/GNUARM/3.4.3/arm-elf/lib/thumb/soft/interwork/libc.a(malloc.o)
 .debug_line    0x0001156e      0x229 C:/Program Files/Ingenico/IngeDev_722/plugins/com.ingenico.ingedev.telium.bin.win32.gnuarm.v343_7.20.0.1/os/win32/GNUARM/3.4.3/arm-elf/lib/thumb/soft/interwork/libc.a(mallocr.o)
 .debug_line    0x00011797       0xd6 C:/Program Files/Ingenico/IngeDev_722/plugins/com.ingenico.ingedev.telium.bin.win32.gnuarm.v343_7.20.0.1/os/win32/GNUARM/3.4.3/arm-elf/lib/thumb/soft/interwork/libc.a(memchr.o)
 .debug_line    0x0001186d      0x141 C:/Program Files/Ingenico/IngeDev_722/plugins/com.ingenico.ingedev.telium.bin.win32.gnuarm.v343_7.20.0.1/os/win32/GNUARM/3.4.3/arm-elf/lib/thumb/soft/interwork/libc.a(mlock.o)
 .debug_line    0x000119ae      0x368 C:/Program Files/Ingenico/IngeDev_722/plugins/com.ingenico.ingedev.telium.bin.win32.gnuarm.v343_7.20.0.1/os/win32/GNUARM/3.4.3/arm-elf/lib/thumb/soft/interwork/libc.a(mprec.o)
 .debug_line    0x00011d16      0x1b4 C:/Program Files/Ingenico/IngeDev_722/plugins/com.ingenico.ingedev.telium.bin.win32.gnuarm.v343_7.20.0.1/os/win32/GNUARM/3.4.3/arm-elf/lib/thumb/soft/interwork/libc.a(reallocr.o)
 .debug_line    0x00011eca      0x12f C:/Program Files/Ingenico/IngeDev_722/plugins/com.ingenico.ingedev.telium.bin.win32.gnuarm.v343_7.20.0.1/os/win32/GNUARM/3.4.3/arm-elf/lib/thumb/soft/interwork/libc.a(s_isinf.o)
 .debug_line    0x00011ff9      0x12f C:/Program Files/Ingenico/IngeDev_722/plugins/com.ingenico.ingedev.telium.bin.win32.gnuarm.v343_7.20.0.1/os/win32/GNUARM/3.4.3/arm-elf/lib/thumb/soft/interwork/libc.a(s_isnan.o)
 .debug_line    0x00012128      0x143 C:/Program Files/Ingenico/IngeDev_722/plugins/com.ingenico.ingedev.telium.bin.win32.gnuarm.v343_7.20.0.1/os/win32/GNUARM/3.4.3/arm-elf/lib/thumb/soft/interwork/libc.a(sbrkr.o)
 .debug_line    0x0001226b      0x1c2 C:/Program Files/Ingenico/IngeDev_722/plugins/com.ingenico.ingedev.telium.bin.win32.gnuarm.v343_7.20.0.1/os/win32/GNUARM/3.4.3/arm-elf/lib/thumb/soft/interwork/libc.a(stdio.o)
 .debug_line    0x0001242d      0x144 C:/Program Files/Ingenico/IngeDev_722/plugins/com.ingenico.ingedev.telium.bin.win32.gnuarm.v343_7.20.0.1/os/win32/GNUARM/3.4.3/arm-elf/lib/thumb/soft/interwork/libc.a(writer.o)
 .debug_line    0x00012571      0x150 C:/Program Files/Ingenico/IngeDev_722/plugins/com.ingenico.ingedev.telium.bin.win32.gnuarm.v343_7.20.0.1/os/win32/GNUARM/3.4.3/arm-elf/lib/thumb/soft/interwork/libc.a(callocr.o)
 .debug_line    0x000126c1      0x144 C:/Program Files/Ingenico/IngeDev_722/plugins/com.ingenico.ingedev.telium.bin.win32.gnuarm.v343_7.20.0.1/os/win32/GNUARM/3.4.3/arm-elf/lib/thumb/soft/interwork/libc.a(closer.o)
 .debug_line    0x00012805      0x1b1 C:/Program Files/Ingenico/IngeDev_722/plugins/com.ingenico.ingedev.telium.bin.win32.gnuarm.v343_7.20.0.1/os/win32/GNUARM/3.4.3/arm-elf/lib/thumb/soft/interwork/libc.a(fstatr.o)
 .debug_line    0x000129b6      0x144 C:/Program Files/Ingenico/IngeDev_722/plugins/com.ingenico.ingedev.telium.bin.win32.gnuarm.v343_7.20.0.1/os/win32/GNUARM/3.4.3/arm-elf/lib/thumb/soft/interwork/libc.a(lseekr.o)
 .debug_line    0x00012afa      0x143 C:/Program Files/Ingenico/IngeDev_722/plugins/com.ingenico.ingedev.telium.bin.win32.gnuarm.v343_7.20.0.1/os/win32/GNUARM/3.4.3/arm-elf/lib/thumb/soft/interwork/libc.a(readr.o)
 .debug_line    0x00012c3d      0x173 C:/Program Files/Ingenico/IngeDev_722/plugins/com.ingenico.ingedev.telium.bin.win32.gnuarm.v343_7.20.0.1/os/win32/GNUARM/3.4.3/arm-elf/lib/thumb/soft/interwork/libc.a(reent.o)
 .debug_line    0x00012db0       0x70 C:/Program Files/Ingenico/IngeDev_722/plugins/com.ingenico.ingedev.telium.bin.win32.gnuarm.v343_7.20.0.1/os/win32/GNUARM/3.4.3/lib/gcc/arm-elf/3.4.3/thumb/soft/interwork/libgcc.a(_udivsi3.o)
 .debug_line    0x00012e20       0x7d C:/Program Files/Ingenico/IngeDev_722/plugins/com.ingenico.ingedev.telium.bin.win32.gnuarm.v343_7.20.0.1/os/win32/GNUARM/3.4.3/lib/gcc/arm-elf/3.4.3/thumb/soft/interwork/libgcc.a(_divsi3.o)
 .debug_line    0x00012e9d       0x6f C:/Program Files/Ingenico/IngeDev_722/plugins/com.ingenico.ingedev.telium.bin.win32.gnuarm.v343_7.20.0.1/os/win32/GNUARM/3.4.3/lib/gcc/arm-elf/3.4.3/thumb/soft/interwork/libgcc.a(_umodsi3.o)
 .debug_line    0x00012f0c       0x78 C:/Program Files/Ingenico/IngeDev_722/plugins/com.ingenico.ingedev.telium.bin.win32.gnuarm.v343_7.20.0.1/os/win32/GNUARM/3.4.3/lib/gcc/arm-elf/3.4.3/thumb/soft/interwork/libgcc.a(_modsi3.o)
 .debug_line    0x00012f84       0x61 C:/Program Files/Ingenico/IngeDev_722/plugins/com.ingenico.ingedev.telium.bin.win32.gnuarm.v343_7.20.0.1/os/win32/GNUARM/3.4.3/lib/gcc/arm-elf/3.4.3/thumb/soft/interwork/libgcc.a(_dvmd_tls.o)
 .debug_line    0x00012fe5       0x6f C:/Program Files/Ingenico/IngeDev_722/plugins/com.ingenico.ingedev.telium.bin.win32.gnuarm.v343_7.20.0.1/os/win32/GNUARM/3.4.3/lib/gcc/arm-elf/3.4.3/thumb/soft/interwork/libgcc.a(_call_via_rX.o)
 .debug_line    0x00013054      0x145 C:/Program Files/Ingenico/IngeDev_722/plugins/com.ingenico.ingedev.telium.bin.win32.gnuarm.v343_7.20.0.1/os/win32/GNUARM/3.4.3/lib/gcc/arm-elf/3.4.3/thumb/soft/interwork/libgcc.a(_addsubdf3.o)
 .debug_line    0x00013199      0x192 C:/Program Files/Ingenico/IngeDev_722/plugins/com.ingenico.ingedev.telium.bin.win32.gnuarm.v343_7.20.0.1/os/win32/GNUARM/3.4.3/lib/gcc/arm-elf/3.4.3/thumb/soft/interwork/libgcc.a(_muldivdf3.o)
 .debug_line    0x0001332b       0x88 C:/Program Files/Ingenico/IngeDev_722/plugins/com.ingenico.ingedev.telium.bin.win32.gnuarm.v343_7.20.0.1/os/win32/GNUARM/3.4.3/lib/gcc/arm-elf/3.4.3/thumb/soft/interwork/libgcc.a(_cmpdf2.o)
 .debug_line    0x000133b3       0x7f C:/Program Files/Ingenico/IngeDev_722/plugins/com.ingenico.ingedev.telium.bin.win32.gnuarm.v343_7.20.0.1/os/win32/GNUARM/3.4.3/lib/gcc/arm-elf/3.4.3/thumb/soft/interwork/libgcc.a(_fixdfsi.o)
 .debug_line    0x00013432       0x6a C:/Program Files/Ingenico/IngeDev_722/plugins/com.ingenico.ingedev.telium.bin.win32.gnuarm.v343_7.20.0.1/os/win32/GNUARM/3.4.3/lib/gcc/arm-elf/3.4.3/thumb/soft/interwork/libgcc.a(_muldi3.o)
 .debug_line    0x0001349c       0x72 C:/Program Files/Ingenico/IngeDev_722/plugins/com.ingenico.ingedev.telium.bin.win32.gnuarm.v343_7.20.0.1/os/win32/GNUARM/3.4.3/lib/gcc/arm-elf/3.4.3/thumb/soft/interwork/libgcc.a(_lshrdi3.o)
 .debug_line    0x0001350e       0x72 C:/Program Files/Ingenico/IngeDev_722/plugins/com.ingenico.ingedev.telium.bin.win32.gnuarm.v343_7.20.0.1/os/win32/GNUARM/3.4.3/lib/gcc/arm-elf/3.4.3/thumb/soft/interwork/libgcc.a(_ashldi3.o)
 .debug_line    0x00013580      0x118 C:/Program Files/Ingenico/IngeDev_722/plugins/com.ingenico.ingedev.telium.bin.win32.gnuarm.v343_7.20.0.1/os/win32/GNUARM/3.4.3/lib/gcc/arm-elf/3.4.3/thumb/soft/interwork/libgcc.a(_udivdi3.o)
 .debug_line    0x00013698       0x4f C:/Program Files/Ingenico/IngeDev_722/plugins/com.ingenico.ingedev.telium.bin.win32.gnuarm.v343_7.20.0.1/os/win32/GNUARM/3.4.3/lib/gcc/arm-elf/3.4.3/thumb/soft/interwork/libgcc.a(_clz.o)

.debug_frame    0x00000000     0xae88
 .debug_frame   0x00000000       0x24 Obj/RELEASE_T2/trc.o
 .debug_frame   0x00000024      0x470 Obj/RELEASE_T2/tbx.o
 .debug_frame   0x00000494      0x3e8 Obj/RELEASE_T2/tlm.o
 .debug_frame   0x0000087c      0x200 Obj/RELEASE_T2/tlmhmi.o
 .debug_frame   0x00000a7c      0x228 Obj/RELEASE_T2/tlmmem.o
 .debug_frame   0x00000ca4      0x398 Obj/RELEASE_T2/std.o
 .debug_frame   0x0000103c      0x150 Obj/RELEASE_T2/fmt.o
 .debug_frame   0x0000118c      0x908 Obj/RELEASE_T2/dba.o
 .debug_frame   0x00001a94      0x478 Obj/RELEASE_T2/drv.o
 .debug_frame   0x00001f0c      0x360 Obj/RELEASE_T2/dlg.o
 .debug_frame   0x0000226c       0x90 Obj/RELEASE_T2/Main.o
 .debug_frame   0x000022fc      0x254 Obj/RELEASE_T2/sgm.o
 .debug_frame   0x00002550      0x2fc Obj/RELEASE_T2/map.o
 .debug_frame   0x0000284c      0x2a0 Obj/RELEASE_T2/dft.o
 .debug_frame   0x00002aec       0x44 Obj/RELEASE_T2/rpt.o
 .debug_frame   0x00002b30      0x114 Obj/RELEASE_T2/scr.o
 .debug_frame   0x00002c44      0x100 Obj/RELEASE_T2/str.o
 .debug_frame   0x00002d44      0x388 Obj/RELEASE_T2/hdl.o
 .debug_frame   0x000030cc      0x2e8 Obj/RELEASE_T2/val.o
 .debug_frame   0x000033b4      0x5bc Obj/RELEASE_T2/adm.o
 .debug_frame   0x00003970      0x368 Obj/RELEASE_T2/emv.o
 .debug_frame   0x00003cd8      0x2c4 Obj/RELEASE_T2/function.o
 .debug_frame   0x00003f9c       0x24 Obj/RELEASE_T2/iso.o
 .debug_frame   0x00003fc0      0x380 Obj/RELEASE_T2/log.o
 .debug_frame   0x00004340       0xe4 Obj/RELEASE_T2/onl.o
 .debug_frame   0x00004424      0x480 Obj/RELEASE_T2/pmt.o
 .debug_frame   0x000048a4      0x3f0 Obj/RELEASE_T2/req.o
 .debug_frame   0x00004c94       0x64 Obj/RELEASE_T2/rev.o
 .debug_frame   0x00004cf8      0xe74 Obj/RELEASE_T2/rsp.o
 .debug_frame   0x00005b6c      0x220 Obj/RELEASE_T2/tle.o
 .debug_frame   0x00005d8c      0x710 Obj/RELEASE_T2/tlmchn.o
 .debug_frame   0x0000649c      0x270 Obj/RELEASE_T2/tlmcry.o
 .debug_frame   0x0000670c      0x59c Obj/RELEASE_T2/tlmemv.o
 .debug_frame   0x00006ca8       0x20 Obj/RELEASE_T2/tcan0020.o
 .debug_frame   0x00006cc8     0x1370 Obj/RELEASE_T2/BRI.o
 .debug_frame   0x00008038      0x2e8 Obj/RELEASE_T2/LineEncryption.o
 .debug_frame   0x00008320      0x198 Obj/RELEASE_T2/AES.o
 .debug_frame   0x000084b8      0x1b0 Obj/RELEASE_T2/keyinject.o
 .debug_frame   0x00008668      0x7a0 Obj/RELEASE_T2/prepaid.o
 .debug_frame   0x00008e08       0x5c Obj/RELEASE_T2/logon.o
 .debug_frame   0x00008e64       0x2c Obj/RELEASE_T2/rsagen.o
 .debug_frame   0x00008e90       0xcc Obj/RELEASE_T2/prsa.o
 .debug_frame   0x00008f5c      0x4d8 Obj/RELEASE_T2/bignum.o
 .debug_frame   0x00009434       0x60 Obj/RELEASE_T2/havege.o
 .debug_frame   0x00009494       0x28 Obj/RELEASE_T2/timing.o
 .debug_frame   0x000094bc       0x50 libs/GNU_ARM_RELEASE/RSA.lib(RSA_dec.o)
 .debug_frame   0x0000950c       0x2c libs/GNU_ARM_RELEASE/RSA.lib(RSA_init.o)
 .debug_frame   0x00009538       0x2c libs/GNU_ARM_RELEASE/RSA.lib(m_add.o)
 .debug_frame   0x00009564       0x30 libs/GNU_ARM_RELEASE/RSA.lib(m_b2w.o)
 .debug_frame   0x00009594       0x28 libs/GNU_ARM_RELEASE/RSA.lib(m_clr.o)
 .debug_frame   0x000095bc       0x28 libs/GNU_ARM_RELEASE/RSA.lib(m_cmp.o)
 .debug_frame   0x000095e4       0x28 libs/GNU_ARM_RELEASE/RSA.lib(m_cpy.o)
 .debug_frame   0x0000960c       0x50 libs/GNU_ARM_RELEASE/RSA.lib(m_div.o)
 .debug_frame   0x0000965c       0x54 libs/GNU_ARM_RELEASE/RSA.lib(m_mem.o)
 .debug_frame   0x000096b0       0x2c libs/GNU_ARM_RELEASE/RSA.lib(m_modmul.o)
 .debug_frame   0x000096dc       0x30 libs/GNU_ARM_RELEASE/RSA.lib(m_monexp.o)
 .debug_frame   0x0000970c       0x2c libs/GNU_ARM_RELEASE/RSA.lib(m_moninv.o)
 .debug_frame   0x00009738       0x30 libs/GNU_ARM_RELEASE/RSA.lib(m_monmul.o)
 .debug_frame   0x00009768       0x28 libs/GNU_ARM_RELEASE/RSA.lib(m_msb.o)
 .debug_frame   0x00009790       0x30 libs/GNU_ARM_RELEASE/RSA.lib(m_mul.o)
 .debug_frame   0x000097c0       0x30 libs/GNU_ARM_RELEASE/RSA.lib(m_mulsub.o)
 .debug_frame   0x000097f0       0x50 libs/GNU_ARM_RELEASE/RSA.lib(m_rand.o)
 .debug_frame   0x00009840       0x30 libs/GNU_ARM_RELEASE/RSA.lib(m_red.o)
 .debug_frame   0x00009870       0x30 libs/GNU_ARM_RELEASE/RSA.lib(m_shlx.o)
 .debug_frame   0x000098a0       0x30 libs/GNU_ARM_RELEASE/RSA.lib(m_shrx.o)
 .debug_frame   0x000098d0       0x2c libs/GNU_ARM_RELEASE/RSA.lib(m_sub.o)
 .debug_frame   0x000098fc       0x2c libs/GNU_ARM_RELEASE/RSA.lib(m_w2b.o)
 .debug_frame   0x00009928      0x288 C:/Program Files/SDK30/SDK 9.20.0.01/SDK/lib_gnu/IP_.lib(EthernetConfig.o)
 .debug_frame   0x00009bb0       0x70 C:/Program Files/SDK30/SDK 9.20.0.01/SDK/lib_gnu/IP_.lib(Telium_IP_Host.o)
 .debug_frame   0x00009c20       0x64 C:/Program Files/SDK30/SDK 9.20.0.01/SDK/lib_gnu/IP_.lib(Telium_IP_Inet.o)
 .debug_frame   0x00009c84       0x84 C:/Program Files/SDK30/SDK 9.20.0.01/SDK/lib_gnu/IP_.lib(Telium_IP_Socket.o)
 .debug_frame   0x00009d08       0x40 C:/Program Files/Ingenico/IngeDev_722/plugins/com.ingenico.ingedev.telium.bin.win32.gnuarm.v343_7.20.0.1/os/win32/GNUARM/3.4.3/arm-elf/lib/thumb/soft/interwork/libc.a(atoi.o)
 .debug_frame   0x00009d48       0x40 C:/Program Files/Ingenico/IngeDev_722/plugins/com.ingenico.ingedev.telium.bin.win32.gnuarm.v343_7.20.0.1/os/win32/GNUARM/3.4.3/arm-elf/lib/thumb/soft/interwork/libc.a(atol.o)
 .debug_frame   0x00009d88       0x28 C:/Program Files/Ingenico/IngeDev_722/plugins/com.ingenico.ingedev.telium.bin.win32.gnuarm.v343_7.20.0.1/os/win32/GNUARM/3.4.3/arm-elf/lib/thumb/soft/interwork/libc.a(exit.o)
 .debug_frame   0x00009db0       0x28 C:/Program Files/Ingenico/IngeDev_722/plugins/com.ingenico.ingedev.telium.bin.win32.gnuarm.v343_7.20.0.1/os/win32/GNUARM/3.4.3/arm-elf/lib/thumb/soft/interwork/libc.a(memcmp.o)
 .debug_frame   0x00009dd8       0x28 C:/Program Files/Ingenico/IngeDev_722/plugins/com.ingenico.ingedev.telium.bin.win32.gnuarm.v343_7.20.0.1/os/win32/GNUARM/3.4.3/arm-elf/lib/thumb/soft/interwork/libc.a(memcpy.o)
 .debug_frame   0x00009e00       0x28 C:/Program Files/Ingenico/IngeDev_722/plugins/com.ingenico.ingedev.telium.bin.win32.gnuarm.v343_7.20.0.1/os/win32/GNUARM/3.4.3/arm-elf/lib/thumb/soft/interwork/libc.a(memmove.o)
 .debug_frame   0x00009e28       0x28 C:/Program Files/Ingenico/IngeDev_722/plugins/com.ingenico.ingedev.telium.bin.win32.gnuarm.v343_7.20.0.1/os/win32/GNUARM/3.4.3/arm-elf/lib/thumb/soft/interwork/libc.a(memset.o)
 .debug_frame   0x00009e50       0x3c C:/Program Files/Ingenico/IngeDev_722/plugins/com.ingenico.ingedev.telium.bin.win32.gnuarm.v343_7.20.0.1/os/win32/GNUARM/3.4.3/arm-elf/lib/thumb/soft/interwork/libc.a(rand.o)
 .debug_frame   0x00009e8c       0x50 C:/Program Files/Ingenico/IngeDev_722/plugins/com.ingenico.ingedev.telium.bin.win32.gnuarm.v343_7.20.0.1/os/win32/GNUARM/3.4.3/arm-elf/lib/thumb/soft/interwork/libc.a(snprintf.o)
 .debug_frame   0x00009edc       0x30 C:/Program Files/Ingenico/IngeDev_722/plugins/com.ingenico.ingedev.telium.bin.win32.gnuarm.v343_7.20.0.1/os/win32/GNUARM/3.4.3/arm-elf/lib/thumb/soft/interwork/libc.a(strcasecmp.o)
 .debug_frame   0x00009f0c       0x28 C:/Program Files/Ingenico/IngeDev_722/plugins/com.ingenico.ingedev.telium.bin.win32.gnuarm.v343_7.20.0.1/os/win32/GNUARM/3.4.3/arm-elf/lib/thumb/soft/interwork/libc.a(strcat.o)
 .debug_frame   0x00009f34       0x28 C:/Program Files/Ingenico/IngeDev_722/plugins/com.ingenico.ingedev.telium.bin.win32.gnuarm.v343_7.20.0.1/os/win32/GNUARM/3.4.3/arm-elf/lib/thumb/soft/interwork/libc.a(strchr.o)
 .debug_frame   0x00009f5c       0x28 C:/Program Files/Ingenico/IngeDev_722/plugins/com.ingenico.ingedev.telium.bin.win32.gnuarm.v343_7.20.0.1/os/win32/GNUARM/3.4.3/arm-elf/lib/thumb/soft/interwork/libc.a(strcmp.o)
 .debug_frame   0x00009f84       0x28 C:/Program Files/Ingenico/IngeDev_722/plugins/com.ingenico.ingedev.telium.bin.win32.gnuarm.v343_7.20.0.1/os/win32/GNUARM/3.4.3/arm-elf/lib/thumb/soft/interwork/libc.a(strcpy.o)
 .debug_frame   0x00009fac       0x28 C:/Program Files/Ingenico/IngeDev_722/plugins/com.ingenico.ingedev.telium.bin.win32.gnuarm.v343_7.20.0.1/os/win32/GNUARM/3.4.3/arm-elf/lib/thumb/soft/interwork/libc.a(strlen.o)
 .debug_frame   0x00009fd4       0x28 C:/Program Files/Ingenico/IngeDev_722/plugins/com.ingenico.ingedev.telium.bin.win32.gnuarm.v343_7.20.0.1/os/win32/GNUARM/3.4.3/arm-elf/lib/thumb/soft/interwork/libc.a(strncpy.o)
 .debug_frame   0x00009ffc       0x28 C:/Program Files/Ingenico/IngeDev_722/plugins/com.ingenico.ingedev.telium.bin.win32.gnuarm.v343_7.20.0.1/os/win32/GNUARM/3.4.3/arm-elf/lib/thumb/soft/interwork/libc.a(strstr.o)
 .debug_frame   0x0000a024       0x4c C:/Program Files/Ingenico/IngeDev_722/plugins/com.ingenico.ingedev.telium.bin.win32.gnuarm.v343_7.20.0.1/os/win32/GNUARM/3.4.3/arm-elf/lib/thumb/soft/interwork/libc.a(strtol.o)
 .debug_frame   0x0000a070       0x4c C:/Program Files/Ingenico/IngeDev_722/plugins/com.ingenico.ingedev.telium.bin.win32.gnuarm.v343_7.20.0.1/os/win32/GNUARM/3.4.3/arm-elf/lib/thumb/soft/interwork/libc.a(strtoul.o)
 .debug_frame   0x0000a0bc      0x300 C:/Program Files/Ingenico/IngeDev_722/plugins/com.ingenico.ingedev.telium.bin.win32.gnuarm.v343_7.20.0.1/os/win32/GNUARM/3.4.3/arm-elf/lib/thumb/soft/interwork/libc.a(syscalls.o)
 .debug_frame   0x0000a3bc       0x68 C:/Program Files/Ingenico/IngeDev_722/plugins/com.ingenico.ingedev.telium.bin.win32.gnuarm.v343_7.20.0.1/os/win32/GNUARM/3.4.3/arm-elf/lib/thumb/soft/interwork/libc.a(vfprintf.o)
 .debug_frame   0x0000a424       0x48 C:/Program Files/Ingenico/IngeDev_722/plugins/com.ingenico.ingedev.telium.bin.win32.gnuarm.v343_7.20.0.1/os/win32/GNUARM/3.4.3/arm-elf/lib/thumb/soft/interwork/libc.a(wcrtomb.o)
 .debug_frame   0x0000a46c       0x50 C:/Program Files/Ingenico/IngeDev_722/plugins/com.ingenico.ingedev.telium.bin.win32.gnuarm.v343_7.20.0.1/os/win32/GNUARM/3.4.3/arm-elf/lib/thumb/soft/interwork/libc.a(wcsrtombs.o)
 .debug_frame   0x0000a4bc       0x30 C:/Program Files/Ingenico/IngeDev_722/plugins/com.ingenico.ingedev.telium.bin.win32.gnuarm.v343_7.20.0.1/os/win32/GNUARM/3.4.3/arm-elf/lib/thumb/soft/interwork/libc.a(wctomb_r.o)
 .debug_frame   0x0000a4ec       0x2c C:/Program Files/Ingenico/IngeDev_722/plugins/com.ingenico.ingedev.telium.bin.win32.gnuarm.v343_7.20.0.1/os/win32/GNUARM/3.4.3/arm-elf/lib/thumb/soft/interwork/libc.a(wsetup.o)
 .debug_frame   0x0000a518       0x30 C:/Program Files/Ingenico/IngeDev_722/plugins/com.ingenico.ingedev.telium.bin.win32.gnuarm.v343_7.20.0.1/os/win32/GNUARM/3.4.3/arm-elf/lib/thumb/soft/interwork/libc.a(__call_atexit.o)
 .debug_frame   0x0000a548       0x54 C:/Program Files/Ingenico/IngeDev_722/plugins/com.ingenico.ingedev.telium.bin.win32.gnuarm.v343_7.20.0.1/os/win32/GNUARM/3.4.3/arm-elf/lib/thumb/soft/interwork/libc.a(dtoa.o)
 .debug_frame   0x0000a59c       0x20 C:/Program Files/Ingenico/IngeDev_722/plugins/com.ingenico.ingedev.telium.bin.win32.gnuarm.v343_7.20.0.1/os/win32/GNUARM/3.4.3/arm-elf/lib/thumb/soft/interwork/libc.a(errno.o)
 .debug_frame   0x0000a5bc       0x2c C:/Program Files/Ingenico/IngeDev_722/plugins/com.ingenico.ingedev.telium.bin.win32.gnuarm.v343_7.20.0.1/os/win32/GNUARM/3.4.3/arm-elf/lib/thumb/soft/interwork/libc.a(fflush.o)
 .debug_frame   0x0000a5e8      0x110 C:/Program Files/Ingenico/IngeDev_722/plugins/com.ingenico.ingedev.telium.bin.win32.gnuarm.v343_7.20.0.1/os/win32/GNUARM/3.4.3/arm-elf/lib/thumb/soft/interwork/libc.a(findfp.o)
 .debug_frame   0x0000a6f8       0x50 C:/Program Files/Ingenico/IngeDev_722/plugins/com.ingenico.ingedev.telium.bin.win32.gnuarm.v343_7.20.0.1/os/win32/GNUARM/3.4.3/arm-elf/lib/thumb/soft/interwork/libc.a(freer.o)
 .debug_frame   0x0000a748       0x30 C:/Program Files/Ingenico/IngeDev_722/plugins/com.ingenico.ingedev.telium.bin.win32.gnuarm.v343_7.20.0.1/os/win32/GNUARM/3.4.3/arm-elf/lib/thumb/soft/interwork/libc.a(fvwrite.o)
 .debug_frame   0x0000a778       0x50 C:/Program Files/Ingenico/IngeDev_722/plugins/com.ingenico.ingedev.telium.bin.win32.gnuarm.v343_7.20.0.1/os/win32/GNUARM/3.4.3/arm-elf/lib/thumb/soft/interwork/libc.a(fwalk.o)
 .debug_frame   0x0000a7c8       0x7c C:/Program Files/Ingenico/IngeDev_722/plugins/com.ingenico.ingedev.telium.bin.win32.gnuarm.v343_7.20.0.1/os/win32/GNUARM/3.4.3/arm-elf/lib/thumb/soft/interwork/libc.a(locale.o)
 .debug_frame   0x0000a844       0x30 C:/Program Files/Ingenico/IngeDev_722/plugins/com.ingenico.ingedev.telium.bin.win32.gnuarm.v343_7.20.0.1/os/win32/GNUARM/3.4.3/arm-elf/lib/thumb/soft/interwork/libc.a(makebuf.o)
 .debug_frame   0x0000a874       0x40 C:/Program Files/Ingenico/IngeDev_722/plugins/com.ingenico.ingedev.telium.bin.win32.gnuarm.v343_7.20.0.1/os/win32/GNUARM/3.4.3/arm-elf/lib/thumb/soft/interwork/libc.a(malloc.o)
 .debug_frame   0x0000a8b4       0x30 C:/Program Files/Ingenico/IngeDev_722/plugins/com.ingenico.ingedev.telium.bin.win32.gnuarm.v343_7.20.0.1/os/win32/GNUARM/3.4.3/arm-elf/lib/thumb/soft/interwork/libc.a(mallocr.o)
 .debug_frame   0x0000a8e4       0x28 C:/Program Files/Ingenico/IngeDev_722/plugins/com.ingenico.ingedev.telium.bin.win32.gnuarm.v343_7.20.0.1/os/win32/GNUARM/3.4.3/arm-elf/lib/thumb/soft/interwork/libc.a(memchr.o)
 .debug_frame   0x0000a90c       0x30 C:/Program Files/Ingenico/IngeDev_722/plugins/com.ingenico.ingedev.telium.bin.win32.gnuarm.v343_7.20.0.1/os/win32/GNUARM/3.4.3/arm-elf/lib/thumb/soft/interwork/libc.a(mlock.o)
 .debug_frame   0x0000a93c      0x1f4 C:/Program Files/Ingenico/IngeDev_722/plugins/com.ingenico.ingedev.telium.bin.win32.gnuarm.v343_7.20.0.1/os/win32/GNUARM/3.4.3/arm-elf/lib/thumb/soft/interwork/libc.a(mprec.o)
 .debug_frame   0x0000ab30       0x30 C:/Program Files/Ingenico/IngeDev_722/plugins/com.ingenico.ingedev.telium.bin.win32.gnuarm.v343_7.20.0.1/os/win32/GNUARM/3.4.3/arm-elf/lib/thumb/soft/interwork/libc.a(reallocr.o)
 .debug_frame   0x0000ab60       0x28 C:/Program Files/Ingenico/IngeDev_722/plugins/com.ingenico.ingedev.telium.bin.win32.gnuarm.v343_7.20.0.1/os/win32/GNUARM/3.4.3/arm-elf/lib/thumb/soft/interwork/libc.a(s_isinf.o)
 .debug_frame   0x0000ab88       0x28 C:/Program Files/Ingenico/IngeDev_722/plugins/com.ingenico.ingedev.telium.bin.win32.gnuarm.v343_7.20.0.1/os/win32/GNUARM/3.4.3/arm-elf/lib/thumb/soft/interwork/libc.a(s_isnan.o)
 .debug_frame   0x0000abb0       0x2c C:/Program Files/Ingenico/IngeDev_722/plugins/com.ingenico.ingedev.telium.bin.win32.gnuarm.v343_7.20.0.1/os/win32/GNUARM/3.4.3/arm-elf/lib/thumb/soft/interwork/libc.a(sbrkr.o)
 .debug_frame   0x0000abdc       0x7c C:/Program Files/Ingenico/IngeDev_722/plugins/com.ingenico.ingedev.telium.bin.win32.gnuarm.v343_7.20.0.1/os/win32/GNUARM/3.4.3/arm-elf/lib/thumb/soft/interwork/libc.a(stdio.o)
 .debug_frame   0x0000ac58       0x2c C:/Program Files/Ingenico/IngeDev_722/plugins/com.ingenico.ingedev.telium.bin.win32.gnuarm.v343_7.20.0.1/os/win32/GNUARM/3.4.3/arm-elf/lib/thumb/soft/interwork/libc.a(writer.o)
 .debug_frame   0x0000ac84       0x28 C:/Program Files/Ingenico/IngeDev_722/plugins/com.ingenico.ingedev.telium.bin.win32.gnuarm.v343_7.20.0.1/os/win32/GNUARM/3.4.3/arm-elf/lib/thumb/soft/interwork/libc.a(callocr.o)
 .debug_frame   0x0000acac       0x2c C:/Program Files/Ingenico/IngeDev_722/plugins/com.ingenico.ingedev.telium.bin.win32.gnuarm.v343_7.20.0.1/os/win32/GNUARM/3.4.3/arm-elf/lib/thumb/soft/interwork/libc.a(closer.o)
 .debug_frame   0x0000acd8       0x2c C:/Program Files/Ingenico/IngeDev_722/plugins/com.ingenico.ingedev.telium.bin.win32.gnuarm.v343_7.20.0.1/os/win32/GNUARM/3.4.3/arm-elf/lib/thumb/soft/interwork/libc.a(fstatr.o)
 .debug_frame   0x0000ad04       0x2c C:/Program Files/Ingenico/IngeDev_722/plugins/com.ingenico.ingedev.telium.bin.win32.gnuarm.v343_7.20.0.1/os/win32/GNUARM/3.4.3/arm-elf/lib/thumb/soft/interwork/libc.a(lseekr.o)
 .debug_frame   0x0000ad30       0x2c C:/Program Files/Ingenico/IngeDev_722/plugins/com.ingenico.ingedev.telium.bin.win32.gnuarm.v343_7.20.0.1/os/win32/GNUARM/3.4.3/arm-elf/lib/thumb/soft/interwork/libc.a(readr.o)
 .debug_frame   0x0000ad5c       0x68 C:/Program Files/Ingenico/IngeDev_722/plugins/com.ingenico.ingedev.telium.bin.win32.gnuarm.v343_7.20.0.1/os/win32/GNUARM/3.4.3/arm-elf/lib/thumb/soft/interwork/libc.a(reent.o)
 .debug_frame   0x0000adc4       0x30 C:/Program Files/Ingenico/IngeDev_722/plugins/com.ingenico.ingedev.telium.bin.win32.gnuarm.v343_7.20.0.1/os/win32/GNUARM/3.4.3/lib/gcc/arm-elf/3.4.3/thumb/soft/interwork/libgcc.a(_muldi3.o)
 .debug_frame   0x0000adf4       0x2c C:/Program Files/Ingenico/IngeDev_722/plugins/com.ingenico.ingedev.telium.bin.win32.gnuarm.v343_7.20.0.1/os/win32/GNUARM/3.4.3/lib/gcc/arm-elf/3.4.3/thumb/soft/interwork/libgcc.a(_lshrdi3.o)
 .debug_frame   0x0000ae20       0x2c C:/Program Files/Ingenico/IngeDev_722/plugins/com.ingenico.ingedev.telium.bin.win32.gnuarm.v343_7.20.0.1/os/win32/GNUARM/3.4.3/lib/gcc/arm-elf/3.4.3/thumb/soft/interwork/libgcc.a(_ashldi3.o)
 .debug_frame   0x0000ae4c       0x3c C:/Program Files/Ingenico/IngeDev_722/plugins/com.ingenico.ingedev.telium.bin.win32.gnuarm.v343_7.20.0.1/os/win32/GNUARM/3.4.3/lib/gcc/arm-elf/3.4.3/thumb/soft/interwork/libgcc.a(_udivdi3.o)

.debug_pubnames
                0x00000000     0x6462
 .debug_pubnames
                0x00000000       0x1d Obj/RELEASE_T2/trc.o
 .debug_pubnames
                0x0000001d      0x202 Obj/RELEASE_T2/tbx.o
 .debug_pubnames
                0x0000021f      0x17a Obj/RELEASE_T2/tlm.o
 .debug_pubnames
                0x00000399       0xe3 Obj/RELEASE_T2/tlmhmi.o
 .debug_pubnames
                0x0000047c      0x101 Obj/RELEASE_T2/tlmmem.o
 .debug_pubnames
                0x0000057d      0x15d Obj/RELEASE_T2/std.o
 .debug_pubnames
                0x000006da       0x9d Obj/RELEASE_T2/fmt.o
 .debug_pubnames
                0x00000777      0x2b9 Obj/RELEASE_T2/dba.o
 .debug_pubnames
                0x00000a30       0x8e Obj/RELEASE_T2/drv.o
 .debug_pubnames
                0x00000abe      0x130 Obj/RELEASE_T2/dlg.o
 .debug_pubnames
                0x00000bee      0x134 Obj/RELEASE_T2/Main.o
 .debug_pubnames
                0x00000d22      0x274 Obj/RELEASE_T2/sgm.o
 .debug_pubnames
                0x00000f96       0xe7 Obj/RELEASE_T2/map.o
 .debug_pubnames
                0x0000107d       0x3b Obj/RELEASE_T2/dft.o
 .debug_pubnames
                0x000010b8       0x21 Obj/RELEASE_T2/rpt.o
 .debug_pubnames
                0x000010d9       0x29 Obj/RELEASE_T2/scr.o
 .debug_pubnames
                0x00001102       0xb8 Obj/RELEASE_T2/str.o
 .debug_pubnames
                0x000011ba      0x29e Obj/RELEASE_T2/hdl.o
 .debug_pubnames
                0x00001458      0x2d3 Obj/RELEASE_T2/val.o
 .debug_pubnames
                0x0000172b      0x3db Obj/RELEASE_T2/adm.o
 .debug_pubnames
                0x00001b06      0x18f Obj/RELEASE_T2/emv.o
 .debug_pubnames
                0x00001c95      0x29e Obj/RELEASE_T2/function.o
 .debug_pubnames
                0x00001f33       0x1d Obj/RELEASE_T2/iso.o
 .debug_pubnames
                0x00001f50      0x306 Obj/RELEASE_T2/log.o
 .debug_pubnames
                0x00002256      0x132 Obj/RELEASE_T2/onl.o
 .debug_pubnames
                0x00002388      0x2dd Obj/RELEASE_T2/pmt.o
 .debug_pubnames
                0x00002665      0x107 Obj/RELEASE_T2/req.o
 .debug_pubnames
                0x0000276c      0x11d Obj/RELEASE_T2/rev.o
 .debug_pubnames
                0x00002889       0xfb Obj/RELEASE_T2/rsp.o
 .debug_pubnames
                0x00002984      0x184 Obj/RELEASE_T2/tle.o
 .debug_pubnames
                0x00002b08       0xf7 Obj/RELEASE_T2/tlmchn.o
 .debug_pubnames
                0x00002bff      0x229 Obj/RELEASE_T2/tlmcry.o
 .debug_pubnames
                0x00002e28      0x270 Obj/RELEASE_T2/tlmemv.o
 .debug_pubnames
                0x00003098       0x1f Obj/RELEASE_T2/tcan0020.o
 .debug_pubnames
                0x000030b7     0x107e Obj/RELEASE_T2/BRI.o
 .debug_pubnames
                0x00004135      0x336 Obj/RELEASE_T2/LineEncryption.o
 .debug_pubnames
                0x0000446b      0x133 Obj/RELEASE_T2/AES.o
 .debug_pubnames
                0x0000459e      0x1f4 Obj/RELEASE_T2/keyinject.o
 .debug_pubnames
                0x00004792      0x6a2 Obj/RELEASE_T2/prepaid.o
 .debug_pubnames
                0x00004e34      0x119 Obj/RELEASE_T2/logon.o
 .debug_pubnames
                0x00004f4d       0x21 Obj/RELEASE_T2/rsagen.o
 .debug_pubnames
                0x00004f6e       0x8b Obj/RELEASE_T2/prsa.o
 .debug_pubnames
                0x00004ff9      0x28f Obj/RELEASE_T2/bignum.o
 .debug_pubnames
                0x00005288       0x32 Obj/RELEASE_T2/havege.o
 .debug_pubnames
                0x000052ba       0x2c Obj/RELEASE_T2/timing.o
 .debug_pubnames
                0x000052e6       0x35 libs/GNU_ARM_RELEASE/RSA.lib(RSA_dec.o)
 .debug_pubnames
                0x0000531b       0x1f libs/GNU_ARM_RELEASE/RSA.lib(RSA_init.o)
 .debug_pubnames
                0x0000533a       0x1f libs/GNU_ARM_RELEASE/RSA.lib(m_add.o)
 .debug_pubnames
                0x00005359       0x26 libs/GNU_ARM_RELEASE/RSA.lib(m_b2w.o)
 .debug_pubnames
                0x0000537f       0x1f libs/GNU_ARM_RELEASE/RSA.lib(m_clr.o)
 .debug_pubnames
                0x0000539e       0x1f libs/GNU_ARM_RELEASE/RSA.lib(m_cmp.o)
 .debug_pubnames
                0x000053bd       0x1f libs/GNU_ARM_RELEASE/RSA.lib(m_cpy.o)
 .debug_pubnames
                0x000053dc       0x30 libs/GNU_ARM_RELEASE/RSA.lib(m_div.o)
 .debug_pubnames
                0x0000540c       0x46 libs/GNU_ARM_RELEASE/RSA.lib(m_mem.o)
 .debug_pubnames
                0x00005452       0x22 libs/GNU_ARM_RELEASE/RSA.lib(m_modmul.o)
 .debug_pubnames
                0x00005474       0x22 libs/GNU_ARM_RELEASE/RSA.lib(m_monexp.o)
 .debug_pubnames
                0x00005496       0x22 libs/GNU_ARM_RELEASE/RSA.lib(m_moninv.o)
 .debug_pubnames
                0x000054b8       0x22 libs/GNU_ARM_RELEASE/RSA.lib(m_monmul.o)
 .debug_pubnames
                0x000054da       0x1f libs/GNU_ARM_RELEASE/RSA.lib(m_msb.o)
 .debug_pubnames
                0x000054f9       0x1f libs/GNU_ARM_RELEASE/RSA.lib(m_mul.o)
 .debug_pubnames
                0x00005518       0x22 libs/GNU_ARM_RELEASE/RSA.lib(m_mulsub.o)
 .debug_pubnames
                0x0000553a       0x4b libs/GNU_ARM_RELEASE/RSA.lib(m_rand.o)
 .debug_pubnames
                0x00005585       0x22 libs/GNU_ARM_RELEASE/RSA.lib(m_red.o)
 .debug_pubnames
                0x000055a7       0x20 libs/GNU_ARM_RELEASE/RSA.lib(m_shlx.o)
 .debug_pubnames
                0x000055c7       0x20 libs/GNU_ARM_RELEASE/RSA.lib(m_shrx.o)
 .debug_pubnames
                0x000055e7       0x1f libs/GNU_ARM_RELEASE/RSA.lib(m_sub.o)
 .debug_pubnames
                0x00005606       0x26 libs/GNU_ARM_RELEASE/RSA.lib(m_w2b.o)
 .debug_pubnames
                0x0000562c       0xf3 C:/Program Files/SDK30/SDK 9.20.0.01/SDK/lib_gnu/IP_.lib(EthernetConfig.o)
 .debug_pubnames
                0x0000571f       0x66 C:/Program Files/SDK30/SDK 9.20.0.01/SDK/lib_gnu/IP_.lib(Telium_IP_Host.o)
 .debug_pubnames
                0x00005785       0x42 C:/Program Files/SDK30/SDK 9.20.0.01/SDK/lib_gnu/IP_.lib(Telium_IP_Inet.o)
 .debug_pubnames
                0x000057c7       0x58 C:/Program Files/SDK30/SDK 9.20.0.01/SDK/lib_gnu/IP_.lib(Telium_IP_Socket.o)
 .debug_pubnames
                0x0000581f       0x27 C:/Program Files/Ingenico/IngeDev_722/plugins/com.ingenico.ingedev.telium.bin.win32.gnuarm.v343_7.20.0.1/os/win32/GNUARM/3.4.3/arm-elf/lib/thumb/soft/interwork/libc.a(atoi.o)
 .debug_pubnames
                0x00005846       0x27 C:/Program Files/Ingenico/IngeDev_722/plugins/com.ingenico.ingedev.telium.bin.win32.gnuarm.v343_7.20.0.1/os/win32/GNUARM/3.4.3/arm-elf/lib/thumb/soft/interwork/libc.a(atol.o)
 .debug_pubnames
                0x0000586d       0x1b C:/Program Files/Ingenico/IngeDev_722/plugins/com.ingenico.ingedev.telium.bin.win32.gnuarm.v343_7.20.0.1/os/win32/GNUARM/3.4.3/arm-elf/lib/thumb/soft/interwork/libc.a(exit.o)
 .debug_pubnames
                0x00005888       0x39 C:/Program Files/Ingenico/IngeDev_722/plugins/com.ingenico.ingedev.telium.bin.win32.gnuarm.v343_7.20.0.1/os/win32/GNUARM/3.4.3/arm-elf/lib/thumb/soft/interwork/libc.a(impure.o)
 .debug_pubnames
                0x000058c1       0x1d C:/Program Files/Ingenico/IngeDev_722/plugins/com.ingenico.ingedev.telium.bin.win32.gnuarm.v343_7.20.0.1/os/win32/GNUARM/3.4.3/arm-elf/lib/thumb/soft/interwork/libc.a(memcmp.o)
 .debug_pubnames
                0x000058de       0x1d C:/Program Files/Ingenico/IngeDev_722/plugins/com.ingenico.ingedev.telium.bin.win32.gnuarm.v343_7.20.0.1/os/win32/GNUARM/3.4.3/arm-elf/lib/thumb/soft/interwork/libc.a(memcpy.o)
 .debug_pubnames
                0x000058fb       0x1e C:/Program Files/Ingenico/IngeDev_722/plugins/com.ingenico.ingedev.telium.bin.win32.gnuarm.v343_7.20.0.1/os/win32/GNUARM/3.4.3/arm-elf/lib/thumb/soft/interwork/libc.a(memmove.o)
 .debug_pubnames
                0x00005919       0x1d C:/Program Files/Ingenico/IngeDev_722/plugins/com.ingenico.ingedev.telium.bin.win32.gnuarm.v343_7.20.0.1/os/win32/GNUARM/3.4.3/arm-elf/lib/thumb/soft/interwork/libc.a(memset.o)
 .debug_pubnames
                0x00005936       0x25 C:/Program Files/Ingenico/IngeDev_722/plugins/com.ingenico.ingedev.telium.bin.win32.gnuarm.v343_7.20.0.1/os/win32/GNUARM/3.4.3/arm-elf/lib/thumb/soft/interwork/libc.a(rand.o)
 .debug_pubnames
                0x0000595b       0x2f C:/Program Files/Ingenico/IngeDev_722/plugins/com.ingenico.ingedev.telium.bin.win32.gnuarm.v343_7.20.0.1/os/win32/GNUARM/3.4.3/arm-elf/lib/thumb/soft/interwork/libc.a(snprintf.o)
 .debug_pubnames
                0x0000598a       0x21 C:/Program Files/Ingenico/IngeDev_722/plugins/com.ingenico.ingedev.telium.bin.win32.gnuarm.v343_7.20.0.1/os/win32/GNUARM/3.4.3/arm-elf/lib/thumb/soft/interwork/libc.a(strcasecmp.o)
 .debug_pubnames
                0x000059ab       0x1d C:/Program Files/Ingenico/IngeDev_722/plugins/com.ingenico.ingedev.telium.bin.win32.gnuarm.v343_7.20.0.1/os/win32/GNUARM/3.4.3/arm-elf/lib/thumb/soft/interwork/libc.a(strcat.o)
 .debug_pubnames
                0x000059c8       0x1d C:/Program Files/Ingenico/IngeDev_722/plugins/com.ingenico.ingedev.telium.bin.win32.gnuarm.v343_7.20.0.1/os/win32/GNUARM/3.4.3/arm-elf/lib/thumb/soft/interwork/libc.a(strchr.o)
 .debug_pubnames
                0x000059e5       0x1d C:/Program Files/Ingenico/IngeDev_722/plugins/com.ingenico.ingedev.telium.bin.win32.gnuarm.v343_7.20.0.1/os/win32/GNUARM/3.4.3/arm-elf/lib/thumb/soft/interwork/libc.a(strcmp.o)
 .debug_pubnames
                0x00005a02       0x1d C:/Program Files/Ingenico/IngeDev_722/plugins/com.ingenico.ingedev.telium.bin.win32.gnuarm.v343_7.20.0.1/os/win32/GNUARM/3.4.3/arm-elf/lib/thumb/soft/interwork/libc.a(strcpy.o)
 .debug_pubnames
                0x00005a1f       0x1d C:/Program Files/Ingenico/IngeDev_722/plugins/com.ingenico.ingedev.telium.bin.win32.gnuarm.v343_7.20.0.1/os/win32/GNUARM/3.4.3/arm-elf/lib/thumb/soft/interwork/libc.a(strlen.o)
 .debug_pubnames
                0x00005a3c       0x1e C:/Program Files/Ingenico/IngeDev_722/plugins/com.ingenico.ingedev.telium.bin.win32.gnuarm.v343_7.20.0.1/os/win32/GNUARM/3.4.3/arm-elf/lib/thumb/soft/interwork/libc.a(strncpy.o)
 .debug_pubnames
                0x00005a5a       0x1d C:/Program Files/Ingenico/IngeDev_722/plugins/com.ingenico.ingedev.telium.bin.win32.gnuarm.v343_7.20.0.1/os/win32/GNUARM/3.4.3/arm-elf/lib/thumb/soft/interwork/libc.a(strstr.o)
 .debug_pubnames
                0x00005a77       0x2b C:/Program Files/Ingenico/IngeDev_722/plugins/com.ingenico.ingedev.telium.bin.win32.gnuarm.v343_7.20.0.1/os/win32/GNUARM/3.4.3/arm-elf/lib/thumb/soft/interwork/libc.a(strtol.o)
 .debug_pubnames
                0x00005aa2       0x2d C:/Program Files/Ingenico/IngeDev_722/plugins/com.ingenico.ingedev.telium.bin.win32.gnuarm.v343_7.20.0.1/os/win32/GNUARM/3.4.3/arm-elf/lib/thumb/soft/interwork/libc.a(strtoul.o)
 .debug_pubnames
                0x00005acf      0x14a C:/Program Files/Ingenico/IngeDev_722/plugins/com.ingenico.ingedev.telium.bin.win32.gnuarm.v343_7.20.0.1/os/win32/GNUARM/3.4.3/arm-elf/lib/thumb/soft/interwork/libc.a(syscalls.o)
 .debug_pubnames
                0x00005c19       0x2f C:/Program Files/Ingenico/IngeDev_722/plugins/com.ingenico.ingedev.telium.bin.win32.gnuarm.v343_7.20.0.1/os/win32/GNUARM/3.4.3/arm-elf/lib/thumb/soft/interwork/libc.a(vfprintf.o)
 .debug_pubnames
                0x00005c48       0x2d C:/Program Files/Ingenico/IngeDev_722/plugins/com.ingenico.ingedev.telium.bin.win32.gnuarm.v343_7.20.0.1/os/win32/GNUARM/3.4.3/arm-elf/lib/thumb/soft/interwork/libc.a(wcrtomb.o)
 .debug_pubnames
                0x00005c75       0x31 C:/Program Files/Ingenico/IngeDev_722/plugins/com.ingenico.ingedev.telium.bin.win32.gnuarm.v343_7.20.0.1/os/win32/GNUARM/3.4.3/arm-elf/lib/thumb/soft/interwork/libc.a(wcsrtombs.o)
 .debug_pubnames
                0x00005ca6       0x20 C:/Program Files/Ingenico/IngeDev_722/plugins/com.ingenico.ingedev.telium.bin.win32.gnuarm.v343_7.20.0.1/os/win32/GNUARM/3.4.3/arm-elf/lib/thumb/soft/interwork/libc.a(wctomb_r.o)
 .debug_pubnames
                0x00005cc6       0x20 C:/Program Files/Ingenico/IngeDev_722/plugins/com.ingenico.ingedev.telium.bin.win32.gnuarm.v343_7.20.0.1/os/win32/GNUARM/3.4.3/arm-elf/lib/thumb/soft/interwork/libc.a(wsetup.o)
 .debug_pubnames
                0x00005ce6       0x27 C:/Program Files/Ingenico/IngeDev_722/plugins/com.ingenico.ingedev.telium.bin.win32.gnuarm.v343_7.20.0.1/os/win32/GNUARM/3.4.3/arm-elf/lib/thumb/soft/interwork/libc.a(__call_atexit.o)
 .debug_pubnames
                0x00005d0d       0x2e C:/Program Files/Ingenico/IngeDev_722/plugins/com.ingenico.ingedev.telium.bin.win32.gnuarm.v343_7.20.0.1/os/win32/GNUARM/3.4.3/arm-elf/lib/thumb/soft/interwork/libc.a(ctype_.o)
 .debug_pubnames
                0x00005d3b       0x1e C:/Program Files/Ingenico/IngeDev_722/plugins/com.ingenico.ingedev.telium.bin.win32.gnuarm.v343_7.20.0.1/os/win32/GNUARM/3.4.3/arm-elf/lib/thumb/soft/interwork/libc.a(dtoa.o)
 .debug_pubnames
                0x00005d59       0x1e C:/Program Files/Ingenico/IngeDev_722/plugins/com.ingenico.ingedev.telium.bin.win32.gnuarm.v343_7.20.0.1/os/win32/GNUARM/3.4.3/arm-elf/lib/thumb/soft/interwork/libc.a(errno.o)
 .debug_pubnames
                0x00005d77       0x1d C:/Program Files/Ingenico/IngeDev_722/plugins/com.ingenico.ingedev.telium.bin.win32.gnuarm.v343_7.20.0.1/os/win32/GNUARM/3.4.3/arm-elf/lib/thumb/soft/interwork/libc.a(fflush.o)
 .debug_pubnames
                0x00005d94       0xa9 C:/Program Files/Ingenico/IngeDev_722/plugins/com.ingenico.ingedev.telium.bin.win32.gnuarm.v343_7.20.0.1/os/win32/GNUARM/3.4.3/arm-elf/lib/thumb/soft/interwork/libc.a(findfp.o)
 .debug_pubnames
                0x00005e3d       0x31 C:/Program Files/Ingenico/IngeDev_722/plugins/com.ingenico.ingedev.telium.bin.win32.gnuarm.v343_7.20.0.1/os/win32/GNUARM/3.4.3/arm-elf/lib/thumb/soft/interwork/libc.a(freer.o)
 .debug_pubnames
                0x00005e6e       0x21 C:/Program Files/Ingenico/IngeDev_722/plugins/com.ingenico.ingedev.telium.bin.win32.gnuarm.v343_7.20.0.1/os/win32/GNUARM/3.4.3/arm-elf/lib/thumb/soft/interwork/libc.a(fvwrite.o)
 .debug_pubnames
                0x00005e8f       0x2e C:/Program Files/Ingenico/IngeDev_722/plugins/com.ingenico.ingedev.telium.bin.win32.gnuarm.v343_7.20.0.1/os/win32/GNUARM/3.4.3/arm-elf/lib/thumb/soft/interwork/libc.a(fwalk.o)
 .debug_pubnames
                0x00005ebd       0xc3 C:/Program Files/Ingenico/IngeDev_722/plugins/com.ingenico.ingedev.telium.bin.win32.gnuarm.v343_7.20.0.1/os/win32/GNUARM/3.4.3/arm-elf/lib/thumb/soft/interwork/libc.a(locale.o)
 .debug_pubnames
                0x00005f80       0x21 C:/Program Files/Ingenico/IngeDev_722/plugins/com.ingenico.ingedev.telium.bin.win32.gnuarm.v343_7.20.0.1/os/win32/GNUARM/3.4.3/arm-elf/lib/thumb/soft/interwork/libc.a(makebuf.o)
 .debug_pubnames
                0x00005fa1       0x26 C:/Program Files/Ingenico/IngeDev_722/plugins/com.ingenico.ingedev.telium.bin.win32.gnuarm.v343_7.20.0.1/os/win32/GNUARM/3.4.3/arm-elf/lib/thumb/soft/interwork/libc.a(malloc.o)
 .debug_pubnames
                0x00005fc7       0xce C:/Program Files/Ingenico/IngeDev_722/plugins/com.ingenico.ingedev.telium.bin.win32.gnuarm.v343_7.20.0.1/os/win32/GNUARM/3.4.3/arm-elf/lib/thumb/soft/interwork/libc.a(mallocr.o)
 .debug_pubnames
                0x00006095       0x1d C:/Program Files/Ingenico/IngeDev_722/plugins/com.ingenico.ingedev.telium.bin.win32.gnuarm.v343_7.20.0.1/os/win32/GNUARM/3.4.3/arm-elf/lib/thumb/soft/interwork/libc.a(memchr.o)
 .debug_pubnames
                0x000060b2       0x38 C:/Program Files/Ingenico/IngeDev_722/plugins/com.ingenico.ingedev.telium.bin.win32.gnuarm.v343_7.20.0.1/os/win32/GNUARM/3.4.3/arm-elf/lib/thumb/soft/interwork/libc.a(mlock.o)
 .debug_pubnames
                0x000060ea      0x112 C:/Program Files/Ingenico/IngeDev_722/plugins/com.ingenico.ingedev.telium.bin.win32.gnuarm.v343_7.20.0.1/os/win32/GNUARM/3.4.3/arm-elf/lib/thumb/soft/interwork/libc.a(mprec.o)
 .debug_pubnames
                0x000061fc       0x21 C:/Program Files/Ingenico/IngeDev_722/plugins/com.ingenico.ingedev.telium.bin.win32.gnuarm.v343_7.20.0.1/os/win32/GNUARM/3.4.3/arm-elf/lib/thumb/soft/interwork/libc.a(reallocr.o)
 .debug_pubnames
                0x0000621d       0x1c C:/Program Files/Ingenico/IngeDev_722/plugins/com.ingenico.ingedev.telium.bin.win32.gnuarm.v343_7.20.0.1/os/win32/GNUARM/3.4.3/arm-elf/lib/thumb/soft/interwork/libc.a(s_isinf.o)
 .debug_pubnames
                0x00006239       0x1c C:/Program Files/Ingenico/IngeDev_722/plugins/com.ingenico.ingedev.telium.bin.win32.gnuarm.v343_7.20.0.1/os/win32/GNUARM/3.4.3/arm-elf/lib/thumb/soft/interwork/libc.a(s_isnan.o)
 .debug_pubnames
                0x00006255       0x1e C:/Program Files/Ingenico/IngeDev_722/plugins/com.ingenico.ingedev.telium.bin.win32.gnuarm.v343_7.20.0.1/os/win32/GNUARM/3.4.3/arm-elf/lib/thumb/soft/interwork/libc.a(sbrkr.o)
 .debug_pubnames
                0x00006273       0x44 C:/Program Files/Ingenico/IngeDev_722/plugins/com.ingenico.ingedev.telium.bin.win32.gnuarm.v343_7.20.0.1/os/win32/GNUARM/3.4.3/arm-elf/lib/thumb/soft/interwork/libc.a(stdio.o)
 .debug_pubnames
                0x000062b7       0x1f C:/Program Files/Ingenico/IngeDev_722/plugins/com.ingenico.ingedev.telium.bin.win32.gnuarm.v343_7.20.0.1/os/win32/GNUARM/3.4.3/arm-elf/lib/thumb/soft/interwork/libc.a(writer.o)
 .debug_pubnames
                0x000062d6       0x20 C:/Program Files/Ingenico/IngeDev_722/plugins/com.ingenico.ingedev.telium.bin.win32.gnuarm.v343_7.20.0.1/os/win32/GNUARM/3.4.3/arm-elf/lib/thumb/soft/interwork/libc.a(callocr.o)
 .debug_pubnames
                0x000062f6       0x1f C:/Program Files/Ingenico/IngeDev_722/plugins/com.ingenico.ingedev.telium.bin.win32.gnuarm.v343_7.20.0.1/os/win32/GNUARM/3.4.3/arm-elf/lib/thumb/soft/interwork/libc.a(closer.o)
 .debug_pubnames
                0x00006315       0x1f C:/Program Files/Ingenico/IngeDev_722/plugins/com.ingenico.ingedev.telium.bin.win32.gnuarm.v343_7.20.0.1/os/win32/GNUARM/3.4.3/arm-elf/lib/thumb/soft/interwork/libc.a(fstatr.o)
 .debug_pubnames
                0x00006334       0x1f C:/Program Files/Ingenico/IngeDev_722/plugins/com.ingenico.ingedev.telium.bin.win32.gnuarm.v343_7.20.0.1/os/win32/GNUARM/3.4.3/arm-elf/lib/thumb/soft/interwork/libc.a(lseekr.o)
 .debug_pubnames
                0x00006353       0x1e C:/Program Files/Ingenico/IngeDev_722/plugins/com.ingenico.ingedev.telium.bin.win32.gnuarm.v343_7.20.0.1/os/win32/GNUARM/3.4.3/arm-elf/lib/thumb/soft/interwork/libc.a(readr.o)
 .debug_pubnames
                0x00006371       0x52 C:/Program Files/Ingenico/IngeDev_722/plugins/com.ingenico.ingedev.telium.bin.win32.gnuarm.v343_7.20.0.1/os/win32/GNUARM/3.4.3/arm-elf/lib/thumb/soft/interwork/libc.a(reent.o)
 .debug_pubnames
                0x000063c3       0x1f C:/Program Files/Ingenico/IngeDev_722/plugins/com.ingenico.ingedev.telium.bin.win32.gnuarm.v343_7.20.0.1/os/win32/GNUARM/3.4.3/lib/gcc/arm-elf/3.4.3/thumb/soft/interwork/libgcc.a(_muldi3.o)
 .debug_pubnames
                0x000063e2       0x20 C:/Program Files/Ingenico/IngeDev_722/plugins/com.ingenico.ingedev.telium.bin.win32.gnuarm.v343_7.20.0.1/os/win32/GNUARM/3.4.3/lib/gcc/arm-elf/3.4.3/thumb/soft/interwork/libgcc.a(_lshrdi3.o)
 .debug_pubnames
                0x00006402       0x20 C:/Program Files/Ingenico/IngeDev_722/plugins/com.ingenico.ingedev.telium.bin.win32.gnuarm.v343_7.20.0.1/os/win32/GNUARM/3.4.3/lib/gcc/arm-elf/3.4.3/thumb/soft/interwork/libgcc.a(_ashldi3.o)
 .debug_pubnames
                0x00006422       0x20 C:/Program Files/Ingenico/IngeDev_722/plugins/com.ingenico.ingedev.telium.bin.win32.gnuarm.v343_7.20.0.1/os/win32/GNUARM/3.4.3/lib/gcc/arm-elf/3.4.3/thumb/soft/interwork/libgcc.a(_udivdi3.o)
 .debug_pubnames
                0x00006442       0x20 C:/Program Files/Ingenico/IngeDev_722/plugins/com.ingenico.ingedev.telium.bin.win32.gnuarm.v343_7.20.0.1/os/win32/GNUARM/3.4.3/lib/gcc/arm-elf/3.4.3/thumb/soft/interwork/libgcc.a(_clz.o)

.debug_aranges  0x00000000     0x1120
 .debug_aranges
                0x00000000       0x20 Obj/RELEASE_T2/trc.o
 .debug_aranges
                0x00000020       0x20 Obj/RELEASE_T2/tbx.o
 .debug_aranges
                0x00000040       0x20 Obj/RELEASE_T2/tlm.o
 .debug_aranges
                0x00000060       0x20 Obj/RELEASE_T2/tlmhmi.o
 .debug_aranges
                0x00000080       0x20 Obj/RELEASE_T2/tlmmem.o
 .debug_aranges
                0x000000a0       0x20 Obj/RELEASE_T2/std.o
 .debug_aranges
                0x000000c0       0x20 Obj/RELEASE_T2/fmt.o
 .debug_aranges
                0x000000e0       0x20 Obj/RELEASE_T2/dba.o
 .debug_aranges
                0x00000100       0x20 Obj/RELEASE_T2/drv.o
 .debug_aranges
                0x00000120       0x20 Obj/RELEASE_T2/dlg.o
 .debug_aranges
                0x00000140       0x20 Obj/RELEASE_T2/Main.o
 .debug_aranges
                0x00000160       0x20 Obj/RELEASE_T2/sgm.o
 .debug_aranges
                0x00000180       0x20 Obj/RELEASE_T2/map.o
 .debug_aranges
                0x000001a0       0x20 Obj/RELEASE_T2/dft.o
 .debug_aranges
                0x000001c0       0x20 Obj/RELEASE_T2/rpt.o
 .debug_aranges
                0x000001e0       0x20 Obj/RELEASE_T2/scr.o
 .debug_aranges
                0x00000200       0x20 Obj/RELEASE_T2/str.o
 .debug_aranges
                0x00000220       0x20 Obj/RELEASE_T2/hdl.o
 .debug_aranges
                0x00000240       0x20 Obj/RELEASE_T2/val.o
 .debug_aranges
                0x00000260       0x20 Obj/RELEASE_T2/adm.o
 .debug_aranges
                0x00000280       0x20 Obj/RELEASE_T2/emv.o
 .debug_aranges
                0x000002a0       0x20 Obj/RELEASE_T2/function.o
 .debug_aranges
                0x000002c0       0x20 Obj/RELEASE_T2/iso.o
 .debug_aranges
                0x000002e0       0x20 Obj/RELEASE_T2/log.o
 .debug_aranges
                0x00000300       0x20 Obj/RELEASE_T2/onl.o
 .debug_aranges
                0x00000320       0x20 Obj/RELEASE_T2/pmt.o
 .debug_aranges
                0x00000340       0x20 Obj/RELEASE_T2/req.o
 .debug_aranges
                0x00000360       0x20 Obj/RELEASE_T2/rev.o
 .debug_aranges
                0x00000380       0x20 Obj/RELEASE_T2/rsp.o
 .debug_aranges
                0x000003a0       0x20 Obj/RELEASE_T2/tle.o
 .debug_aranges
                0x000003c0       0x20 Obj/RELEASE_T2/tlmchn.o
 .debug_aranges
                0x000003e0       0x20 Obj/RELEASE_T2/tlmcry.o
 .debug_aranges
                0x00000400       0x20 Obj/RELEASE_T2/tlmemv.o
 .debug_aranges
                0x00000420       0x20 Obj/RELEASE_T2/tcan0020.o
 .debug_aranges
                0x00000440       0x20 Obj/RELEASE_T2/BRI.o
 .debug_aranges
                0x00000460       0x20 Obj/RELEASE_T2/LineEncryption.o
 .debug_aranges
                0x00000480       0x20 Obj/RELEASE_T2/AES.o
 .debug_aranges
                0x000004a0       0x20 Obj/RELEASE_T2/keyinject.o
 .debug_aranges
                0x000004c0       0x20 Obj/RELEASE_T2/prepaid.o
 .debug_aranges
                0x000004e0       0x20 Obj/RELEASE_T2/logon.o
 .debug_aranges
                0x00000500       0x20 Obj/RELEASE_T2/rsagen.o
 .debug_aranges
                0x00000520       0x20 Obj/RELEASE_T2/prsa.o
 .debug_aranges
                0x00000540       0x20 Obj/RELEASE_T2/bignum.o
 .debug_aranges
                0x00000560       0x20 Obj/RELEASE_T2/havege.o
 .debug_aranges
                0x00000580       0x20 Obj/RELEASE_T2/timing.o
 .debug_aranges
                0x000005a0       0x20 libs/GNU_ARM_RELEASE/RSA.lib(RSA_dec.o)
 .debug_aranges
                0x000005c0       0x20 libs/GNU_ARM_RELEASE/RSA.lib(RSA_init.o)
 .debug_aranges
                0x000005e0       0x20 libs/GNU_ARM_RELEASE/RSA.lib(m_add.o)
 .debug_aranges
                0x00000600       0x20 libs/GNU_ARM_RELEASE/RSA.lib(m_b2w.o)
 .debug_aranges
                0x00000620       0x20 libs/GNU_ARM_RELEASE/RSA.lib(m_clr.o)
 .debug_aranges
                0x00000640       0x20 libs/GNU_ARM_RELEASE/RSA.lib(m_cmp.o)
 .debug_aranges
                0x00000660       0x20 libs/GNU_ARM_RELEASE/RSA.lib(m_cpy.o)
 .debug_aranges
                0x00000680       0x20 libs/GNU_ARM_RELEASE/RSA.lib(m_div.o)
 .debug_aranges
                0x000006a0       0x20 libs/GNU_ARM_RELEASE/RSA.lib(m_mem.o)
 .debug_aranges
                0x000006c0       0x20 libs/GNU_ARM_RELEASE/RSA.lib(m_modmul.o)
 .debug_aranges
                0x000006e0       0x20 libs/GNU_ARM_RELEASE/RSA.lib(m_monexp.o)
 .debug_aranges
                0x00000700       0x20 libs/GNU_ARM_RELEASE/RSA.lib(m_moninv.o)
 .debug_aranges
                0x00000720       0x20 libs/GNU_ARM_RELEASE/RSA.lib(m_monmul.o)
 .debug_aranges
                0x00000740       0x20 libs/GNU_ARM_RELEASE/RSA.lib(m_msb.o)
 .debug_aranges
                0x00000760       0x20 libs/GNU_ARM_RELEASE/RSA.lib(m_mul.o)
 .debug_aranges
                0x00000780       0x20 libs/GNU_ARM_RELEASE/RSA.lib(m_mulsub.o)
 .debug_aranges
                0x000007a0       0x20 libs/GNU_ARM_RELEASE/RSA.lib(m_rand.o)
 .debug_aranges
                0x000007c0       0x20 libs/GNU_ARM_RELEASE/RSA.lib(m_red.o)
 .debug_aranges
                0x000007e0       0x20 libs/GNU_ARM_RELEASE/RSA.lib(m_shlx.o)
 .debug_aranges
                0x00000800       0x20 libs/GNU_ARM_RELEASE/RSA.lib(m_shrx.o)
 .debug_aranges
                0x00000820       0x20 libs/GNU_ARM_RELEASE/RSA.lib(m_sub.o)
 .debug_aranges
                0x00000840       0x20 libs/GNU_ARM_RELEASE/RSA.lib(m_w2b.o)
 .debug_aranges
                0x00000860       0x20 C:/Program Files/SDK30/SDK 9.20.0.01/SDK/lib_gnu/IP_.lib(EthernetConfig.o)
 .debug_aranges
                0x00000880       0x20 C:/Program Files/SDK30/SDK 9.20.0.01/SDK/lib_gnu/IP_.lib(Telium_IP_Host.o)
 .debug_aranges
                0x000008a0       0x20 C:/Program Files/SDK30/SDK 9.20.0.01/SDK/lib_gnu/IP_.lib(Telium_IP_Inet.o)
 .debug_aranges
                0x000008c0       0x20 C:/Program Files/SDK30/SDK 9.20.0.01/SDK/lib_gnu/IP_.lib(Telium_IP_Socket.o)
 .debug_aranges
                0x000008e0       0x20 C:/Program Files/Ingenico/IngeDev_722/plugins/com.ingenico.ingedev.telium.bin.win32.gnuarm.v343_7.20.0.1/os/win32/GNUARM/3.4.3/arm-elf/lib/thumb/soft/interwork/libc.a(atoi.o)
 .debug_aranges
                0x00000900       0x20 C:/Program Files/Ingenico/IngeDev_722/plugins/com.ingenico.ingedev.telium.bin.win32.gnuarm.v343_7.20.0.1/os/win32/GNUARM/3.4.3/arm-elf/lib/thumb/soft/interwork/libc.a(atol.o)
 .debug_aranges
                0x00000920       0x20 C:/Program Files/Ingenico/IngeDev_722/plugins/com.ingenico.ingedev.telium.bin.win32.gnuarm.v343_7.20.0.1/os/win32/GNUARM/3.4.3/arm-elf/lib/thumb/soft/interwork/libc.a(exit.o)
 .debug_aranges
                0x00000940       0x20 C:/Program Files/Ingenico/IngeDev_722/plugins/com.ingenico.ingedev.telium.bin.win32.gnuarm.v343_7.20.0.1/os/win32/GNUARM/3.4.3/arm-elf/lib/thumb/soft/interwork/libc.a(memcmp.o)
 .debug_aranges
                0x00000960       0x20 C:/Program Files/Ingenico/IngeDev_722/plugins/com.ingenico.ingedev.telium.bin.win32.gnuarm.v343_7.20.0.1/os/win32/GNUARM/3.4.3/arm-elf/lib/thumb/soft/interwork/libc.a(memcpy.o)
 .debug_aranges
                0x00000980       0x20 C:/Program Files/Ingenico/IngeDev_722/plugins/com.ingenico.ingedev.telium.bin.win32.gnuarm.v343_7.20.0.1/os/win32/GNUARM/3.4.3/arm-elf/lib/thumb/soft/interwork/libc.a(memmove.o)
 .debug_aranges
                0x000009a0       0x20 C:/Program Files/Ingenico/IngeDev_722/plugins/com.ingenico.ingedev.telium.bin.win32.gnuarm.v343_7.20.0.1/os/win32/GNUARM/3.4.3/arm-elf/lib/thumb/soft/interwork/libc.a(memset.o)
 .debug_aranges
                0x000009c0       0x20 C:/Program Files/Ingenico/IngeDev_722/plugins/com.ingenico.ingedev.telium.bin.win32.gnuarm.v343_7.20.0.1/os/win32/GNUARM/3.4.3/arm-elf/lib/thumb/soft/interwork/libc.a(rand.o)
 .debug_aranges
                0x000009e0       0x20 C:/Program Files/Ingenico/IngeDev_722/plugins/com.ingenico.ingedev.telium.bin.win32.gnuarm.v343_7.20.0.1/os/win32/GNUARM/3.4.3/arm-elf/lib/thumb/soft/interwork/libc.a(snprintf.o)
 .debug_aranges
                0x00000a00       0x20 C:/Program Files/Ingenico/IngeDev_722/plugins/com.ingenico.ingedev.telium.bin.win32.gnuarm.v343_7.20.0.1/os/win32/GNUARM/3.4.3/arm-elf/lib/thumb/soft/interwork/libc.a(strcasecmp.o)
 .debug_aranges
                0x00000a20       0x20 C:/Program Files/Ingenico/IngeDev_722/plugins/com.ingenico.ingedev.telium.bin.win32.gnuarm.v343_7.20.0.1/os/win32/GNUARM/3.4.3/arm-elf/lib/thumb/soft/interwork/libc.a(strcat.o)
 .debug_aranges
                0x00000a40       0x20 C:/Program Files/Ingenico/IngeDev_722/plugins/com.ingenico.ingedev.telium.bin.win32.gnuarm.v343_7.20.0.1/os/win32/GNUARM/3.4.3/arm-elf/lib/thumb/soft/interwork/libc.a(strchr.o)
 .debug_aranges
                0x00000a60       0x20 C:/Program Files/Ingenico/IngeDev_722/plugins/com.ingenico.ingedev.telium.bin.win32.gnuarm.v343_7.20.0.1/os/win32/GNUARM/3.4.3/arm-elf/lib/thumb/soft/interwork/libc.a(strcmp.o)
 .debug_aranges
                0x00000a80       0x20 C:/Program Files/Ingenico/IngeDev_722/plugins/com.ingenico.ingedev.telium.bin.win32.gnuarm.v343_7.20.0.1/os/win32/GNUARM/3.4.3/arm-elf/lib/thumb/soft/interwork/libc.a(strcpy.o)
 .debug_aranges
                0x00000aa0       0x20 C:/Program Files/Ingenico/IngeDev_722/plugins/com.ingenico.ingedev.telium.bin.win32.gnuarm.v343_7.20.0.1/os/win32/GNUARM/3.4.3/arm-elf/lib/thumb/soft/interwork/libc.a(strlen.o)
 .debug_aranges
                0x00000ac0       0x20 C:/Program Files/Ingenico/IngeDev_722/plugins/com.ingenico.ingedev.telium.bin.win32.gnuarm.v343_7.20.0.1/os/win32/GNUARM/3.4.3/arm-elf/lib/thumb/soft/interwork/libc.a(strncpy.o)
 .debug_aranges
                0x00000ae0       0x20 C:/Program Files/Ingenico/IngeDev_722/plugins/com.ingenico.ingedev.telium.bin.win32.gnuarm.v343_7.20.0.1/os/win32/GNUARM/3.4.3/arm-elf/lib/thumb/soft/interwork/libc.a(strstr.o)
 .debug_aranges
                0x00000b00       0x20 C:/Program Files/Ingenico/IngeDev_722/plugins/com.ingenico.ingedev.telium.bin.win32.gnuarm.v343_7.20.0.1/os/win32/GNUARM/3.4.3/arm-elf/lib/thumb/soft/interwork/libc.a(strtol.o)
 .debug_aranges
                0x00000b20       0x20 C:/Program Files/Ingenico/IngeDev_722/plugins/com.ingenico.ingedev.telium.bin.win32.gnuarm.v343_7.20.0.1/os/win32/GNUARM/3.4.3/arm-elf/lib/thumb/soft/interwork/libc.a(strtoul.o)
 .debug_aranges
                0x00000b40       0x20 C:/Program Files/Ingenico/IngeDev_722/plugins/com.ingenico.ingedev.telium.bin.win32.gnuarm.v343_7.20.0.1/os/win32/GNUARM/3.4.3/arm-elf/lib/thumb/soft/interwork/libc.a(syscalls.o)
 .debug_aranges
                0x00000b60       0x20 C:/Program Files/Ingenico/IngeDev_722/plugins/com.ingenico.ingedev.telium.bin.win32.gnuarm.v343_7.20.0.1/os/win32/GNUARM/3.4.3/arm-elf/lib/thumb/soft/interwork/libc.a(vfprintf.o)
 .debug_aranges
                0x00000b80       0x20 C:/Program Files/Ingenico/IngeDev_722/plugins/com.ingenico.ingedev.telium.bin.win32.gnuarm.v343_7.20.0.1/os/win32/GNUARM/3.4.3/arm-elf/lib/thumb/soft/interwork/libc.a(wcrtomb.o)
 .debug_aranges
                0x00000ba0       0x20 C:/Program Files/Ingenico/IngeDev_722/plugins/com.ingenico.ingedev.telium.bin.win32.gnuarm.v343_7.20.0.1/os/win32/GNUARM/3.4.3/arm-elf/lib/thumb/soft/interwork/libc.a(wcsrtombs.o)
 .debug_aranges
                0x00000bc0       0x20 C:/Program Files/Ingenico/IngeDev_722/plugins/com.ingenico.ingedev.telium.bin.win32.gnuarm.v343_7.20.0.1/os/win32/GNUARM/3.4.3/arm-elf/lib/thumb/soft/interwork/libc.a(wctomb_r.o)
 .debug_aranges
                0x00000be0       0x20 C:/Program Files/Ingenico/IngeDev_722/plugins/com.ingenico.ingedev.telium.bin.win32.gnuarm.v343_7.20.0.1/os/win32/GNUARM/3.4.3/arm-elf/lib/thumb/soft/interwork/libc.a(wsetup.o)
 .debug_aranges
                0x00000c00       0x20 C:/Program Files/Ingenico/IngeDev_722/plugins/com.ingenico.ingedev.telium.bin.win32.gnuarm.v343_7.20.0.1/os/win32/GNUARM/3.4.3/arm-elf/lib/thumb/soft/interwork/libc.a(__call_atexit.o)
 .debug_aranges
                0x00000c20       0x20 C:/Program Files/Ingenico/IngeDev_722/plugins/com.ingenico.ingedev.telium.bin.win32.gnuarm.v343_7.20.0.1/os/win32/GNUARM/3.4.3/arm-elf/lib/thumb/soft/interwork/libc.a(dtoa.o)
 .debug_aranges
                0x00000c40       0x20 C:/Program Files/Ingenico/IngeDev_722/plugins/com.ingenico.ingedev.telium.bin.win32.gnuarm.v343_7.20.0.1/os/win32/GNUARM/3.4.3/arm-elf/lib/thumb/soft/interwork/libc.a(errno.o)
 .debug_aranges
                0x00000c60       0x20 C:/Program Files/Ingenico/IngeDev_722/plugins/com.ingenico.ingedev.telium.bin.win32.gnuarm.v343_7.20.0.1/os/win32/GNUARM/3.4.3/arm-elf/lib/thumb/soft/interwork/libc.a(fflush.o)
 .debug_aranges
                0x00000c80       0x20 C:/Program Files/Ingenico/IngeDev_722/plugins/com.ingenico.ingedev.telium.bin.win32.gnuarm.v343_7.20.0.1/os/win32/GNUARM/3.4.3/arm-elf/lib/thumb/soft/interwork/libc.a(findfp.o)
 .debug_aranges
                0x00000ca0       0x20 C:/Program Files/Ingenico/IngeDev_722/plugins/com.ingenico.ingedev.telium.bin.win32.gnuarm.v343_7.20.0.1/os/win32/GNUARM/3.4.3/arm-elf/lib/thumb/soft/interwork/libc.a(freer.o)
 .debug_aranges
                0x00000cc0       0x20 C:/Program Files/Ingenico/IngeDev_722/plugins/com.ingenico.ingedev.telium.bin.win32.gnuarm.v343_7.20.0.1/os/win32/GNUARM/3.4.3/arm-elf/lib/thumb/soft/interwork/libc.a(fvwrite.o)
 .debug_aranges
                0x00000ce0       0x20 C:/Program Files/Ingenico/IngeDev_722/plugins/com.ingenico.ingedev.telium.bin.win32.gnuarm.v343_7.20.0.1/os/win32/GNUARM/3.4.3/arm-elf/lib/thumb/soft/interwork/libc.a(fwalk.o)
 .debug_aranges
                0x00000d00       0x20 C:/Program Files/Ingenico/IngeDev_722/plugins/com.ingenico.ingedev.telium.bin.win32.gnuarm.v343_7.20.0.1/os/win32/GNUARM/3.4.3/arm-elf/lib/thumb/soft/interwork/libc.a(locale.o)
 .debug_aranges
                0x00000d20       0x20 C:/Program Files/Ingenico/IngeDev_722/plugins/com.ingenico.ingedev.telium.bin.win32.gnuarm.v343_7.20.0.1/os/win32/GNUARM/3.4.3/arm-elf/lib/thumb/soft/interwork/libc.a(makebuf.o)
 .debug_aranges
                0x00000d40       0x20 C:/Program Files/Ingenico/IngeDev_722/plugins/com.ingenico.ingedev.telium.bin.win32.gnuarm.v343_7.20.0.1/os/win32/GNUARM/3.4.3/arm-elf/lib/thumb/soft/interwork/libc.a(malloc.o)
 .debug_aranges
                0x00000d60       0x20 C:/Program Files/Ingenico/IngeDev_722/plugins/com.ingenico.ingedev.telium.bin.win32.gnuarm.v343_7.20.0.1/os/win32/GNUARM/3.4.3/arm-elf/lib/thumb/soft/interwork/libc.a(mallocr.o)
 .debug_aranges
                0x00000d80       0x20 C:/Program Files/Ingenico/IngeDev_722/plugins/com.ingenico.ingedev.telium.bin.win32.gnuarm.v343_7.20.0.1/os/win32/GNUARM/3.4.3/arm-elf/lib/thumb/soft/interwork/libc.a(memchr.o)
 .debug_aranges
                0x00000da0       0x20 C:/Program Files/Ingenico/IngeDev_722/plugins/com.ingenico.ingedev.telium.bin.win32.gnuarm.v343_7.20.0.1/os/win32/GNUARM/3.4.3/arm-elf/lib/thumb/soft/interwork/libc.a(mlock.o)
 .debug_aranges
                0x00000dc0       0x20 C:/Program Files/Ingenico/IngeDev_722/plugins/com.ingenico.ingedev.telium.bin.win32.gnuarm.v343_7.20.0.1/os/win32/GNUARM/3.4.3/arm-elf/lib/thumb/soft/interwork/libc.a(mprec.o)
 .debug_aranges
                0x00000de0       0x20 C:/Program Files/Ingenico/IngeDev_722/plugins/com.ingenico.ingedev.telium.bin.win32.gnuarm.v343_7.20.0.1/os/win32/GNUARM/3.4.3/arm-elf/lib/thumb/soft/interwork/libc.a(reallocr.o)
 .debug_aranges
                0x00000e00       0x20 C:/Program Files/Ingenico/IngeDev_722/plugins/com.ingenico.ingedev.telium.bin.win32.gnuarm.v343_7.20.0.1/os/win32/GNUARM/3.4.3/arm-elf/lib/thumb/soft/interwork/libc.a(s_isinf.o)
 .debug_aranges
                0x00000e20       0x20 C:/Program Files/Ingenico/IngeDev_722/plugins/com.ingenico.ingedev.telium.bin.win32.gnuarm.v343_7.20.0.1/os/win32/GNUARM/3.4.3/arm-elf/lib/thumb/soft/interwork/libc.a(s_isnan.o)
 .debug_aranges
                0x00000e40       0x20 C:/Program Files/Ingenico/IngeDev_722/plugins/com.ingenico.ingedev.telium.bin.win32.gnuarm.v343_7.20.0.1/os/win32/GNUARM/3.4.3/arm-elf/lib/thumb/soft/interwork/libc.a(sbrkr.o)
 .debug_aranges
                0x00000e60       0x20 C:/Program Files/Ingenico/IngeDev_722/plugins/com.ingenico.ingedev.telium.bin.win32.gnuarm.v343_7.20.0.1/os/win32/GNUARM/3.4.3/arm-elf/lib/thumb/soft/interwork/libc.a(stdio.o)
 .debug_aranges
                0x00000e80       0x20 C:/Program Files/Ingenico/IngeDev_722/plugins/com.ingenico.ingedev.telium.bin.win32.gnuarm.v343_7.20.0.1/os/win32/GNUARM/3.4.3/arm-elf/lib/thumb/soft/interwork/libc.a(writer.o)
 .debug_aranges
                0x00000ea0       0x20 C:/Program Files/Ingenico/IngeDev_722/plugins/com.ingenico.ingedev.telium.bin.win32.gnuarm.v343_7.20.0.1/os/win32/GNUARM/3.4.3/arm-elf/lib/thumb/soft/interwork/libc.a(callocr.o)
 .debug_aranges
                0x00000ec0       0x20 C:/Program Files/Ingenico/IngeDev_722/plugins/com.ingenico.ingedev.telium.bin.win32.gnuarm.v343_7.20.0.1/os/win32/GNUARM/3.4.3/arm-elf/lib/thumb/soft/interwork/libc.a(closer.o)
 .debug_aranges
                0x00000ee0       0x20 C:/Program Files/Ingenico/IngeDev_722/plugins/com.ingenico.ingedev.telium.bin.win32.gnuarm.v343_7.20.0.1/os/win32/GNUARM/3.4.3/arm-elf/lib/thumb/soft/interwork/libc.a(fstatr.o)
 .debug_aranges
                0x00000f00       0x20 C:/Program Files/Ingenico/IngeDev_722/plugins/com.ingenico.ingedev.telium.bin.win32.gnuarm.v343_7.20.0.1/os/win32/GNUARM/3.4.3/arm-elf/lib/thumb/soft/interwork/libc.a(lseekr.o)
 .debug_aranges
                0x00000f20       0x20 C:/Program Files/Ingenico/IngeDev_722/plugins/com.ingenico.ingedev.telium.bin.win32.gnuarm.v343_7.20.0.1/os/win32/GNUARM/3.4.3/arm-elf/lib/thumb/soft/interwork/libc.a(readr.o)
 .debug_aranges
                0x00000f40       0x20 C:/Program Files/Ingenico/IngeDev_722/plugins/com.ingenico.ingedev.telium.bin.win32.gnuarm.v343_7.20.0.1/os/win32/GNUARM/3.4.3/arm-elf/lib/thumb/soft/interwork/libc.a(reent.o)
 .debug_aranges
                0x00000f60       0x20 C:/Program Files/Ingenico/IngeDev_722/plugins/com.ingenico.ingedev.telium.bin.win32.gnuarm.v343_7.20.0.1/os/win32/GNUARM/3.4.3/lib/gcc/arm-elf/3.4.3/thumb/soft/interwork/libgcc.a(_udivsi3.o)
 .debug_aranges
                0x00000f80       0x20 C:/Program Files/Ingenico/IngeDev_722/plugins/com.ingenico.ingedev.telium.bin.win32.gnuarm.v343_7.20.0.1/os/win32/GNUARM/3.4.3/lib/gcc/arm-elf/3.4.3/thumb/soft/interwork/libgcc.a(_divsi3.o)
 .debug_aranges
                0x00000fa0       0x20 C:/Program Files/Ingenico/IngeDev_722/plugins/com.ingenico.ingedev.telium.bin.win32.gnuarm.v343_7.20.0.1/os/win32/GNUARM/3.4.3/lib/gcc/arm-elf/3.4.3/thumb/soft/interwork/libgcc.a(_umodsi3.o)
 .debug_aranges
                0x00000fc0       0x20 C:/Program Files/Ingenico/IngeDev_722/plugins/com.ingenico.ingedev.telium.bin.win32.gnuarm.v343_7.20.0.1/os/win32/GNUARM/3.4.3/lib/gcc/arm-elf/3.4.3/thumb/soft/interwork/libgcc.a(_modsi3.o)
 .debug_aranges
                0x00000fe0       0x20 C:/Program Files/Ingenico/IngeDev_722/plugins/com.ingenico.ingedev.telium.bin.win32.gnuarm.v343_7.20.0.1/os/win32/GNUARM/3.4.3/lib/gcc/arm-elf/3.4.3/thumb/soft/interwork/libgcc.a(_dvmd_tls.o)
 .debug_aranges
                0x00001000       0x20 C:/Program Files/Ingenico/IngeDev_722/plugins/com.ingenico.ingedev.telium.bin.win32.gnuarm.v343_7.20.0.1/os/win32/GNUARM/3.4.3/lib/gcc/arm-elf/3.4.3/thumb/soft/interwork/libgcc.a(_call_via_rX.o)
 .debug_aranges
                0x00001020       0x20 C:/Program Files/Ingenico/IngeDev_722/plugins/com.ingenico.ingedev.telium.bin.win32.gnuarm.v343_7.20.0.1/os/win32/GNUARM/3.4.3/lib/gcc/arm-elf/3.4.3/thumb/soft/interwork/libgcc.a(_addsubdf3.o)
 .debug_aranges
                0x00001040       0x20 C:/Program Files/Ingenico/IngeDev_722/plugins/com.ingenico.ingedev.telium.bin.win32.gnuarm.v343_7.20.0.1/os/win32/GNUARM/3.4.3/lib/gcc/arm-elf/3.4.3/thumb/soft/interwork/libgcc.a(_muldivdf3.o)
 .debug_aranges
                0x00001060       0x20 C:/Program Files/Ingenico/IngeDev_722/plugins/com.ingenico.ingedev.telium.bin.win32.gnuarm.v343_7.20.0.1/os/win32/GNUARM/3.4.3/lib/gcc/arm-elf/3.4.3/thumb/soft/interwork/libgcc.a(_cmpdf2.o)
 .debug_aranges
                0x00001080       0x20 C:/Program Files/Ingenico/IngeDev_722/plugins/com.ingenico.ingedev.telium.bin.win32.gnuarm.v343_7.20.0.1/os/win32/GNUARM/3.4.3/lib/gcc/arm-elf/3.4.3/thumb/soft/interwork/libgcc.a(_fixdfsi.o)
 .debug_aranges
                0x000010a0       0x20 C:/Program Files/Ingenico/IngeDev_722/plugins/com.ingenico.ingedev.telium.bin.win32.gnuarm.v343_7.20.0.1/os/win32/GNUARM/3.4.3/lib/gcc/arm-elf/3.4.3/thumb/soft/interwork/libgcc.a(_muldi3.o)
 .debug_aranges
                0x000010c0       0x20 C:/Program Files/Ingenico/IngeDev_722/plugins/com.ingenico.ingedev.telium.bin.win32.gnuarm.v343_7.20.0.1/os/win32/GNUARM/3.4.3/lib/gcc/arm-elf/3.4.3/thumb/soft/interwork/libgcc.a(_lshrdi3.o)
 .debug_aranges
                0x000010e0       0x20 C:/Program Files/Ingenico/IngeDev_722/plugins/com.ingenico.ingedev.telium.bin.win32.gnuarm.v343_7.20.0.1/os/win32/GNUARM/3.4.3/lib/gcc/arm-elf/3.4.3/thumb/soft/interwork/libgcc.a(_ashldi3.o)
 .debug_aranges
                0x00001100       0x20 C:/Program Files/Ingenico/IngeDev_722/plugins/com.ingenico.ingedev.telium.bin.win32.gnuarm.v343_7.20.0.1/os/win32/GNUARM/3.4.3/lib/gcc/arm-elf/3.4.3/thumb/soft/interwork/libgcc.a(_udivdi3.o)

.debug_str      0x00000000     0x4944
 .debug_str     0x00000000       0x12 Obj/RELEASE_T2/trc.o
 .debug_str     0x00000012       0x18 Obj/RELEASE_T2/tbx.o
 .debug_str     0x0000002a       0x40 Obj/RELEASE_T2/tlm.o
 .debug_str     0x0000006a       0x18 Obj/RELEASE_T2/tlmhmi.o
 .debug_str     0x00000082       0x38 Obj/RELEASE_T2/tlmmem.o
 .debug_str     0x000000ba       0x1f Obj/RELEASE_T2/std.o
 .debug_str     0x000000d9       0x12 Obj/RELEASE_T2/fmt.o
 .debug_str     0x000000eb       0x32 Obj/RELEASE_T2/dba.o
 .debug_str     0x0000011d       0x18 Obj/RELEASE_T2/drv.o
 .debug_str     0x00000135       0x33 Obj/RELEASE_T2/dlg.o
 .debug_str     0x00000168      0x12f Obj/RELEASE_T2/Main.o
 .debug_str     0x00000297       0x6c Obj/RELEASE_T2/sgm.o
 .debug_str     0x00000303       0x1f Obj/RELEASE_T2/map.o
 .debug_str     0x00000322       0x1f Obj/RELEASE_T2/dft.o
 .debug_str     0x00000341       0x12 Obj/RELEASE_T2/rpt.o
 .debug_str     0x00000353       0x1f Obj/RELEASE_T2/scr.o
 .debug_str     0x00000372       0x4a Obj/RELEASE_T2/str.o
 .debug_str     0x000003bc       0x2d Obj/RELEASE_T2/hdl.o
 .debug_str     0x000003e9       0x40 Obj/RELEASE_T2/val.o
 .debug_str     0x00000429       0x61 Obj/RELEASE_T2/adm.o
 .debug_str     0x0000048a       0x42 Obj/RELEASE_T2/emv.o
 .debug_str     0x000004cc       0x35 Obj/RELEASE_T2/function.o
 .debug_str     0x00000501       0x12 Obj/RELEASE_T2/iso.o
 .debug_str     0x00000513      0x1d9 Obj/RELEASE_T2/log.o
 .debug_str     0x000006ec       0x1f Obj/RELEASE_T2/onl.o
 .debug_str     0x0000070b       0x85 Obj/RELEASE_T2/pmt.o
 .debug_str     0x00000790       0x2e Obj/RELEASE_T2/req.o
 .debug_str     0x000007be       0x19 Obj/RELEASE_T2/rev.o
 .debug_str     0x000007d7       0x3d Obj/RELEASE_T2/rsp.o
 .debug_str     0x00000814       0x4b Obj/RELEASE_T2/tle.o
 .debug_str     0x0000085f       0x12 Obj/RELEASE_T2/cmm.o
 .debug_str     0x00000871       0x4f Obj/RELEASE_T2/tlmchn.o
 .debug_str     0x000008c0       0x36 Obj/RELEASE_T2/tlmcry.o
 .debug_str     0x000008f6       0x5f Obj/RELEASE_T2/tlmemv.o
 .debug_str     0x00000955       0x12 Obj/RELEASE_T2/tcan0020.o
 .debug_str     0x00000967      0x2aa Obj/RELEASE_T2/BRI.o
 .debug_str     0x00000c11       0x67 Obj/RELEASE_T2/LineEncryption.o
 .debug_str     0x00000c78       0x27 Obj/RELEASE_T2/AES.o
 .debug_str     0x00000c9f       0x44 Obj/RELEASE_T2/keyinject.o
 .debug_str     0x00000ce3       0xb7 Obj/RELEASE_T2/prepaid.o
 .debug_str     0x00000d9a       0x12 Obj/RELEASE_T2/logon.o
 .debug_str     0x00000dac       0x12 Obj/RELEASE_T2/rsagen.o
 .debug_str     0x00000dbe       0x1b Obj/RELEASE_T2/prsa.o
 .debug_str     0x00000dd9       0x2e Obj/RELEASE_T2/bignum.o
 .debug_str     0x00000e07       0x12 Obj/RELEASE_T2/havege.o
 .debug_str     0x00000e19       0x12 Obj/RELEASE_T2/timing.o
 .debug_str     0x00000e2b      0x138 libs/GNU_ARM_RELEASE/RSA.lib(RSA_dec.o)
                                0x16e (size before relaxing)
 .debug_str     0x00000f63       0x5a libs/GNU_ARM_RELEASE/RSA.lib(RSA_init.o)
                                 0xc2 (size before relaxing)
 .debug_str     0x00000fbd       0x67 libs/GNU_ARM_RELEASE/RSA.lib(m_add.o)
                                 0xec (size before relaxing)
 .debug_str     0x00001024       0x79 libs/GNU_ARM_RELEASE/RSA.lib(m_b2w.o)
                                 0xf9 (size before relaxing)
 .debug_str     0x0000109d       0x50 libs/GNU_ARM_RELEASE/RSA.lib(m_clr.o)
                                 0xcf (size before relaxing)
 .debug_str     0x000010ed       0x5a libs/GNU_ARM_RELEASE/RSA.lib(m_cmp.o)
                                 0xdd (size before relaxing)
 .debug_str     0x00001147       0x50 libs/GNU_ARM_RELEASE/RSA.lib(m_cpy.o)
                                 0xcf (size before relaxing)
 .debug_str     0x00001197       0x8e libs/GNU_ARM_RELEASE/RSA.lib(m_div.o)
                                0x130 (size before relaxing)
 .debug_str     0x00001225       0x9a libs/GNU_ARM_RELEASE/RSA.lib(m_mem.o)
                                0x121 (size before relaxing)
 .debug_str     0x000012bf       0x56 libs/GNU_ARM_RELEASE/RSA.lib(m_modmul.o)
                                 0xd5 (size before relaxing)
 .debug_str     0x00001315       0x65 libs/GNU_ARM_RELEASE/RSA.lib(m_monexp.o)
                                 0xfc (size before relaxing)
 .debug_str     0x0000137a       0x56 libs/GNU_ARM_RELEASE/RSA.lib(m_moninv.o)
                                 0xdf (size before relaxing)
 .debug_str     0x000013d0       0x56 libs/GNU_ARM_RELEASE/RSA.lib(m_monmul.o)
                                 0xd5 (size before relaxing)
 .debug_str     0x00001426       0x50 libs/GNU_ARM_RELEASE/RSA.lib(m_msb.o)
                                 0xd4 (size before relaxing)
 .debug_str     0x00001476       0x61 libs/GNU_ARM_RELEASE/RSA.lib(m_mul.o)
                                0x102 (size before relaxing)
 .debug_str     0x000014d7       0x5d libs/GNU_ARM_RELEASE/RSA.lib(m_mulsub.o)
                                 0xfd (size before relaxing)
 .debug_str     0x00001534       0x75 libs/GNU_ARM_RELEASE/RSA.lib(m_rand.o)
                                0x119 (size before relaxing)
 .debug_str     0x000015a9       0x64 libs/GNU_ARM_RELEASE/RSA.lib(m_red.o)
                                0x100 (size before relaxing)
 .debug_str     0x0000160d       0x67 libs/GNU_ARM_RELEASE/RSA.lib(m_shlx.o)
                                0x109 (size before relaxing)
 .debug_str     0x00001674       0x52 libs/GNU_ARM_RELEASE/RSA.lib(m_shrx.o)
                                0x109 (size before relaxing)
 .debug_str     0x000016c6       0x5e libs/GNU_ARM_RELEASE/RSA.lib(m_sub.o)
                                 0xec (size before relaxing)
 .debug_str     0x00001724       0x57 libs/GNU_ARM_RELEASE/RSA.lib(m_w2b.o)
                                 0xee (size before relaxing)
 .debug_str     0x0000177b      0xb46 C:/Program Files/SDK30/SDK 9.20.0.01/SDK/lib_gnu/IP_.lib(EthernetConfig.o)
                                0xcdc (size before relaxing)
 .debug_str     0x000022c1       0xf2 C:/Program Files/SDK30/SDK 9.20.0.01/SDK/lib_gnu/IP_.lib(Telium_IP_Host.o)
                                0x1aa (size before relaxing)
 .debug_str     0x000023b3       0xcc C:/Program Files/SDK30/SDK 9.20.0.01/SDK/lib_gnu/IP_.lib(Telium_IP_Inet.o)
                                0x17d (size before relaxing)
 .debug_str     0x0000247f       0xeb C:/Program Files/SDK30/SDK 9.20.0.01/SDK/lib_gnu/IP_.lib(Telium_IP_Socket.o)
                                0x1df (size before relaxing)
 .debug_str     0x0000256a      0x3e3 C:/Program Files/Ingenico/IngeDev_722/plugins/com.ingenico.ingedev.telium.bin.win32.gnuarm.v343_7.20.0.1/os/win32/GNUARM/3.4.3/arm-elf/lib/thumb/soft/interwork/libc.a(atoi.o)
                                0x4dd (size before relaxing)
 .debug_str     0x0000294d       0x54 C:/Program Files/Ingenico/IngeDev_722/plugins/com.ingenico.ingedev.telium.bin.win32.gnuarm.v343_7.20.0.1/os/win32/GNUARM/3.4.3/arm-elf/lib/thumb/soft/interwork/libc.a(atol.o)
                                0x4dd (size before relaxing)
 .debug_str     0x000029a1       0x5f C:/Program Files/Ingenico/IngeDev_722/plugins/com.ingenico.ingedev.telium.bin.win32.gnuarm.v343_7.20.0.1/os/win32/GNUARM/3.4.3/arm-elf/lib/thumb/soft/interwork/libc.a(exit.o)
                                0x4ed (size before relaxing)
 .debug_str     0x00002a00       0xbe C:/Program Files/Ingenico/IngeDev_722/plugins/com.ingenico.ingedev.telium.bin.win32.gnuarm.v343_7.20.0.1/os/win32/GNUARM/3.4.3/arm-elf/lib/thumb/soft/interwork/libc.a(impure.o)
                                0x4fb (size before relaxing)
 .debug_str     0x00002abe       0xbb C:/Program Files/Ingenico/IngeDev_722/plugins/com.ingenico.ingedev.telium.bin.win32.gnuarm.v343_7.20.0.1/os/win32/GNUARM/3.4.3/arm-elf/lib/thumb/soft/interwork/libc.a(memcmp.o)
                                0x14b (size before relaxing)
 .debug_str     0x00002b79       0x5f C:/Program Files/Ingenico/IngeDev_722/plugins/com.ingenico.ingedev.telium.bin.win32.gnuarm.v343_7.20.0.1/os/win32/GNUARM/3.4.3/arm-elf/lib/thumb/soft/interwork/libc.a(memcpy.o)
                                0x102 (size before relaxing)
 .debug_str     0x00002bd8       0x64 C:/Program Files/Ingenico/IngeDev_722/plugins/com.ingenico.ingedev.telium.bin.win32.gnuarm.v343_7.20.0.1/os/win32/GNUARM/3.4.3/arm-elf/lib/thumb/soft/interwork/libc.a(memmove.o)
                                0x166 (size before relaxing)
 .debug_str     0x00002c3c       0x50 C:/Program Files/Ingenico/IngeDev_722/plugins/com.ingenico.ingedev.telium.bin.win32.gnuarm.v343_7.20.0.1/os/win32/GNUARM/3.4.3/arm-elf/lib/thumb/soft/interwork/libc.a(memset.o)
                                0x14b (size before relaxing)
 .debug_str     0x00002c8c       0x4d C:/Program Files/Ingenico/IngeDev_722/plugins/com.ingenico.ingedev.telium.bin.win32.gnuarm.v343_7.20.0.1/os/win32/GNUARM/3.4.3/arm-elf/lib/thumb/soft/interwork/libc.a(rand.o)
                                0x4ec (size before relaxing)
 .debug_str     0x00002cd9       0xd8 C:/Program Files/Ingenico/IngeDev_722/plugins/com.ingenico.ingedev.telium.bin.win32.gnuarm.v343_7.20.0.1/os/win32/GNUARM/3.4.3/arm-elf/lib/thumb/soft/interwork/libc.a(snprintf.o)
                                0x51b (size before relaxing)
 .debug_str     0x00002db1       0x60 C:/Program Files/Ingenico/IngeDev_722/plugins/com.ingenico.ingedev.telium.bin.win32.gnuarm.v343_7.20.0.1/os/win32/GNUARM/3.4.3/arm-elf/lib/thumb/soft/interwork/libc.a(strcasecmp.o)
                                0x154 (size before relaxing)
 .debug_str     0x00002e11       0x50 C:/Program Files/Ingenico/IngeDev_722/plugins/com.ingenico.ingedev.telium.bin.win32.gnuarm.v343_7.20.0.1/os/win32/GNUARM/3.4.3/arm-elf/lib/thumb/soft/interwork/libc.a(strcat.o)
                                0x144 (size before relaxing)
 .debug_str     0x00002e61       0x50 C:/Program Files/Ingenico/IngeDev_722/plugins/com.ingenico.ingedev.telium.bin.win32.gnuarm.v343_7.20.0.1/os/win32/GNUARM/3.4.3/arm-elf/lib/thumb/soft/interwork/libc.a(strchr.o)
                                0x144 (size before relaxing)
 .debug_str     0x00002eb1       0x50 C:/Program Files/Ingenico/IngeDev_722/plugins/com.ingenico.ingedev.telium.bin.win32.gnuarm.v343_7.20.0.1/os/win32/GNUARM/3.4.3/arm-elf/lib/thumb/soft/interwork/libc.a(strcmp.o)
                                0x144 (size before relaxing)
 .debug_str     0x00002f01       0x50 C:/Program Files/Ingenico/IngeDev_722/plugins/com.ingenico.ingedev.telium.bin.win32.gnuarm.v343_7.20.0.1/os/win32/GNUARM/3.4.3/arm-elf/lib/thumb/soft/interwork/libc.a(strcpy.o)
                                0x14e (size before relaxing)
 .debug_str     0x00002f51       0x50 C:/Program Files/Ingenico/IngeDev_722/plugins/com.ingenico.ingedev.telium.bin.win32.gnuarm.v343_7.20.0.1/os/win32/GNUARM/3.4.3/arm-elf/lib/thumb/soft/interwork/libc.a(strlen.o)
                                0x151 (size before relaxing)
 .debug_str     0x00002fa1       0x5e C:/Program Files/Ingenico/IngeDev_722/plugins/com.ingenico.ingedev.telium.bin.win32.gnuarm.v343_7.20.0.1/os/win32/GNUARM/3.4.3/arm-elf/lib/thumb/soft/interwork/libc.a(strncpy.o)
                                0x169 (size before relaxing)
 .debug_str     0x00002fff       0x61 C:/Program Files/Ingenico/IngeDev_722/plugins/com.ingenico.ingedev.telium.bin.win32.gnuarm.v343_7.20.0.1/os/win32/GNUARM/3.4.3/arm-elf/lib/thumb/soft/interwork/libc.a(strstr.o)
                                0x15c (size before relaxing)
 .debug_str     0x00003060       0x74 C:/Program Files/Ingenico/IngeDev_722/plugins/com.ingenico.ingedev.telium.bin.win32.gnuarm.v343_7.20.0.1/os/win32/GNUARM/3.4.3/arm-elf/lib/thumb/soft/interwork/libc.a(strtol.o)
                                0x51b (size before relaxing)
 .debug_str     0x000030d4       0x5d C:/Program Files/Ingenico/IngeDev_722/plugins/com.ingenico.ingedev.telium.bin.win32.gnuarm.v343_7.20.0.1/os/win32/GNUARM/3.4.3/arm-elf/lib/thumb/soft/interwork/libc.a(strtoul.o)
                                0x51e (size before relaxing)
 .debug_str     0x00003131      0x384 C:/Program Files/Ingenico/IngeDev_722/plugins/com.ingenico.ingedev.telium.bin.win32.gnuarm.v343_7.20.0.1/os/win32/GNUARM/3.4.3/arm-elf/lib/thumb/soft/interwork/libc.a(syscalls.o)
                                0x7f1 (size before relaxing)
 .debug_str     0x000034b5      0x1b1 C:/Program Files/Ingenico/IngeDev_722/plugins/com.ingenico.ingedev.telium.bin.win32.gnuarm.v343_7.20.0.1/os/win32/GNUARM/3.4.3/arm-elf/lib/thumb/soft/interwork/libc.a(vfprintf.o)
                                0x6d1 (size before relaxing)
 .debug_str     0x00003666       0x64 C:/Program Files/Ingenico/IngeDev_722/plugins/com.ingenico.ingedev.telium.bin.win32.gnuarm.v343_7.20.0.1/os/win32/GNUARM/3.4.3/arm-elf/lib/thumb/soft/interwork/libc.a(wcrtomb.o)
                                0x512 (size before relaxing)
 .debug_str     0x000036ca       0x6d C:/Program Files/Ingenico/IngeDev_722/plugins/com.ingenico.ingedev.telium.bin.win32.gnuarm.v343_7.20.0.1/os/win32/GNUARM/3.4.3/arm-elf/lib/thumb/soft/interwork/libc.a(wcsrtombs.o)
                                0x527 (size before relaxing)
 .debug_str     0x00003737       0x72 C:/Program Files/Ingenico/IngeDev_722/plugins/com.ingenico.ingedev.telium.bin.win32.gnuarm.v343_7.20.0.1/os/win32/GNUARM/3.4.3/arm-elf/lib/thumb/soft/interwork/libc.a(wctomb_r.o)
                                0x513 (size before relaxing)
 .debug_str     0x000037a9       0x52 C:/Program Files/Ingenico/IngeDev_722/plugins/com.ingenico.ingedev.telium.bin.win32.gnuarm.v343_7.20.0.1/os/win32/GNUARM/3.4.3/arm-elf/lib/thumb/soft/interwork/libc.a(wsetup.o)
                                0x4eb (size before relaxing)
 .debug_str     0x000037fb       0x67 C:/Program Files/Ingenico/IngeDev_722/plugins/com.ingenico.ingedev.telium.bin.win32.gnuarm.v343_7.20.0.1/os/win32/GNUARM/3.4.3/arm-elf/lib/thumb/soft/interwork/libc.a(__call_atexit.o)
                                0x50d (size before relaxing)
 .debug_str     0x00003862       0xbe C:/Program Files/Ingenico/IngeDev_722/plugins/com.ingenico.ingedev.telium.bin.win32.gnuarm.v343_7.20.0.1/os/win32/GNUARM/3.4.3/arm-elf/lib/thumb/soft/interwork/libc.a(ctype_.o)
                                 0xe9 (size before relaxing)
 .debug_str     0x00003920      0x103 C:/Program Files/Ingenico/IngeDev_722/plugins/com.ingenico.ingedev.telium.bin.win32.gnuarm.v343_7.20.0.1/os/win32/GNUARM/3.4.3/arm-elf/lib/thumb/soft/interwork/libc.a(dtoa.o)
                                0x5d6 (size before relaxing)
 .debug_str     0x00003a23       0xb9 C:/Program Files/Ingenico/IngeDev_722/plugins/com.ingenico.ingedev.telium.bin.win32.gnuarm.v343_7.20.0.1/os/win32/GNUARM/3.4.3/arm-elf/lib/thumb/soft/interwork/libc.a(errno.o)
                                0x4e3 (size before relaxing)
 .debug_str     0x00003adc       0x4f C:/Program Files/Ingenico/IngeDev_722/plugins/com.ingenico.ingedev.telium.bin.win32.gnuarm.v343_7.20.0.1/os/win32/GNUARM/3.4.3/arm-elf/lib/thumb/soft/interwork/libc.a(fflush.o)
                                0x4fb (size before relaxing)
 .debug_str     0x00003b2b       0xd9 C:/Program Files/Ingenico/IngeDev_722/plugins/com.ingenico.ingedev.telium.bin.win32.gnuarm.v343_7.20.0.1/os/win32/GNUARM/3.4.3/arm-elf/lib/thumb/soft/interwork/libc.a(findfp.o)
                                0x59e (size before relaxing)
 .debug_str     0x00003c04      0x169 C:/Program Files/Ingenico/IngeDev_722/plugins/com.ingenico.ingedev.telium.bin.win32.gnuarm.v343_7.20.0.1/os/win32/GNUARM/3.4.3/arm-elf/lib/thumb/soft/interwork/libc.a(freer.o)
                                0x624 (size before relaxing)
 .debug_str     0x00003d6d       0x6a C:/Program Files/Ingenico/IngeDev_722/plugins/com.ingenico.ingedev.telium.bin.win32.gnuarm.v343_7.20.0.1/os/win32/GNUARM/3.4.3/arm-elf/lib/thumb/soft/interwork/libc.a(fvwrite.o)
                                0x546 (size before relaxing)
 .debug_str     0x00003dd7       0x6c C:/Program Files/Ingenico/IngeDev_722/plugins/com.ingenico.ingedev.telium.bin.win32.gnuarm.v343_7.20.0.1/os/win32/GNUARM/3.4.3/arm-elf/lib/thumb/soft/interwork/libc.a(fwalk.o)
                                0x516 (size before relaxing)
 .debug_str     0x00003e43      0x207 C:/Program Files/Ingenico/IngeDev_722/plugins/com.ingenico.ingedev.telium.bin.win32.gnuarm.v343_7.20.0.1/os/win32/GNUARM/3.4.3/arm-elf/lib/thumb/soft/interwork/libc.a(locale.o)
                                0x68a (size before relaxing)
 .debug_str     0x0000404a       0x5f C:/Program Files/Ingenico/IngeDev_722/plugins/com.ingenico.ingedev.telium.bin.win32.gnuarm.v343_7.20.0.1/os/win32/GNUARM/3.4.3/arm-elf/lib/thumb/soft/interwork/libc.a(makebuf.o)
                                0x5d2 (size before relaxing)
 .debug_str     0x000040a9       0x55 C:/Program Files/Ingenico/IngeDev_722/plugins/com.ingenico.ingedev.telium.bin.win32.gnuarm.v343_7.20.0.1/os/win32/GNUARM/3.4.3/arm-elf/lib/thumb/soft/interwork/libc.a(malloc.o)
                                0x4fd (size before relaxing)
 .debug_str     0x000040fe       0xd9 C:/Program Files/Ingenico/IngeDev_722/plugins/com.ingenico.ingedev.telium.bin.win32.gnuarm.v343_7.20.0.1/os/win32/GNUARM/3.4.3/arm-elf/lib/thumb/soft/interwork/libc.a(mallocr.o)
                                0x6d2 (size before relaxing)
 .debug_str     0x000041d7       0x50 C:/Program Files/Ingenico/IngeDev_722/plugins/com.ingenico.ingedev.telium.bin.win32.gnuarm.v343_7.20.0.1/os/win32/GNUARM/3.4.3/arm-elf/lib/thumb/soft/interwork/libc.a(memchr.o)
                                0x15b (size before relaxing)
 .debug_str     0x00004227       0x7b C:/Program Files/Ingenico/IngeDev_722/plugins/com.ingenico.ingedev.telium.bin.win32.gnuarm.v343_7.20.0.1/os/win32/GNUARM/3.4.3/arm-elf/lib/thumb/soft/interwork/libc.a(mlock.o)
                                0x504 (size before relaxing)
 .debug_str     0x000042a2       0xe1 C:/Program Files/Ingenico/IngeDev_722/plugins/com.ingenico.ingedev.telium.bin.win32.gnuarm.v343_7.20.0.1/os/win32/GNUARM/3.4.3/arm-elf/lib/thumb/soft/interwork/libc.a(mprec.o)
                                0x5be (size before relaxing)
 .debug_str     0x00004383       0x61 C:/Program Files/Ingenico/IngeDev_722/plugins/com.ingenico.ingedev.telium.bin.win32.gnuarm.v343_7.20.0.1/os/win32/GNUARM/3.4.3/arm-elf/lib/thumb/soft/interwork/libc.a(reallocr.o)
                                0x5a4 (size before relaxing)
 .debug_str     0x000043e4       0xdd C:/Program Files/Ingenico/IngeDev_722/plugins/com.ingenico.ingedev.telium.bin.win32.gnuarm.v343_7.20.0.1/os/win32/GNUARM/3.4.3/arm-elf/lib/thumb/soft/interwork/libc.a(s_isinf.o)
                                0x18a (size before relaxing)
 .debug_str     0x000044c1       0x4e C:/Program Files/Ingenico/IngeDev_722/plugins/com.ingenico.ingedev.telium.bin.win32.gnuarm.v343_7.20.0.1/os/win32/GNUARM/3.4.3/arm-elf/lib/thumb/soft/interwork/libc.a(s_isnan.o)
                                0x18a (size before relaxing)
 .debug_str     0x0000450f       0x59 C:/Program Files/Ingenico/IngeDev_722/plugins/com.ingenico.ingedev.telium.bin.win32.gnuarm.v343_7.20.0.1/os/win32/GNUARM/3.4.3/arm-elf/lib/thumb/soft/interwork/libc.a(sbrkr.o)
                                0x4f2 (size before relaxing)
 .debug_str     0x00004568       0x77 C:/Program Files/Ingenico/IngeDev_722/plugins/com.ingenico.ingedev.telium.bin.win32.gnuarm.v343_7.20.0.1/os/win32/GNUARM/3.4.3/arm-elf/lib/thumb/soft/interwork/libc.a(stdio.o)
                                0x51e (size before relaxing)
 .debug_str     0x000045df       0x5a C:/Program Files/Ingenico/IngeDev_722/plugins/com.ingenico.ingedev.telium.bin.win32.gnuarm.v343_7.20.0.1/os/win32/GNUARM/3.4.3/arm-elf/lib/thumb/soft/interwork/libc.a(writer.o)
                                0x4ef (size before relaxing)
 .debug_str     0x00004639       0x19 C:/Program Files/Ingenico/IngeDev_722/plugins/com.ingenico.ingedev.telium.bin.win32.gnuarm.v343_7.20.0.1/os/win32/GNUARM/3.4.3/arm-elf/lib/thumb/soft/interwork/libc.a(callocr.o)
                                0x523 (size before relaxing)
 .debug_str     0x00004652       0x51 C:/Program Files/Ingenico/IngeDev_722/plugins/com.ingenico.ingedev.telium.bin.win32.gnuarm.v343_7.20.0.1/os/win32/GNUARM/3.4.3/arm-elf/lib/thumb/soft/interwork/libc.a(closer.o)
                                0x4df (size before relaxing)
 .debug_str     0x000046a3       0x57 C:/Program Files/Ingenico/IngeDev_722/plugins/com.ingenico.ingedev.telium.bin.win32.gnuarm.v343_7.20.0.1/os/win32/GNUARM/3.4.3/arm-elf/lib/thumb/soft/interwork/libc.a(fstatr.o)
                                0x5ba (size before relaxing)
 .debug_str     0x000046fa       0x51 C:/Program Files/Ingenico/IngeDev_722/plugins/com.ingenico.ingedev.telium.bin.win32.gnuarm.v343_7.20.0.1/os/win32/GNUARM/3.4.3/arm-elf/lib/thumb/soft/interwork/libc.a(lseekr.o)
                                0x4f4 (size before relaxing)
 .debug_str     0x0000474b       0x4f C:/Program Files/Ingenico/IngeDev_722/plugins/com.ingenico.ingedev.telium.bin.win32.gnuarm.v343_7.20.0.1/os/win32/GNUARM/3.4.3/arm-elf/lib/thumb/soft/interwork/libc.a(readr.o)
                                0x4ed (size before relaxing)
 .debug_str     0x0000479a       0x81 C:/Program Files/Ingenico/IngeDev_722/plugins/com.ingenico.ingedev.telium.bin.win32.gnuarm.v343_7.20.0.1/os/win32/GNUARM/3.4.3/arm-elf/lib/thumb/soft/interwork/libc.a(reent.o)
                                0x520 (size before relaxing)
 .debug_str     0x0000481b       0xaf C:/Program Files/Ingenico/IngeDev_722/plugins/com.ingenico.ingedev.telium.bin.win32.gnuarm.v343_7.20.0.1/os/win32/GNUARM/3.4.3/lib/gcc/arm-elf/3.4.3/thumb/soft/interwork/libgcc.a(_muldi3.o)
                                0x15f (size before relaxing)
 .debug_str     0x000048ca       0x1c C:/Program Files/Ingenico/IngeDev_722/plugins/com.ingenico.ingedev.telium.bin.win32.gnuarm.v343_7.20.0.1/os/win32/GNUARM/3.4.3/lib/gcc/arm-elf/3.4.3/thumb/soft/interwork/libgcc.a(_lshrdi3.o)
                                0x14a (size before relaxing)
 .debug_str     0x000048e6        0xa C:/Program Files/Ingenico/IngeDev_722/plugins/com.ingenico.ingedev.telium.bin.win32.gnuarm.v343_7.20.0.1/os/win32/GNUARM/3.4.3/lib/gcc/arm-elf/3.4.3/thumb/soft/interwork/libgcc.a(_ashldi3.o)
                                0x14a (size before relaxing)
 .debug_str     0x000048f0       0x54 C:/Program Files/Ingenico/IngeDev_722/plugins/com.ingenico.ingedev.telium.bin.win32.gnuarm.v343_7.20.0.1/os/win32/GNUARM/3.4.3/lib/gcc/arm-elf/3.4.3/thumb/soft/interwork/libgcc.a(_udivdi3.o)
                                0x1aa (size before relaxing)
 .debug_str     0x00004944        0x0 C:/Program Files/Ingenico/IngeDev_722/plugins/com.ingenico.ingedev.telium.bin.win32.gnuarm.v343_7.20.0.1/os/win32/GNUARM/3.4.3/lib/gcc/arm-elf/3.4.3/thumb/soft/interwork/libgcc.a(_clz.o)
                                0x114 (size before relaxing)

.comment        0x00000000      0xf42
 .comment       0x00000000       0x12 Obj/RELEASE_T2/trc.o
 .comment       0x00000012       0x12 Obj/RELEASE_T2/tbx.o
 .comment       0x00000024       0x12 Obj/RELEASE_T2/tlm.o
 .comment       0x00000036       0x12 Obj/RELEASE_T2/tlmhmi.o
 .comment       0x00000048       0x12 Obj/RELEASE_T2/tlmmem.o
 .comment       0x0000005a       0x12 Obj/RELEASE_T2/std.o
 .comment       0x0000006c       0x12 Obj/RELEASE_T2/fmt.o
 .comment       0x0000007e       0x12 Obj/RELEASE_T2/dba.o
 .comment       0x00000090       0x12 Obj/RELEASE_T2/drv.o
 .comment       0x000000a2       0x12 Obj/RELEASE_T2/dlg.o
 .comment       0x000000b4       0x12 Obj/RELEASE_T2/Main.o
 .comment       0x000000c6       0x12 Obj/RELEASE_T2/sgm.o
 .comment       0x000000d8       0x12 Obj/RELEASE_T2/map.o
 .comment       0x000000ea       0x12 Obj/RELEASE_T2/dft.o
 .comment       0x000000fc       0x12 Obj/RELEASE_T2/rpt.o
 .comment       0x0000010e       0x12 Obj/RELEASE_T2/scr.o
 .comment       0x00000120       0x12 Obj/RELEASE_T2/str.o
 .comment       0x00000132       0x12 Obj/RELEASE_T2/hdl.o
 .comment       0x00000144       0x12 Obj/RELEASE_T2/val.o
 .comment       0x00000156       0x12 Obj/RELEASE_T2/adm.o
 .comment       0x00000168       0x12 Obj/RELEASE_T2/emv.o
 .comment       0x0000017a       0x12 Obj/RELEASE_T2/function.o
 .comment       0x0000018c       0x12 Obj/RELEASE_T2/iso.o
 .comment       0x0000019e       0x12 Obj/RELEASE_T2/log.o
 .comment       0x000001b0       0x12 Obj/RELEASE_T2/onl.o
 .comment       0x000001c2       0x12 Obj/RELEASE_T2/pmt.o
 .comment       0x000001d4       0x12 Obj/RELEASE_T2/req.o
 .comment       0x000001e6       0x12 Obj/RELEASE_T2/rev.o
 .comment       0x000001f8       0x12 Obj/RELEASE_T2/rsp.o
 .comment       0x0000020a       0x12 Obj/RELEASE_T2/tle.o
 .comment       0x0000021c       0x12 Obj/RELEASE_T2/cmm.o
 .comment       0x0000022e       0x12 Obj/RELEASE_T2/tlmchn.o
 .comment       0x00000240       0x12 Obj/RELEASE_T2/tlmcry.o
 .comment       0x00000252       0x12 Obj/RELEASE_T2/tlmemv.o
 .comment       0x00000264       0x12 Obj/RELEASE_T2/tcan0020.o
 .comment       0x00000276       0x12 Obj/RELEASE_T2/BRI.o
 .comment       0x00000288       0x12 Obj/RELEASE_T2/LineEncryption.o
 .comment       0x0000029a       0x12 Obj/RELEASE_T2/AES.o
 .comment       0x000002ac       0x12 Obj/RELEASE_T2/keyinject.o
 .comment       0x000002be       0x12 Obj/RELEASE_T2/prepaid.o
 .comment       0x000002d0       0x12 Obj/RELEASE_T2/logon.o
 .comment       0x000002e2       0x12 Obj/RELEASE_T2/rsagen.o
 .comment       0x000002f4       0x12 Obj/RELEASE_T2/prsa.o
 .comment       0x00000306       0x12 Obj/RELEASE_T2/bignum.o
 .comment       0x00000318       0x12 Obj/RELEASE_T2/havege.o
 .comment       0x0000032a       0x12 Obj/RELEASE_T2/timing.o
 .comment       0x0000033c       0x12 libs/GNU_ARM_RELEASE/RSA.lib(RSA_dec.o)
 .comment       0x0000034e       0x12 libs/GNU_ARM_RELEASE/RSA.lib(RSA_init.o)
 .comment       0x00000360       0x12 libs/GNU_ARM_RELEASE/RSA.lib(m_add.o)
 .comment       0x00000372       0x12 libs/GNU_ARM_RELEASE/RSA.lib(m_b2w.o)
 .comment       0x00000384       0x12 libs/GNU_ARM_RELEASE/RSA.lib(m_clr.o)
 .comment       0x00000396       0x12 libs/GNU_ARM_RELEASE/RSA.lib(m_cmp.o)
 .comment       0x000003a8       0x12 libs/GNU_ARM_RELEASE/RSA.lib(m_cpy.o)
 .comment       0x000003ba       0x12 libs/GNU_ARM_RELEASE/RSA.lib(m_div.o)
 .comment       0x000003cc       0x12 libs/GNU_ARM_RELEASE/RSA.lib(m_mem.o)
 .comment       0x000003de       0x12 libs/GNU_ARM_RELEASE/RSA.lib(m_modmul.o)
 .comment       0x000003f0       0x12 libs/GNU_ARM_RELEASE/RSA.lib(m_monexp.o)
 .comment       0x00000402       0x12 libs/GNU_ARM_RELEASE/RSA.lib(m_moninv.o)
 .comment       0x00000414       0x12 libs/GNU_ARM_RELEASE/RSA.lib(m_monmul.o)
 .comment       0x00000426       0x12 libs/GNU_ARM_RELEASE/RSA.lib(m_msb.o)
 .comment       0x00000438       0x12 libs/GNU_ARM_RELEASE/RSA.lib(m_mul.o)
 .comment       0x0000044a       0x12 libs/GNU_ARM_RELEASE/RSA.lib(m_mulsub.o)
 .comment       0x0000045c       0x12 libs/GNU_ARM_RELEASE/RSA.lib(m_rand.o)
 .comment       0x0000046e       0x12 libs/GNU_ARM_RELEASE/RSA.lib(m_red.o)
 .comment       0x00000480       0x12 libs/GNU_ARM_RELEASE/RSA.lib(m_shlx.o)
 .comment       0x00000492       0x12 libs/GNU_ARM_RELEASE/RSA.lib(m_shrx.o)
 .comment       0x000004a4       0x12 libs/GNU_ARM_RELEASE/RSA.lib(m_sub.o)
 .comment       0x000004b6       0x12 libs/GNU_ARM_RELEASE/RSA.lib(m_w2b.o)
 .comment       0x000004c8       0x12 C:/Program Files/SDK30/SDK 9.20.0.01/SDK/lib_gnu/eft30.lib(iam1.o)
 .comment       0x000004da       0x12 C:/Program Files/SDK30/SDK 9.20.0.01/SDK/lib_gnu/eft30.lib(iamtd1.o)
 .comment       0x000004ec       0x12 C:/Program Files/SDK30/SDK 9.20.0.01/SDK/lib_gnu/eft30.lib(extens280.o)
 .comment       0x000004fe       0x12 C:/Program Files/SDK30/SDK 9.20.0.01/SDK/lib_gnu/eft30.lib(extens53.o)
 .comment       0x00000510       0x12 C:/Program Files/SDK30/SDK 9.20.0.01/SDK/lib_gnu/eft30.lib(extens89.o)
 .comment       0x00000522       0x12 C:/Program Files/SDK30/SDK 9.20.0.01/SDK/lib_gnu/eft30.lib(extens90.o)
 .comment       0x00000534       0x12 C:/Program Files/SDK30/SDK 9.20.0.01/SDK/lib_gnu/eft30.lib(extens93.o)
 .comment       0x00000546       0x12 C:/Program Files/SDK30/SDK 9.20.0.01/SDK/lib_gnu/eft30.lib(extens94.o)
 .comment       0x00000558       0x12 C:/Program Files/SDK30/SDK 9.20.0.01/SDK/lib_gnu/eft30.lib(extenstd1.o)
 .comment       0x0000056a       0x12 C:/Program Files/SDK30/SDK 9.20.0.01/SDK/lib_gnu/eft30.lib(extenstdeux5.o)
 .comment       0x0000057c       0x12 C:/Program Files/SDK30/SDK 9.20.0.01/SDK/lib_gnu/eft30.lib(extensostd119.o)
 .comment       0x0000058e       0x12 C:/Program Files/SDK30/SDK 9.20.0.01/SDK/lib_gnu/eft30.lib(param17.o)
 .comment       0x000005a0       0x12 C:/Program Files/SDK30/SDK 9.20.0.01/SDK/lib_gnu/eft30.lib(param46.o)
 .comment       0x000005b2       0x12 C:/Program Files/SDK30/SDK 9.20.0.01/SDK/lib_gnu/eft30.lib(param72.o)
 .comment       0x000005c4       0x12 C:/Program Files/SDK30/SDK 9.20.0.01/SDK/lib_gnu/eft30.lib(paramtd1.o)
 .comment       0x000005d6       0x12 C:/Program Files/SDK30/SDK 9.20.0.01/SDK/lib_gnu/eft30.lib(crypto2.o)
 .comment       0x000005e8       0x12 C:/Program Files/SDK30/SDK 9.20.0.01/SDK/lib_gnu/eft30.lib(cryptotd1.o)
 .comment       0x000005fa       0x12 C:/Program Files/SDK30/SDK 9.20.0.01/SDK/lib_gnu/eft30.lib(pinpad10.o)
 .comment       0x0000060c       0x12 C:/Program Files/SDK30/SDK 9.20.0.01/SDK/lib_gnu/eft30.lib(pinpad12.o)
 .comment       0x0000061e       0x12 C:/Program Files/SDK30/SDK 9.20.0.01/SDK/lib_gnu/eft30.lib(pinpad15.o)
 .comment       0x00000630       0x12 C:/Program Files/SDK30/SDK 9.20.0.01/SDK/lib_gnu/eft30.lib(pinpad8.o)
 .comment       0x00000642       0x12 C:/Program Files/SDK30/SDK 9.20.0.01/SDK/lib_gnu/eft30.lib(pinpad9.o)
 .comment       0x00000654       0x12 C:/Program Files/SDK30/SDK 9.20.0.01/SDK/lib_gnu/eft30.lib(pinpadtd1.o)
 .comment       0x00000666       0x12 C:/Program Files/SDK30/SDK 9.20.0.01/SDK/lib_gnu/eft30.lib(sv24.o)
 .comment       0x00000678       0x12 C:/Program Files/SDK30/SDK 9.20.0.01/SDK/lib_gnu/eft30.lib(sv25.o)
 .comment       0x0000068a       0x12 C:/Program Files/SDK30/SDK 9.20.0.01/SDK/lib_gnu/eft30.lib(svtd1.o)
 .comment       0x0000069c       0x12 C:/Program Files/SDK30/SDK 9.20.0.01/SDK/lib_gnu/eft30.lib(svtd21.o)
 .comment       0x000006ae       0x12 C:/Program Files/SDK30/SDK 9.20.0.01/SDK/lib_gnu/eft30.lib(svtd22.o)
 .comment       0x000006c0       0x12 C:/Program Files/SDK30/SDK 9.20.0.01/SDK/lib_gnu/eft30.lib(svtd23.o)
 .comment       0x000006d2       0x12 C:/Program Files/SDK30/SDK 9.20.0.01/SDK/lib_gnu/eft30.lib(libgr137.o)
 .comment       0x000006e4       0x12 C:/Program Files/SDK30/SDK 9.20.0.01/SDK/lib_gnu/eft30.lib(libgr35.o)
 .comment       0x000006f6       0x12 C:/Program Files/SDK30/SDK 9.20.0.01/SDK/lib_gnu/eft30.lib(libgr40.o)
 .comment       0x00000708       0x12 C:/Program Files/SDK30/SDK 9.20.0.01/SDK/lib_gnu/eft30.lib(libgr41.o)
 .comment       0x0000071a       0x12 C:/Program Files/SDK30/SDK 9.20.0.01/SDK/lib_gnu/eft30.lib(libgr49.o)
 .comment       0x0000072c       0x12 C:/Program Files/SDK30/SDK 9.20.0.01/SDK/lib_gnu/eft30.lib(libgr54.o)
 .comment       0x0000073e       0x12 C:/Program Files/SDK30/SDK 9.20.0.01/SDK/lib_gnu/eft30.lib(libgr55.o)
 .comment       0x00000750       0x12 C:/Program Files/SDK30/SDK 9.20.0.01/SDK/lib_gnu/eft30.lib(libgr58.o)
 .comment       0x00000762       0x12 C:/Program Files/SDK30/SDK 9.20.0.01/SDK/lib_gnu/eft30.lib(libgr66.o)
 .comment       0x00000774       0x12 C:/Program Files/SDK30/SDK 9.20.0.01/SDK/lib_gnu/eft30.lib(libgr68.o)
 .comment       0x00000786       0x12 C:/Program Files/SDK30/SDK 9.20.0.01/SDK/lib_gnu/eft30.lib(libgr7.o)
 .comment       0x00000798       0x12 C:/Program Files/SDK30/SDK 9.20.0.01/SDK/lib_gnu/eft30.lib(libgr8.o)
 .comment       0x000007aa       0x12 C:/Program Files/SDK30/SDK 9.20.0.01/SDK/lib_gnu/eft30.lib(libgr82.o)
 .comment       0x000007bc       0x12 C:/Program Files/SDK30/SDK 9.20.0.01/SDK/lib_gnu/eft30.lib(libgr83.o)
 .comment       0x000007ce       0x12 C:/Program Files/SDK30/SDK 9.20.0.01/SDK/lib_gnu/eft30.lib(libgr86.o)
 .comment       0x000007e0       0x12 C:/Program Files/SDK30/SDK 9.20.0.01/SDK/lib_gnu/eft30.lib(libgrtd1.o)
 .comment       0x000007f2       0x12 C:/Program Files/SDK30/SDK 9.20.0.01/SDK/lib_gnu/eft30.lib(Tools35.o)
 .comment       0x00000804       0x12 C:/Program Files/SDK30/SDK 9.20.0.01/SDK/lib_gnu/eft30.lib(Tools36.o)
 .comment       0x00000816       0x12 C:/Program Files/SDK30/SDK 9.20.0.01/SDK/lib_gnu/eft30.lib(Toolstd1.o)
 .comment       0x00000828       0x12 C:/Program Files/SDK30/SDK 9.20.0.01/SDK/lib_gnu/eft30.lib(gprstd1.o)
 .comment       0x0000083a       0x12 C:/Program Files/SDK30/SDK 9.20.0.01/SDK/lib_gnu/eft30.lib(LibAppliT2.o)
 .comment       0x0000084c       0x12 C:/Program Files/SDK30/SDK 9.20.0.01/SDK/lib_gnu/eft30.lib(extens252.o)
 .comment       0x0000085e       0x12 C:/Program Files/SDK30/SDK 9.20.0.01/SDK/lib_gnu/AVL.lib(Proxy.o)
 .comment       0x00000870       0x12 C:/Program Files/SDK30/SDK 9.20.0.01/SDK/lib_gnu/AVL.lib(Serializer.o)
 .comment       0x00000882       0x12 C:/Program Files/SDK30/SDK 9.20.0.01/SDK/lib_gnu/AVL.lib(Serializer_Default.o)
 .comment       0x00000894       0x12 C:/Program Files/SDK30/SDK 9.20.0.01/SDK/lib_gnu/AVL.lib(Serializer_Xml.o)
 .comment       0x000008a6       0x12 C:/Program Files/SDK30/SDK 9.20.0.01/SDK/lib_gnu/AVL.lib(XMLs.o)
 .comment       0x000008b8       0x12 C:/Program Files/SDK30/SDK 9.20.0.01/SDK/lib_gnu/AVL.lib(XMLs_Parser.o)
 .comment       0x000008ca       0x12 C:/Program Files/SDK30/SDK 9.20.0.01/SDK/lib_gnu/AVL.lib(XMLs_ProcessData.o)
 .comment       0x000008dc       0x12 C:/Program Files/SDK30/SDK 9.20.0.01/SDK/lib_gnu/AVL.lib(XMLs_Attributes.o)
 .comment       0x000008ee       0x12 C:/Program Files/SDK30/SDK 9.20.0.01/SDK/lib_gnu/AVL.lib(XMLs_Common.o)
 .comment       0x00000900       0x12 C:/Program Files/SDK30/SDK 9.20.0.01/SDK/lib_gnu/AVL.lib(XMLs_Options.o)
 .comment       0x00000912       0x12 C:/Program Files/SDK30/SDK 9.20.0.01/SDK/lib_gnu/AVL.lib(XMLs_Buffer.o)
 .comment       0x00000924       0x12 C:/Program Files/SDK30/SDK 9.20.0.01/SDK/lib_gnu/AVL.lib(XMLs_Stream.o)
 .comment       0x00000936       0x12 C:/Program Files/SDK30/SDK 9.20.0.01/SDK/lib_gnu/AVL.lib(Internal.o)
 .comment       0x00000948       0x12 C:/Program Files/SDK30/SDK 9.20.0.01/SDK/lib_gnu/SEC.lib(SECLibOpenClose.o)
 .comment       0x0000095a       0x12 C:/Program Files/SDK30/SDK 9.20.0.01/SDK/lib_gnu/SEC.lib(SEC1.o)
 .comment       0x0000096c       0x12 C:/Program Files/SDK30/SDK 9.20.0.01/SDK/lib_gnu/SEC.lib(SEC7.o)
 .comment       0x0000097e       0x12 C:/Program Files/SDK30/SDK 9.20.0.01/SDK/lib_gnu/SEC.lib(SEC8.o)
 .comment       0x00000990       0x12 C:/Program Files/SDK30/SDK 9.20.0.01/SDK/lib_gnu/SEC.lib(SEC9.o)
 .comment       0x000009a2       0x12 C:/Program Files/SDK30/SDK 9.20.0.01/SDK/lib_gnu/SEC.lib(SEC10.o)
 .comment       0x000009b4       0x12 C:/Program Files/SDK30/SDK 9.20.0.01/SDK/lib_gnu/SEC.lib(SEC11.o)
 .comment       0x000009c6       0x12 C:/Program Files/SDK30/SDK 9.20.0.01/SDK/lib_gnu/SEC.lib(SEC19.o)
 .comment       0x000009d8       0x12 C:/Program Files/SDK30/SDK 9.20.0.01/SDK/lib_gnu/SEC.lib(SEC20.o)
 .comment       0x000009ea       0x12 C:/Program Files/SDK30/SDK 9.20.0.01/SDK/lib_gnu/SEC.lib(SEC21.o)
 .comment       0x000009fc       0x12 C:/Program Files/SDK30/SDK 9.20.0.01/SDK/lib_gnu/SEC.lib(SEC22.o)
 .comment       0x00000a0e       0x12 C:/Program Files/SDK30/SDK 9.20.0.01/SDK/lib_gnu/SEC.lib(SEC23.o)
 .comment       0x00000a20       0x12 C:/Program Files/SDK30/SDK 9.20.0.01/SDK/lib_gnu/SEC.lib(SEC24.o)
 .comment       0x00000a32       0x12 C:/Program Files/SDK30/SDK 9.20.0.01/SDK/lib_gnu/SEC.lib(SEC25.o)
 .comment       0x00000a44       0x12 C:/Program Files/SDK30/SDK 9.20.0.01/SDK/lib_gnu/SEC.lib(SEC26.o)
 .comment       0x00000a56       0x12 C:/Program Files/SDK30/SDK 9.20.0.01/SDK/lib_gnu/SEC.lib(SEC28.o)
 .comment       0x00000a68       0x12 C:/Program Files/SDK30/SDK 9.20.0.01/SDK/lib_gnu/SEC.lib(SEC31.o)
 .comment       0x00000a7a       0x12 C:/Program Files/SDK30/SDK 9.20.0.01/SDK/lib_gnu/SEC.lib(SEC32.o)
 .comment       0x00000a8c       0x12 C:/Program Files/SDK30/SDK 9.20.0.01/SDK/lib_gnu/SEC.lib(SEC34.o)
 .comment       0x00000a9e       0x12 C:/Program Files/SDK30/SDK 9.20.0.01/SDK/lib_gnu/SEC.lib(SEC37.o)
 .comment       0x00000ab0       0x12 C:/Program Files/SDK30/SDK 9.20.0.01/SDK/lib_gnu/IP_.lib(EthernetConfig.o)
 .comment       0x00000ac2       0x12 C:/Program Files/SDK30/SDK 9.20.0.01/SDK/lib_gnu/IP_.lib(Telium_IP_Host.o)
 .comment       0x00000ad4       0x12 C:/Program Files/SDK30/SDK 9.20.0.01/SDK/lib_gnu/IP_.lib(Telium_IP_Inet.o)
 .comment       0x00000ae6       0x12 C:/Program Files/SDK30/SDK 9.20.0.01/SDK/lib_gnu/IP_.lib(Telium_IP_Socket.o)
 .comment       0x00000af8       0x12 C:/Program Files/SDK30/SDK 9.20.0.01/SDK/lib_gnu/IP_.lib(PackIP_Internal.o)
 .comment       0x00000b0a       0x12 C:/Program Files/SDK30/SDK 9.20.0.01/SDK/lib_gnu/LinkLayerExeInterface.lib(LinkLayerServices.o)
 .comment       0x00000b1c       0x12 C:/Program Files/Ingenico/IngeDev_722/plugins/com.ingenico.ingedev.telium.bin.win32.gnuarm.v343_7.20.0.1/os/win32/GNUARM/3.4.3/arm-elf/lib/thumb/soft/interwork/libc.a(atoi.o)
 .comment       0x00000b2e       0x12 C:/Program Files/Ingenico/IngeDev_722/plugins/com.ingenico.ingedev.telium.bin.win32.gnuarm.v343_7.20.0.1/os/win32/GNUARM/3.4.3/arm-elf/lib/thumb/soft/interwork/libc.a(atol.o)
 .comment       0x00000b40       0x12 C:/Program Files/Ingenico/IngeDev_722/plugins/com.ingenico.ingedev.telium.bin.win32.gnuarm.v343_7.20.0.1/os/win32/GNUARM/3.4.3/arm-elf/lib/thumb/soft/interwork/libc.a(exit.o)
 .comment       0x00000b52       0x12 C:/Program Files/Ingenico/IngeDev_722/plugins/com.ingenico.ingedev.telium.bin.win32.gnuarm.v343_7.20.0.1/os/win32/GNUARM/3.4.3/arm-elf/lib/thumb/soft/interwork/libc.a(impure.o)
 .comment       0x00000b64       0x12 C:/Program Files/Ingenico/IngeDev_722/plugins/com.ingenico.ingedev.telium.bin.win32.gnuarm.v343_7.20.0.1/os/win32/GNUARM/3.4.3/arm-elf/lib/thumb/soft/interwork/libc.a(memcmp.o)
 .comment       0x00000b76       0x12 C:/Program Files/Ingenico/IngeDev_722/plugins/com.ingenico.ingedev.telium.bin.win32.gnuarm.v343_7.20.0.1/os/win32/GNUARM/3.4.3/arm-elf/lib/thumb/soft/interwork/libc.a(memcpy.o)
 .comment       0x00000b88       0x12 C:/Program Files/Ingenico/IngeDev_722/plugins/com.ingenico.ingedev.telium.bin.win32.gnuarm.v343_7.20.0.1/os/win32/GNUARM/3.4.3/arm-elf/lib/thumb/soft/interwork/libc.a(memmove.o)
 .comment       0x00000b9a       0x12 C:/Program Files/Ingenico/IngeDev_722/plugins/com.ingenico.ingedev.telium.bin.win32.gnuarm.v343_7.20.0.1/os/win32/GNUARM/3.4.3/arm-elf/lib/thumb/soft/interwork/libc.a(memset.o)
 .comment       0x00000bac       0x12 C:/Program Files/Ingenico/IngeDev_722/plugins/com.ingenico.ingedev.telium.bin.win32.gnuarm.v343_7.20.0.1/os/win32/GNUARM/3.4.3/arm-elf/lib/thumb/soft/interwork/libc.a(rand.o)
 .comment       0x00000bbe       0x12 C:/Program Files/Ingenico/IngeDev_722/plugins/com.ingenico.ingedev.telium.bin.win32.gnuarm.v343_7.20.0.1/os/win32/GNUARM/3.4.3/arm-elf/lib/thumb/soft/interwork/libc.a(snprintf.o)
 .comment       0x00000bd0       0x12 C:/Program Files/Ingenico/IngeDev_722/plugins/com.ingenico.ingedev.telium.bin.win32.gnuarm.v343_7.20.0.1/os/win32/GNUARM/3.4.3/arm-elf/lib/thumb/soft/interwork/libc.a(strcasecmp.o)
 .comment       0x00000be2       0x12 C:/Program Files/Ingenico/IngeDev_722/plugins/com.ingenico.ingedev.telium.bin.win32.gnuarm.v343_7.20.0.1/os/win32/GNUARM/3.4.3/arm-elf/lib/thumb/soft/interwork/libc.a(strcat.o)
 .comment       0x00000bf4       0x12 C:/Program Files/Ingenico/IngeDev_722/plugins/com.ingenico.ingedev.telium.bin.win32.gnuarm.v343_7.20.0.1/os/win32/GNUARM/3.4.3/arm-elf/lib/thumb/soft/interwork/libc.a(strchr.o)
 .comment       0x00000c06       0x12 C:/Program Files/Ingenico/IngeDev_722/plugins/com.ingenico.ingedev.telium.bin.win32.gnuarm.v343_7.20.0.1/os/win32/GNUARM/3.4.3/arm-elf/lib/thumb/soft/interwork/libc.a(strcmp.o)
 .comment       0x00000c18       0x12 C:/Program Files/Ingenico/IngeDev_722/plugins/com.ingenico.ingedev.telium.bin.win32.gnuarm.v343_7.20.0.1/os/win32/GNUARM/3.4.3/arm-elf/lib/thumb/soft/interwork/libc.a(strcpy.o)
 .comment       0x00000c2a       0x12 C:/Program Files/Ingenico/IngeDev_722/plugins/com.ingenico.ingedev.telium.bin.win32.gnuarm.v343_7.20.0.1/os/win32/GNUARM/3.4.3/arm-elf/lib/thumb/soft/interwork/libc.a(strlen.o)
 .comment       0x00000c3c       0x12 C:/Program Files/Ingenico/IngeDev_722/plugins/com.ingenico.ingedev.telium.bin.win32.gnuarm.v343_7.20.0.1/os/win32/GNUARM/3.4.3/arm-elf/lib/thumb/soft/interwork/libc.a(strncpy.o)
 .comment       0x00000c4e       0x12 C:/Program Files/Ingenico/IngeDev_722/plugins/com.ingenico.ingedev.telium.bin.win32.gnuarm.v343_7.20.0.1/os/win32/GNUARM/3.4.3/arm-elf/lib/thumb/soft/interwork/libc.a(strstr.o)
 .comment       0x00000c60       0x12 C:/Program Files/Ingenico/IngeDev_722/plugins/com.ingenico.ingedev.telium.bin.win32.gnuarm.v343_7.20.0.1/os/win32/GNUARM/3.4.3/arm-elf/lib/thumb/soft/interwork/libc.a(strtol.o)
 .comment       0x00000c72       0x12 C:/Program Files/Ingenico/IngeDev_722/plugins/com.ingenico.ingedev.telium.bin.win32.gnuarm.v343_7.20.0.1/os/win32/GNUARM/3.4.3/arm-elf/lib/thumb/soft/interwork/libc.a(strtoul.o)
 .comment       0x00000c84       0x12 C:/Program Files/Ingenico/IngeDev_722/plugins/com.ingenico.ingedev.telium.bin.win32.gnuarm.v343_7.20.0.1/os/win32/GNUARM/3.4.3/arm-elf/lib/thumb/soft/interwork/libc.a(syscalls.o)
 .comment       0x00000c96       0x12 C:/Program Files/Ingenico/IngeDev_722/plugins/com.ingenico.ingedev.telium.bin.win32.gnuarm.v343_7.20.0.1/os/win32/GNUARM/3.4.3/arm-elf/lib/thumb/soft/interwork/libc.a(vfprintf.o)
 .comment       0x00000ca8       0x12 C:/Program Files/Ingenico/IngeDev_722/plugins/com.ingenico.ingedev.telium.bin.win32.gnuarm.v343_7.20.0.1/os/win32/GNUARM/3.4.3/arm-elf/lib/thumb/soft/interwork/libc.a(wcrtomb.o)
 .comment       0x00000cba       0x12 C:/Program Files/Ingenico/IngeDev_722/plugins/com.ingenico.ingedev.telium.bin.win32.gnuarm.v343_7.20.0.1/os/win32/GNUARM/3.4.3/arm-elf/lib/thumb/soft/interwork/libc.a(wcsrtombs.o)
 .comment       0x00000ccc       0x12 C:/Program Files/Ingenico/IngeDev_722/plugins/com.ingenico.ingedev.telium.bin.win32.gnuarm.v343_7.20.0.1/os/win32/GNUARM/3.4.3/arm-elf/lib/thumb/soft/interwork/libc.a(wctomb_r.o)
 .comment       0x00000cde       0x12 C:/Program Files/Ingenico/IngeDev_722/plugins/com.ingenico.ingedev.telium.bin.win32.gnuarm.v343_7.20.0.1/os/win32/GNUARM/3.4.3/arm-elf/lib/thumb/soft/interwork/libc.a(wsetup.o)
 .comment       0x00000cf0       0x12 C:/Program Files/Ingenico/IngeDev_722/plugins/com.ingenico.ingedev.telium.bin.win32.gnuarm.v343_7.20.0.1/os/win32/GNUARM/3.4.3/arm-elf/lib/thumb/soft/interwork/libc.a(__call_atexit.o)
 .comment       0x00000d02       0x12 C:/Program Files/Ingenico/IngeDev_722/plugins/com.ingenico.ingedev.telium.bin.win32.gnuarm.v343_7.20.0.1/os/win32/GNUARM/3.4.3/arm-elf/lib/thumb/soft/interwork/libc.a(ctype_.o)
 .comment       0x00000d14       0x12 C:/Program Files/Ingenico/IngeDev_722/plugins/com.ingenico.ingedev.telium.bin.win32.gnuarm.v343_7.20.0.1/os/win32/GNUARM/3.4.3/arm-elf/lib/thumb/soft/interwork/libc.a(dtoa.o)
 .comment       0x00000d26       0x12 C:/Program Files/Ingenico/IngeDev_722/plugins/com.ingenico.ingedev.telium.bin.win32.gnuarm.v343_7.20.0.1/os/win32/GNUARM/3.4.3/arm-elf/lib/thumb/soft/interwork/libc.a(errno.o)
 .comment       0x00000d38       0x12 C:/Program Files/Ingenico/IngeDev_722/plugins/com.ingenico.ingedev.telium.bin.win32.gnuarm.v343_7.20.0.1/os/win32/GNUARM/3.4.3/arm-elf/lib/thumb/soft/interwork/libc.a(fflush.o)
 .comment       0x00000d4a       0x12 C:/Program Files/Ingenico/IngeDev_722/plugins/com.ingenico.ingedev.telium.bin.win32.gnuarm.v343_7.20.0.1/os/win32/GNUARM/3.4.3/arm-elf/lib/thumb/soft/interwork/libc.a(findfp.o)
 .comment       0x00000d5c       0x12 C:/Program Files/Ingenico/IngeDev_722/plugins/com.ingenico.ingedev.telium.bin.win32.gnuarm.v343_7.20.0.1/os/win32/GNUARM/3.4.3/arm-elf/lib/thumb/soft/interwork/libc.a(freer.o)
 .comment       0x00000d6e       0x12 C:/Program Files/Ingenico/IngeDev_722/plugins/com.ingenico.ingedev.telium.bin.win32.gnuarm.v343_7.20.0.1/os/win32/GNUARM/3.4.3/arm-elf/lib/thumb/soft/interwork/libc.a(fvwrite.o)
 .comment       0x00000d80       0x12 C:/Program Files/Ingenico/IngeDev_722/plugins/com.ingenico.ingedev.telium.bin.win32.gnuarm.v343_7.20.0.1/os/win32/GNUARM/3.4.3/arm-elf/lib/thumb/soft/interwork/libc.a(fwalk.o)
 .comment       0x00000d92       0x12 C:/Program Files/Ingenico/IngeDev_722/plugins/com.ingenico.ingedev.telium.bin.win32.gnuarm.v343_7.20.0.1/os/win32/GNUARM/3.4.3/arm-elf/lib/thumb/soft/interwork/libc.a(locale.o)
 .comment       0x00000da4       0x12 C:/Program Files/Ingenico/IngeDev_722/plugins/com.ingenico.ingedev.telium.bin.win32.gnuarm.v343_7.20.0.1/os/win32/GNUARM/3.4.3/arm-elf/lib/thumb/soft/interwork/libc.a(makebuf.o)
 .comment       0x00000db6       0x12 C:/Program Files/Ingenico/IngeDev_722/plugins/com.ingenico.ingedev.telium.bin.win32.gnuarm.v343_7.20.0.1/os/win32/GNUARM/3.4.3/arm-elf/lib/thumb/soft/interwork/libc.a(malloc.o)
 .comment       0x00000dc8       0x12 C:/Program Files/Ingenico/IngeDev_722/plugins/com.ingenico.ingedev.telium.bin.win32.gnuarm.v343_7.20.0.1/os/win32/GNUARM/3.4.3/arm-elf/lib/thumb/soft/interwork/libc.a(mallocr.o)
 .comment       0x00000dda       0x12 C:/Program Files/Ingenico/IngeDev_722/plugins/com.ingenico.ingedev.telium.bin.win32.gnuarm.v343_7.20.0.1/os/win32/GNUARM/3.4.3/arm-elf/lib/thumb/soft/interwork/libc.a(memchr.o)
 .comment       0x00000dec       0x12 C:/Program Files/Ingenico/IngeDev_722/plugins/com.ingenico.ingedev.telium.bin.win32.gnuarm.v343_7.20.0.1/os/win32/GNUARM/3.4.3/arm-elf/lib/thumb/soft/interwork/libc.a(mlock.o)
 .comment       0x00000dfe       0x12 C:/Program Files/Ingenico/IngeDev_722/plugins/com.ingenico.ingedev.telium.bin.win32.gnuarm.v343_7.20.0.1/os/win32/GNUARM/3.4.3/arm-elf/lib/thumb/soft/interwork/libc.a(mprec.o)
 .comment       0x00000e10       0x12 C:/Program Files/Ingenico/IngeDev_722/plugins/com.ingenico.ingedev.telium.bin.win32.gnuarm.v343_7.20.0.1/os/win32/GNUARM/3.4.3/arm-elf/lib/thumb/soft/interwork/libc.a(reallocr.o)
 .comment       0x00000e22       0x12 C:/Program Files/Ingenico/IngeDev_722/plugins/com.ingenico.ingedev.telium.bin.win32.gnuarm.v343_7.20.0.1/os/win32/GNUARM/3.4.3/arm-elf/lib/thumb/soft/interwork/libc.a(s_isinf.o)
 .comment       0x00000e34       0x12 C:/Program Files/Ingenico/IngeDev_722/plugins/com.ingenico.ingedev.telium.bin.win32.gnuarm.v343_7.20.0.1/os/win32/GNUARM/3.4.3/arm-elf/lib/thumb/soft/interwork/libc.a(s_isnan.o)
 .comment       0x00000e46       0x12 C:/Program Files/Ingenico/IngeDev_722/plugins/com.ingenico.ingedev.telium.bin.win32.gnuarm.v343_7.20.0.1/os/win32/GNUARM/3.4.3/arm-elf/lib/thumb/soft/interwork/libc.a(sbrkr.o)
 .comment       0x00000e58       0x12 C:/Program Files/Ingenico/IngeDev_722/plugins/com.ingenico.ingedev.telium.bin.win32.gnuarm.v343_7.20.0.1/os/win32/GNUARM/3.4.3/arm-elf/lib/thumb/soft/interwork/libc.a(stdio.o)
 .comment       0x00000e6a       0x12 C:/Program Files/Ingenico/IngeDev_722/plugins/com.ingenico.ingedev.telium.bin.win32.gnuarm.v343_7.20.0.1/os/win32/GNUARM/3.4.3/arm-elf/lib/thumb/soft/interwork/libc.a(writer.o)
 .comment       0x00000e7c       0x12 C:/Program Files/Ingenico/IngeDev_722/plugins/com.ingenico.ingedev.telium.bin.win32.gnuarm.v343_7.20.0.1/os/win32/GNUARM/3.4.3/arm-elf/lib/thumb/soft/interwork/libc.a(callocr.o)
 .comment       0x00000e8e       0x12 C:/Program Files/Ingenico/IngeDev_722/plugins/com.ingenico.ingedev.telium.bin.win32.gnuarm.v343_7.20.0.1/os/win32/GNUARM/3.4.3/arm-elf/lib/thumb/soft/interwork/libc.a(closer.o)
 .comment       0x00000ea0       0x12 C:/Program Files/Ingenico/IngeDev_722/plugins/com.ingenico.ingedev.telium.bin.win32.gnuarm.v343_7.20.0.1/os/win32/GNUARM/3.4.3/arm-elf/lib/thumb/soft/interwork/libc.a(fstatr.o)
 .comment       0x00000eb2       0x12 C:/Program Files/Ingenico/IngeDev_722/plugins/com.ingenico.ingedev.telium.bin.win32.gnuarm.v343_7.20.0.1/os/win32/GNUARM/3.4.3/arm-elf/lib/thumb/soft/interwork/libc.a(lseekr.o)
 .comment       0x00000ec4       0x12 C:/Program Files/Ingenico/IngeDev_722/plugins/com.ingenico.ingedev.telium.bin.win32.gnuarm.v343_7.20.0.1/os/win32/GNUARM/3.4.3/arm-elf/lib/thumb/soft/interwork/libc.a(readr.o)
 .comment       0x00000ed6       0x12 C:/Program Files/Ingenico/IngeDev_722/plugins/com.ingenico.ingedev.telium.bin.win32.gnuarm.v343_7.20.0.1/os/win32/GNUARM/3.4.3/arm-elf/lib/thumb/soft/interwork/libc.a(reent.o)
 .comment       0x00000ee8       0x12 C:/Program Files/Ingenico/IngeDev_722/plugins/com.ingenico.ingedev.telium.bin.win32.gnuarm.v343_7.20.0.1/os/win32/GNUARM/3.4.3/lib/gcc/arm-elf/3.4.3/thumb/soft/interwork/libgcc.a(_muldi3.o)
 .comment       0x00000efa       0x12 C:/Program Files/Ingenico/IngeDev_722/plugins/com.ingenico.ingedev.telium.bin.win32.gnuarm.v343_7.20.0.1/os/win32/GNUARM/3.4.3/lib/gcc/arm-elf/3.4.3/thumb/soft/interwork/libgcc.a(_lshrdi3.o)
 .comment       0x00000f0c       0x12 C:/Program Files/Ingenico/IngeDev_722/plugins/com.ingenico.ingedev.telium.bin.win32.gnuarm.v343_7.20.0.1/os/win32/GNUARM/3.4.3/lib/gcc/arm-elf/3.4.3/thumb/soft/interwork/libgcc.a(_ashldi3.o)
 .comment       0x00000f1e       0x12 C:/Program Files/Ingenico/IngeDev_722/plugins/com.ingenico.ingedev.telium.bin.win32.gnuarm.v343_7.20.0.1/os/win32/GNUARM/3.4.3/lib/gcc/arm-elf/3.4.3/thumb/soft/interwork/libgcc.a(_udivdi3.o)
 .comment       0x00000f30       0x12 C:/Program Files/Ingenico/IngeDev_722/plugins/com.ingenico.ingedev.telium.bin.win32.gnuarm.v343_7.20.0.1/os/win32/GNUARM/3.4.3/lib/gcc/arm-elf/3.4.3/thumb/soft/interwork/libgcc.a(_clz.o)

.debug_ranges   0x00000000      0x338
 .debug_ranges  0x00000000       0x20 libs/GNU_ARM_RELEASE/RSA.lib(m_mul.o)
 .debug_ranges  0x00000020       0x18 libs/GNU_ARM_RELEASE/RSA.lib(m_rand.o)
 .debug_ranges  0x00000038       0x98 C:/Program Files/SDK30/SDK 9.20.0.01/SDK/lib_gnu/IP_.lib(EthernetConfig.o)
 .debug_ranges  0x000000d0       0x40 C:/Program Files/SDK30/SDK 9.20.0.01/SDK/lib_gnu/IP_.lib(Telium_IP_Inet.o)
 .debug_ranges  0x00000110       0x60 C:/Program Files/Ingenico/IngeDev_722/plugins/com.ingenico.ingedev.telium.bin.win32.gnuarm.v343_7.20.0.1/os/win32/GNUARM/3.4.3/arm-elf/lib/thumb/soft/interwork/libc.a(vfprintf.o)
 .debug_ranges  0x00000170       0x18 C:/Program Files/Ingenico/IngeDev_722/plugins/com.ingenico.ingedev.telium.bin.win32.gnuarm.v343_7.20.0.1/os/win32/GNUARM/3.4.3/arm-elf/lib/thumb/soft/interwork/libc.a(fvwrite.o)
 .debug_ranges  0x00000188       0x38 C:/Program Files/Ingenico/IngeDev_722/plugins/com.ingenico.ingedev.telium.bin.win32.gnuarm.v343_7.20.0.1/os/win32/GNUARM/3.4.3/arm-elf/lib/thumb/soft/interwork/libc.a(reallocr.o)
 .debug_ranges  0x000001c0       0x40 C:/Program Files/Ingenico/IngeDev_722/plugins/com.ingenico.ingedev.telium.bin.win32.gnuarm.v343_7.20.0.1/os/win32/GNUARM/3.4.3/lib/gcc/arm-elf/3.4.3/thumb/soft/interwork/libgcc.a(_muldi3.o)
 .debug_ranges  0x00000200      0x138 C:/Program Files/Ingenico/IngeDev_722/plugins/com.ingenico.ingedev.telium.bin.win32.gnuarm.v343_7.20.0.1/os/win32/GNUARM/3.4.3/lib/gcc/arm-elf/3.4.3/thumb/soft/interwork/libgcc.a(_udivdi3.o)
