Archive member included because of file (symbol)

libs/GNU_ARM_DEBUG/RSA.lib(RSA_dec.o)
                              Obj/DEBUG_T1/LineEncryption.o (RSA_Decrypt)
libs/GNU_ARM_DEBUG/RSA.lib(RSA_init.o)
                              Obj/DEBUG_T1/LineEncryption.o (RSA_init)
libs/GNU_ARM_DEBUG/RSA.lib(m_add.o)
                              libs/GNU_ARM_DEBUG/RSA.lib(RSA_dec.o) (math_add)
libs/GNU_ARM_DEBUG/RSA.lib(m_b2w.o)
                              libs/GNU_ARM_DEBUG/RSA.lib(RSA_dec.o) (math_byteToWord)
libs/GNU_ARM_DEBUG/RSA.lib(m_clr.o)
                              libs/GNU_ARM_DEBUG/RSA.lib(RSA_dec.o) (math_clr)
libs/GNU_ARM_DEBUG/RSA.lib(m_cmp.o)
                              libs/GNU_ARM_DEBUG/RSA.lib(RSA_dec.o) (math_cmp)
libs/GNU_ARM_DEBUG/RSA.lib(m_cpy.o)
                              libs/GNU_ARM_DEBUG/RSA.lib(RSA_dec.o) (math_cpy)
libs/GNU_ARM_DEBUG/RSA.lib(m_div.o)
                              libs/GNU_ARM_DEBUG/RSA.lib(RSA_dec.o) (math_div)
libs/GNU_ARM_DEBUG/RSA.lib(m_mem.o)
                              libs/GNU_ARM_DEBUG/RSA.lib(RSA_init.o) (math_memInit)
libs/GNU_ARM_DEBUG/RSA.lib(m_modmul.o)
                              libs/GNU_ARM_DEBUG/RSA.lib(RSA_dec.o) (math_modmul)
libs/GNU_ARM_DEBUG/RSA.lib(m_monexp.o)
                              libs/GNU_ARM_DEBUG/RSA.lib(RSA_dec.o) (math_monexp)
libs/GNU_ARM_DEBUG/RSA.lib(m_moninv.o)
                              libs/GNU_ARM_DEBUG/RSA.lib(m_monexp.o) (math_moninv)
libs/GNU_ARM_DEBUG/RSA.lib(m_monmul.o)
                              libs/GNU_ARM_DEBUG/RSA.lib(m_monexp.o) (math_monmul)
libs/GNU_ARM_DEBUG/RSA.lib(m_msb.o)
                              libs/GNU_ARM_DEBUG/RSA.lib(m_div.o) (math_msb)
libs/GNU_ARM_DEBUG/RSA.lib(m_mul.o)
                              libs/GNU_ARM_DEBUG/RSA.lib(RSA_dec.o) (math_mul)
libs/GNU_ARM_DEBUG/RSA.lib(m_mulsub.o)
                              libs/GNU_ARM_DEBUG/RSA.lib(m_div.o) (math_mulsub)
libs/GNU_ARM_DEBUG/RSA.lib(m_rand.o)
                              libs/GNU_ARM_DEBUG/RSA.lib(RSA_init.o) (math_random_init)
libs/GNU_ARM_DEBUG/RSA.lib(m_red.o)
                              libs/GNU_ARM_DEBUG/RSA.lib(m_monmul.o) (math_monred)
libs/GNU_ARM_DEBUG/RSA.lib(m_shlx.o)
                              libs/GNU_ARM_DEBUG/RSA.lib(m_div.o) (math_shlx)
libs/GNU_ARM_DEBUG/RSA.lib(m_shrx.o)
                              libs/GNU_ARM_DEBUG/RSA.lib(m_div.o) (math_shrx)
libs/GNU_ARM_DEBUG/RSA.lib(m_sub.o)
                              libs/GNU_ARM_DEBUG/RSA.lib(RSA_dec.o) (math_sub)
libs/GNU_ARM_DEBUG/RSA.lib(m_w2b.o)
                              libs/GNU_ARM_DEBUG/RSA.lib(RSA_dec.o) (math_wordToByte)
C:/Program Files/SDK30/SDK 7.5.1/SDK/lib_gnu/eft30.lib(iam1.o)
                              Obj/DEBUG_T1/sgm.o (Send_Message)
C:/Program Files/SDK30/SDK 7.5.1/SDK/lib_gnu/eft30.lib(atoi.o)
                              Obj/DEBUG_T1/req.o (atol)
C:/Program Files/SDK30/SDK 7.5.1/SDK/lib_gnu/eft30.lib(extens119.o)
                              Obj/DEBUG_T1/tlmhmi.o (StateHeader)
C:/Program Files/SDK30/SDK 7.5.1/SDK/lib_gnu/eft30.lib(extens5.o)
                              Obj/DEBUG_T1/sgm.o (Get_TypeCode)
C:/Program Files/SDK30/SDK 7.5.1/SDK/lib_gnu/eft30.lib(extens53.o)
                              Obj/DEBUG_T1/tlm.o (d_tolong)
C:/Program Files/SDK30/SDK 7.5.1/SDK/lib_gnu/eft30.lib(extens87.o)
                              Obj/DEBUG_T1/tlmemv.o (USR_ServiceCall)
C:/Program Files/SDK30/SDK 7.5.1/SDK/lib_gnu/eft30.lib(extens89.o)
                              Obj/DEBUG_T1/tlm.o (GetSemaphoreUser)
C:/Program Files/SDK30/SDK 7.5.1/SDK/lib_gnu/eft30.lib(extens90.o)
                              Obj/DEBUG_T1/tlm.o (FreeSemaphoreUser)
C:/Program Files/SDK30/SDK 7.5.1/SDK/lib_gnu/eft30.lib(extens93.o)
                              Obj/DEBUG_T1/tlm.o (GetDelayUser)
C:/Program Files/SDK30/SDK 7.5.1/SDK/lib_gnu/eft30.lib(extens94.o)
                              Obj/DEBUG_T1/tlm.o (FreeDelayUser)
C:/Program Files/SDK30/SDK 7.5.1/SDK/lib_gnu/eft30.lib(param17.o)
                              Obj/DEBUG_T1/tlmcry.o (PSQ_Donner_noserie)
C:/Program Files/SDK30/SDK 7.5.1/SDK/lib_gnu/eft30.lib(param46.o)
                              Obj/DEBUG_T1/sgm.o (PSQ_Update_Cash_Connection)
C:/Program Files/SDK30/SDK 7.5.1/SDK/lib_gnu/eft30.lib(param72.o)
                              Obj/DEBUG_T1/tlmcry.o (PSQ_donner_type_pinpad)
C:/Program Files/SDK30/SDK 7.5.1/SDK/lib_gnu/eft30.lib(crypto.o)
                              Obj/DEBUG_T1/LineEncryption.o (ShaCompute)
C:/Program Files/SDK30/SDK 7.5.1/SDK/lib_gnu/eft30.lib(pinpad10.o)
                              Obj/DEBUG_T1/tlmcry.o (PPS_firstline)
C:/Program Files/SDK30/SDK 7.5.1/SDK/lib_gnu/eft30.lib(pinpad12.o)
                              Obj/DEBUG_T1/tlmcry.o (PPS_Display)
C:/Program Files/SDK30/SDK 7.5.1/SDK/lib_gnu/eft30.lib(pinpad15.o)
                              Obj/DEBUG_T1/tlmcry.o (PPS_clear_display)
C:/Program Files/SDK30/SDK 7.5.1/SDK/lib_gnu/eft30.lib(pinpad8.o)
                              Obj/DEBUG_T1/tlmcry.o (PPS_newline)
C:/Program Files/SDK30/SDK 7.5.1/SDK/lib_gnu/eft30.lib(pinpad9.o)
                              Obj/DEBUG_T1/tlmcry.o (PPS_clearline)
C:/Program Files/SDK30/SDK 7.5.1/SDK/lib_gnu/eft30.lib(sv21.o)
                              Obj/DEBUG_T1/tlm.o (SV_input_command)
C:/Program Files/SDK30/SDK 7.5.1/SDK/lib_gnu/eft30.lib(sv22.o)
                              Obj/DEBUG_T1/tlm.o (SV_output_command)
C:/Program Files/SDK30/SDK 7.5.1/SDK/lib_gnu/eft30.lib(sv23.o)
                              Obj/DEBUG_T1/tlm.o (SV_power_on)
C:/Program Files/SDK30/SDK 7.5.1/SDK/lib_gnu/eft30.lib(sv24.o)
                              Obj/DEBUG_T1/tlm.o (SV_read_date)
C:/Program Files/SDK30/SDK 7.5.1/SDK/lib_gnu/eft30.lib(sv25.o)
                              Obj/DEBUG_T1/tlm.o (SV_write_date)
C:/Program Files/SDK30/SDK 7.5.1/SDK/lib_gnu/eft30.lib(libgr1.o)
                              Obj/DEBUG_T1/tlmhmi.o (PaintGraphics)
C:/Program Files/SDK30/SDK 7.5.1/SDK/lib_gnu/eft30.lib(libgr35.o)
                              Obj/DEBUG_T1/tlmhmi.o (_clrscr)
C:/Program Files/SDK30/SDK 7.5.1/SDK/lib_gnu/eft30.lib(libgr40.o)
                              Obj/DEBUG_T1/tlmhmi.o (InitContexteGraphique)
C:/Program Files/SDK30/SDK 7.5.1/SDK/lib_gnu/eft30.lib(libgr41.o)
                              Obj/DEBUG_T1/sgm.o (DisplayBitmap)
C:/Program Files/SDK30/SDK 7.5.1/SDK/lib_gnu/eft30.lib(libgr49.o)
                              Obj/DEBUG_T1/sgm.o (GetDefaultFont)
C:/Program Files/SDK30/SDK 7.5.1/SDK/lib_gnu/eft30.lib(libgr54.o)
                              Obj/DEBUG_T1/tlmhmi.o (DefCurrentFont)
C:/Program Files/SDK30/SDK 7.5.1/SDK/lib_gnu/eft30.lib(libgr55.o)
                              Obj/DEBUG_T1/tlmhmi.o (DrawExtendedString8859)
C:/Program Files/SDK30/SDK 7.5.1/SDK/lib_gnu/eft30.lib(libgr58.o)
                              Obj/DEBUG_T1/tlmhmi.o (pprintf8859)
C:/Program Files/SDK30/SDK 7.5.1/SDK/lib_gnu/eft30.lib(libgr66.o)
                              Obj/DEBUG_T1/tlmhmi.o (GetExtendedPoliceSize)
C:/Program Files/SDK30/SDK 7.5.1/SDK/lib_gnu/eft30.lib(libgr68.o)
                              Obj/DEBUG_T1/tlmhmi.o (LoadFont)
C:/Program Files/SDK30/SDK 7.5.1/SDK/lib_gnu/eft30.lib(libgr7.o)
                              Obj/DEBUG_T1/tlmhmi.o (CreateGraphics)
C:/Program Files/SDK30/SDK 7.5.1/SDK/lib_gnu/eft30.lib(libgr8.o)
                              Obj/DEBUG_T1/tlmhmi.o (_SetPixel)
C:/Program Files/SDK30/SDK 7.5.1/SDK/lib_gnu/eft30.lib(libgr82.o)
                              Obj/DEBUG_T1/tlmhmi.o (PaintPrinterGraphics)
C:/Program Files/SDK30/SDK 7.5.1/SDK/lib_gnu/eft30.lib(libgr83.o)
                              Obj/DEBUG_T1/tlmhmi.o (InitPrinterBitmap)
C:/Program Files/SDK30/SDK 7.5.1/SDK/lib_gnu/eft30.lib(libgr86.o)
                              Obj/DEBUG_T1/tlmhmi.o (_pprintf8859XY)
C:/Program Files/SDK30/SDK 7.5.1/SDK/lib_gnu/eft30.lib(gprs.o)
                              Obj/DEBUG_T1/tlmchn.o (gprslib_open)
C:/Program Files/SDK30/SDK 7.5.1/SDK/lib_gnu/eft30.lib(LibAppli.o)
                              Obj/DEBUG_T1/tlmhmi.o (fprintf)
C:/Program Files/SDK30/SDK 7.5.1/SDK/lib_gnu/eft30.lib(iam.o)
                              C:/Program Files/SDK30/SDK 7.5.1/SDK/lib_gnu/eft30.lib(iam1.o) (iamlib_open)
C:/Program Files/SDK30/SDK 7.5.1/SDK/lib_gnu/eft30.lib(ctype.o)
                              C:/Program Files/SDK30/SDK 7.5.1/SDK/lib_gnu/eft30.lib(atoi.o) (isdigit)
C:/Program Files/SDK30/SDK 7.5.1/SDK/lib_gnu/eft30.lib(extens.o)
                              C:/Program Files/SDK30/SDK 7.5.1/SDK/lib_gnu/eft30.lib(extens119.o) (extenslib_open)
C:/Program Files/SDK30/SDK 7.5.1/SDK/lib_gnu/eft30.lib(param.o)
                              C:/Program Files/SDK30/SDK 7.5.1/SDK/lib_gnu/eft30.lib(param17.o) (paramlib_open)
C:/Program Files/SDK30/SDK 7.5.1/SDK/lib_gnu/eft30.lib(pinpad.o)
                              C:/Program Files/SDK30/SDK 7.5.1/SDK/lib_gnu/eft30.lib(pinpad10.o) (pinpadlib_open)
C:/Program Files/SDK30/SDK 7.5.1/SDK/lib_gnu/eft30.lib(sv.o)
                              C:/Program Files/SDK30/SDK 7.5.1/SDK/lib_gnu/eft30.lib(sv21.o) (svlib_open)
C:/Program Files/SDK30/SDK 7.5.1/SDK/lib_gnu/eft30.lib(libgr.o)
                              C:/Program Files/SDK30/SDK 7.5.1/SDK/lib_gnu/eft30.lib(libgr1.o) (libgrlib_open)
C:/Program Files/SDK30/SDK 7.5.1/SDK/lib_gnu/trap.lib(trap_1302___STDOUT.o)
                              C:/Program Files/SDK30/SDK 7.5.1/SDK/lib_gnu/eft30.lib(LibAppli.o) (__STDOUT)
C:/Program Files/SDK30/SDK 7.5.1/SDK/lib_gnu/trap.lib(trap_1303_OS_rtc_CurrentTask.o)
                              Obj/DEBUG_T1/tlm.o (OS_rtc_CurrentTask)
C:/Program Files/SDK30/SDK 7.5.1/SDK/lib_gnu/trap.lib(trap_1305_OS_rtc_SignalEvent.o)
                              Obj/DEBUG_T1/sgm.o (OS_rtc_SignalEvent)
C:/Program Files/SDK30/SDK 7.5.1/SDK/lib_gnu/trap.lib(trap_1307_OS_rtc_V.o)
                              Obj/DEBUG_T1/tlm.o (OS_rtc_V)
C:/Program Files/SDK30/SDK 7.5.1/SDK/lib_gnu/trap.lib(trap_1308_OS_rtc_P.o)
                              Obj/DEBUG_T1/tlm.o (OS_rtc_P)
C:/Program Files/SDK30/SDK 7.5.1/SDK/lib_gnu/trap.lib(trap_1309_OS_rtc_StartLDelay.o)
                              Obj/DEBUG_T1/tlm.o (OS_rtc_StartLDelay)
C:/Program Files/SDK30/SDK 7.5.1/SDK/lib_gnu/trap.lib(trap_130A_OS_rtc_StopDelay.o)
                              Obj/DEBUG_T1/tlm.o (OS_rtc_StopDelay)
C:/Program Files/SDK30/SDK 7.5.1/SDK/lib_gnu/trap.lib(trap_130D_OS_rtc_InitSemaphore.o)
                              Obj/DEBUG_T1/tlm.o (OS_rtc_InitSemaphore)
C:/Program Files/SDK30/SDK 7.5.1/SDK/lib_gnu/trap.lib(trap_1313_fclose.o)
                              Obj/DEBUG_T1/tlm.o (fclose)
C:/Program Files/SDK30/SDK 7.5.1/SDK/lib_gnu/trap.lib(trap_1314_fopen.o)
                              Obj/DEBUG_T1/tlm.o (fopen)
C:/Program Files/SDK30/SDK 7.5.1/SDK/lib_gnu/trap.lib(trap_1315_fread.o)
                              Obj/DEBUG_T1/sgm.o (fread)
C:/Program Files/SDK30/SDK 7.5.1/SDK/lib_gnu/trap.lib(trap_1316_fwrite.o)
                              Obj/DEBUG_T1/sgm.o (fwrite)
C:/Program Files/SDK30/SDK 7.5.1/SDK/lib_gnu/trap.lib(trap_1319_getc.o)
                              Obj/DEBUG_T1/tlmhmi.o (getc)
C:/Program Files/SDK30/SDK 7.5.1/SDK/lib_gnu/trap.lib(trap_131A_reset_buf.o)
                              Obj/DEBUG_T1/tlm.o (reset_buf)
C:/Program Files/SDK30/SDK 7.5.1/SDK/lib_gnu/trap.lib(trap_131B___STDIN.o)
                              Obj/DEBUG_T1/tlmhmi.o (__STDIN)
C:/Program Files/SDK30/SDK 7.5.1/SDK/lib_gnu/trap.lib(trap_131E_status.o)
                              Obj/DEBUG_T1/tlm.o (status)
C:/Program Files/SDK30/SDK 7.5.1/SDK/lib_gnu/trap.lib(trap_1320_gotoxy.o)
                              Obj/DEBUG_T1/function.o (gotoxy)
C:/Program Files/SDK30/SDK 7.5.1/SDK/lib_gnu/trap.lib(trap_1323__vfprintf.o)
                              C:/Program Files/SDK30/SDK 7.5.1/SDK/lib_gnu/eft30.lib(LibAppli.o) (_vfprintf)
C:/Program Files/SDK30/SDK 7.5.1/SDK/lib_gnu/trap.lib(trap_1324_vsprintf.o)
                              C:/Program Files/SDK30/SDK 7.5.1/SDK/lib_gnu/eft30.lib(LibAppli.o) (vsprintf)
C:/Program Files/SDK30/SDK 7.5.1/SDK/lib_gnu/trap.lib(trap_1325_fgets.o)
                              Obj/DEBUG_T1/bignum.o (fgets)
C:/Program Files/SDK30/SDK 7.5.1/SDK/lib_gnu/trap.lib(trap_1328_putc.o)
                              C:/Program Files/SDK30/SDK 7.5.1/SDK/lib_gnu/eft30.lib(LibAppli.o) (putc)
C:/Program Files/SDK30/SDK 7.5.1/SDK/lib_gnu/trap.lib(trap_1329_ttestall.o)
                              Obj/DEBUG_T1/tlm.o (ttestall)
C:/Program Files/SDK30/SDK 7.5.1/SDK/lib_gnu/trap.lib(trap_132A_fork.o)
                              Obj/DEBUG_T1/tlm.o (fork)
C:/Program Files/SDK30/SDK 7.5.1/SDK/lib_gnu/trap.lib(trap_132B_kill.o)
                              Obj/DEBUG_T1/tlm.o (kill)
C:/Program Files/SDK30/SDK 7.5.1/SDK/lib_gnu/trap.lib(trap_132C_FormatOem.o)
                              C:/Program Files/SDK30/SDK 7.5.1/SDK/lib_gnu/eft30.lib(LibAppli.o) (FormatOem)
C:/Program Files/SDK30/SDK 7.5.1/SDK/lib_gnu/trap.lib(trap_1332_EMV_apdu.o)
                              Obj/DEBUG_T1/tlm.o (EMV_apdu)
C:/Program Files/SDK30/SDK 7.5.1/SDK/lib_gnu/trap.lib(trap_1335_EMV_power_on.o)
                              Obj/DEBUG_T1/tlm.o (EMV_power_on)
C:/Program Files/SDK30/SDK 7.5.1/SDK/lib_gnu/trap.lib(trap_133C_memcpy.o)
                              Obj/DEBUG_T1/tbx.o (memcpy)
C:/Program Files/SDK30/SDK 7.5.1/SDK/lib_gnu/trap.lib(trap_133D_memmove.o)
                              Obj/DEBUG_T1/tbx.o (memmove)
C:/Program Files/SDK30/SDK 7.5.1/SDK/lib_gnu/trap.lib(trap_133E_strcpy.o)
                              Obj/DEBUG_T1/tlm.o (strcpy)
C:/Program Files/SDK30/SDK 7.5.1/SDK/lib_gnu/trap.lib(trap_133F_strncpy.o)
                              Obj/DEBUG_T1/tlmhmi.o (strncpy)
C:/Program Files/SDK30/SDK 7.5.1/SDK/lib_gnu/trap.lib(trap_1340_strcat.o)
                              Obj/DEBUG_T1/tlmhmi.o (strcat)
C:/Program Files/SDK30/SDK 7.5.1/SDK/lib_gnu/trap.lib(trap_1342_memcmp.o)
                              Obj/DEBUG_T1/tlm.o (memcmp)
C:/Program Files/SDK30/SDK 7.5.1/SDK/lib_gnu/trap.lib(trap_1343_strcmp.o)
                              Obj/DEBUG_T1/tlmmem.o (strcmp)
C:/Program Files/SDK30/SDK 7.5.1/SDK/lib_gnu/trap.lib(trap_1346_memset.o)
                              Obj/DEBUG_T1/tbx.o (memset)
C:/Program Files/SDK30/SDK 7.5.1/SDK/lib_gnu/trap.lib(trap_1348_ObjectGetInfo.o)
                              Obj/DEBUG_T1/tlm.o (ObjectGetInfo)
C:/Program Files/SDK30/SDK 7.5.1/SDK/lib_gnu/trap.lib(trap_1349_ObjectLoad.o)
                              C:/Program Files/SDK30/SDK 7.5.1/SDK/lib_gnu/eft30.lib(crypto.o) (ObjectLoad)
C:/Program Files/SDK30/SDK 7.5.1/SDK/lib_gnu/trap.lib(trap_134D_ServiceRegister.o)
                              Obj/DEBUG_T1/Main.o (ServiceRegister)
C:/Program Files/SDK30/SDK 7.5.1/SDK/lib_gnu/trap.lib(trap_134E_ServiceGet.o)
                              Obj/DEBUG_T1/tlmemv.o (ServiceGet)
C:/Program Files/SDK30/SDK 7.5.1/SDK/lib_gnu/trap.lib(trap_1350_DllLink.o)
                              C:/Program Files/SDK30/SDK 7.5.1/SDK/lib_gnu/eft30.lib(crypto.o) (DllLink)
C:/Program Files/SDK30/SDK 7.5.1/SDK/lib_gnu/trap.lib(trap_1352_DllUnlink.o)
                              C:/Program Files/SDK30/SDK 7.5.1/SDK/lib_gnu/eft30.lib(crypto.o) (DllUnlink)
C:/Program Files/SDK30/SDK 7.5.1/SDK/lib_gnu/trap.lib(trap_1356_stdperif.o)
                              Obj/DEBUG_T1/tlmchn.o (stdperif)
C:/Program Files/SDK30/SDK 7.5.1/SDK/lib_gnu/trap.lib(trap_135B_StartRetroEclairage.o)
                              Obj/DEBUG_T1/tlmhmi.o (StartRetroEclairage)
C:/Program Files/SDK30/SDK 7.5.1/SDK/lib_gnu/trap.lib(trap_135C_StopRetroEclairage.o)
                              Obj/DEBUG_T1/tlmhmi.o (StopRetroEclairage)
C:/Program Files/SDK30/SDK 7.5.1/SDK/lib_gnu/trap.lib(trap_1369_startupcv20.o)
                              Obj/DEBUG_T1/function.o (startupcv20)
C:/Program Files/SDK30/SDK 7.5.1/SDK/lib_gnu/trap.lib(trap_1373_ctrl_date.o)
                              Obj/DEBUG_T1/tlm.o (ctrl_date)
C:/Program Files/SDK30/SDK 7.5.1/SDK/lib_gnu/trap.lib(trap_1374_defprinterpattern.o)
                              Obj/DEBUG_T1/tlmhmi.o (defprinterpattern)
C:/Program Files/SDK30/SDK 7.5.1/SDK/lib_gnu/trap.lib(trap_1375_download.o)
                              C:/Program Files/SDK30/SDK 7.5.1/SDK/lib_gnu/eft30.lib(LibAppli.o) (download)
C:/Program Files/SDK30/SDK 7.5.1/SDK/lib_gnu/trap.lib(trap_1378_OEM_exit.o)
                              Obj/DEBUG_T1/tlm.o (OEM_exit)
C:/Program Files/SDK30/SDK 7.5.1/SDK/lib_gnu/trap.lib(trap_137B_is_iso2.o)
                              Obj/DEBUG_T1/tlm.o (is_iso2)
C:/Program Files/SDK30/SDK 7.5.1/SDK/lib_gnu/trap.lib(trap_137C_is_iso3.o)
                              Obj/DEBUG_T1/tlm.o (is_iso3)
C:/Program Files/SDK30/SDK 7.5.1/SDK/lib_gnu/trap.lib(trap_137D_is_iso1.o)
                              Obj/DEBUG_T1/tlm.o (is_iso1)
C:/Program Files/SDK30/SDK 7.5.1/SDK/lib_gnu/trap.lib(trap_138B_FS_dskcreate.o)
                              Obj/DEBUG_T1/tlmmem.o (FS_dskcreate)
C:/Program Files/SDK30/SDK 7.5.1/SDK/lib_gnu/trap.lib(trap_138D_FS_mount.o)
                              Obj/DEBUG_T1/tlmmem.o (FS_mount)
C:/Program Files/SDK30/SDK 7.5.1/SDK/lib_gnu/trap.lib(trap_138E_FS_unmount.o)
                              Obj/DEBUG_T1/tlmmem.o (FS_unmount)
C:/Program Files/SDK30/SDK 7.5.1/SDK/lib_gnu/trap.lib(trap_1395_FS_opendir.o)
                              Obj/DEBUG_T1/sgm.o (FS_opendir)
C:/Program Files/SDK30/SDK 7.5.1/SDK/lib_gnu/trap.lib(trap_1396_FS_readdir.o)
                              Obj/DEBUG_T1/sgm.o (FS_readdir)
C:/Program Files/SDK30/SDK 7.5.1/SDK/lib_gnu/trap.lib(trap_1397_FS_closedir.o)
                              Obj/DEBUG_T1/sgm.o (FS_closedir)
C:/Program Files/SDK30/SDK 7.5.1/SDK/lib_gnu/trap.lib(trap_1398_FS_rename.o)
                              Obj/DEBUG_T1/tlmmem.o (FS_rename)
C:/Program Files/SDK30/SDK 7.5.1/SDK/lib_gnu/trap.lib(trap_1399_FS_unlink.o)
                              Obj/DEBUG_T1/tlmmem.o (FS_unlink)
C:/Program Files/SDK30/SDK 7.5.1/SDK/lib_gnu/trap.lib(trap_139B_FS_open.o)
                              Obj/DEBUG_T1/tlmmem.o (FS_open)
C:/Program Files/SDK30/SDK 7.5.1/SDK/lib_gnu/trap.lib(trap_139C_FS_close.o)
                              Obj/DEBUG_T1/tlmmem.o (FS_close)
C:/Program Files/SDK30/SDK 7.5.1/SDK/lib_gnu/trap.lib(trap_139D_FS_read.o)
                              Obj/DEBUG_T1/tlmmem.o (FS_read)
C:/Program Files/SDK30/SDK 7.5.1/SDK/lib_gnu/trap.lib(trap_139E_FS_write.o)
                              Obj/DEBUG_T1/tlmmem.o (FS_write)
C:/Program Files/SDK30/SDK 7.5.1/SDK/lib_gnu/trap.lib(trap_139F_FS_flush.o)
                              Obj/DEBUG_T1/tlmmem.o (FS_flush)
C:/Program Files/SDK30/SDK 7.5.1/SDK/lib_gnu/trap.lib(trap_13A1_FS_length.o)
                              Obj/DEBUG_T1/tlmmem.o (FS_length)
C:/Program Files/SDK30/SDK 7.5.1/SDK/lib_gnu/trap.lib(trap_13A2_FS_seek.o)
                              Obj/DEBUG_T1/tlmmem.o (FS_seek)
C:/Program Files/SDK30/SDK 7.5.1/SDK/lib_gnu/trap.lib(trap_13A8_info_seg.o)
                              Obj/DEBUG_T1/Main.o (info_seg)
C:/Program Files/SDK30/SDK 7.5.1/SDK/lib_gnu/trap.lib(trap_13AA_num_seg.o)
                              Obj/DEBUG_T1/tlm.o (num_seg)
C:/Program Files/SDK30/SDK 7.5.1/SDK/lib_gnu/trap.lib(trap_13AB_first_init.o)
                              Obj/DEBUG_T1/sgm.o (first_init)
C:/Program Files/SDK30/SDK 7.5.1/SDK/lib_gnu/trap.lib(trap_13B2_ApplicationGetCurrent.o)
                              Obj/DEBUG_T1/tlm.o (ApplicationGetCurrent)
C:/Program Files/SDK30/SDK 7.5.1/SDK/lib_gnu/trap.lib(trap_13B9_buzzer.o)
                              Obj/DEBUG_T1/tlm.o (buzzer)
C:/Program Files/SDK30/SDK 7.5.1/SDK/lib_gnu/trap.lib(trap_13BE_GiveNoTask.o)
                              Obj/DEBUG_T1/tlm.o (GiveNoTask)
C:/Program Files/SDK30/SDK 7.5.1/SDK/lib_gnu/trap.lib(trap_13C2_InitGkDrv.o)
                              C:/Program Files/SDK30/SDK 7.5.1/SDK/lib_gnu/eft30.lib(LibAppli.o) (InitGkDrv)
C:/Program Files/SDK30/SDK 7.5.1/SDK/lib_gnu/trap.lib(trap_13CE_closesocket.o)
                              Obj/DEBUG_T1/tlmchn.o (closesocket)
C:/Program Files/SDK30/SDK 7.5.1/SDK/lib_gnu/trap.lib(trap_13CF_connect.o)
                              Obj/DEBUG_T1/tlmchn.o (connect)
C:/Program Files/SDK30/SDK 7.5.1/SDK/lib_gnu/trap.lib(trap_13D6_shutdownsocket.o)
                              Obj/DEBUG_T1/tlmchn.o (shutdownsocket)
C:/Program Files/SDK30/SDK 7.5.1/SDK/lib_gnu/trap.lib(trap_13D7_socket.o)
                              Obj/DEBUG_T1/tlmchn.o (socket)
C:/Program Files/SDK30/SDK 7.5.1/SDK/lib_gnu/trap.lib(trap_1406_umalloc.o)
                              Obj/DEBUG_T1/LineEncryption.o (umalloc)
C:/Program Files/SDK30/SDK 7.5.1/SDK/lib_gnu/trap.lib(trap_1407_ufree.o)
                              Obj/DEBUG_T1/LineEncryption.o (ufree)
C:/Program Files/SDK30/SDK 7.5.1/SDK/lib_gnu/trap.lib(trap_1414_fioctl.o)
                              Obj/DEBUG_T1/tlmchn.o (fioctl)
C:/Program Files/SDK30/SDK 7.5.1/SDK/lib_gnu/trap.lib(trap_1426_get_tick_counter.o)
                              Obj/DEBUG_T1/tlm.o (get_tick_counter)
C:/Program Files/SDK30/SDK 7.5.1/SDK/lib_gnu/trap.lib(trap_1432_SystemFioctl.o)
                              Obj/DEBUG_T1/tlm.o (SystemFioctl)
C:/Program Files/SDK30/SDK 7.5.1/SDK/lib_gnu/AVL.lib(Proxy.o)
                              Obj/DEBUG_T1/tlmchn.o (TlvTree_New)
C:/Program Files/SDK30/SDK 7.5.1/SDK/lib_gnu/AVL.lib(Serializer.o)
                              C:/Program Files/SDK30/SDK 7.5.1/SDK/lib_gnu/AVL.lib(Proxy.o) (__TlvTree_Serialize)
C:/Program Files/SDK30/SDK 7.5.1/SDK/lib_gnu/AVL.lib(Serializer_Default.o)
                              C:/Program Files/SDK30/SDK 7.5.1/SDK/lib_gnu/AVL.lib(Serializer.o) (__TlvTree_Serialize_Default)
C:/Program Files/SDK30/SDK 7.5.1/SDK/lib_gnu/AVL.lib(Serializer_Xml.o)
                              C:/Program Files/SDK30/SDK 7.5.1/SDK/lib_gnu/AVL.lib(Serializer.o) (__TlvTree_Serialize_Xml)
C:/Program Files/SDK30/SDK 7.5.1/SDK/lib_gnu/AVL.lib(XMLs.o)
                              C:/Program Files/SDK30/SDK 7.5.1/SDK/lib_gnu/AVL.lib(Serializer_Xml.o) (XMLs_ParserOpen)
C:/Program Files/SDK30/SDK 7.5.1/SDK/lib_gnu/AVL.lib(XMLs_Parser.o)
                              C:/Program Files/SDK30/SDK 7.5.1/SDK/lib_gnu/AVL.lib(XMLs.o) (XMLgr_Document)
C:/Program Files/SDK30/SDK 7.5.1/SDK/lib_gnu/AVL.lib(XMLs_ProcessData.o)
                              C:/Program Files/SDK30/SDK 7.5.1/SDK/lib_gnu/AVL.lib(Serializer_Xml.o) (XMLs_ProcessData)
C:/Program Files/SDK30/SDK 7.5.1/SDK/lib_gnu/AVL.lib(Internal.o)
                              C:/Program Files/SDK30/SDK 7.5.1/SDK/lib_gnu/AVL.lib(Proxy.o) (__TlvTree_New)
C:/Program Files/SDK30/SDK 7.5.1/SDK/lib_gnu/LinkLayerExeInterface.lib(LinkLayerServices.o)
                              Obj/DEBUG_T1/tlmchn.o (LL_Configure)
C:/Program Files/SDK30/SDK 7.5.1/SDK/lib_gnu/SEC.lib(SECLibOpenClose.o)
                              Obj/DEBUG_T1/tlmcry.o (SEClib_Open)
C:/Program Files/SDK30/SDK 7.5.1/SDK/lib_gnu/SEC.lib(SEC1.o)
                              C:/Program Files/SDK30/SDK 7.5.1/SDK/lib_gnu/SEC.lib(SECLibOpenClose.o) (SEC_Version)
C:/Program Files/SDK30/SDK 7.5.1/SDK/lib_gnu/SEC.lib(SEC7.o)
                              C:/Program Files/SDK30/SDK 7.5.1/SDK/lib_gnu/SEC.lib(SECLibOpenClose.o) (SEC_InitVar)
C:/Program Files/SDK30/SDK 7.5.1/SDK/lib_gnu/SEC.lib(SEC8.o)
                              C:/Program Files/SDK30/SDK 7.5.1/SDK/lib_gnu/SEC.lib(SECLibOpenClose.o) (SEC_SetConfig)
C:/Program Files/SDK30/SDK 7.5.1/SDK/lib_gnu/SEC.lib(SEC9.o)
                              Obj/DEBUG_T1/tlmcry.o (SEC_GetConfig)
C:/Program Files/SDK30/SDK 7.5.1/SDK/lib_gnu/SEC.lib(SEC10.o)
                              Obj/DEBUG_T1/tlmcry.o (SEC_listSecureId)
C:/Program Files/SDK30/SDK 7.5.1/SDK/lib_gnu/SEC.lib(SEC11.o)
                              Obj/DEBUG_T1/tlmcry.o (SEC_isSecretArea)
C:/Program Files/SDK30/SDK 7.5.1/SDK/lib_gnu/SEC.lib(SEC19.o)
                              Obj/DEBUG_T1/tlmcry.o (SEC_CreateSecretArea)
C:/Program Files/SDK30/SDK 7.5.1/SDK/lib_gnu/SEC.lib(SEC20.o)
                              Obj/DEBUG_T1/tlmcry.o (SEC_FreeSecret)
C:/Program Files/SDK30/SDK 7.5.1/SDK/lib_gnu/SEC.lib(SEC21.o)
                              Obj/DEBUG_T1/tlmcry.o (SEC_LoadKey)
C:/Program Files/SDK30/SDK 7.5.1/SDK/lib_gnu/SEC.lib(SEC22.o)
                              Obj/DEBUG_T1/tlmcry.o (SEC_PinEntryInit)
C:/Program Files/SDK30/SDK 7.5.1/SDK/lib_gnu/SEC.lib(SEC23.o)
                              Obj/DEBUG_T1/tlmcry.o (SEC_PinEntry)
C:/Program Files/SDK30/SDK 7.5.1/SDK/lib_gnu/SEC.lib(SEC24.o)
                              Obj/DEBUG_T1/tlmcry.o (SEC_Iso9564)
C:/Program Files/SDK30/SDK 7.5.1/SDK/lib_gnu/SEC.lib(SEC25.o)
                              Obj/DEBUG_T1/tlmcry.o (SEC_DukptLoadKSN)
C:/Program Files/SDK30/SDK 7.5.1/SDK/lib_gnu/SEC.lib(SEC26.o)
                              Obj/DEBUG_T1/tlmcry.o (SEC_DukptLoadDerivationKey)
C:/Program Files/SDK30/SDK 7.5.1/SDK/lib_gnu/SEC.lib(SEC28.o)
                              Obj/DEBUG_T1/tlmcry.o (SEC_DukptGenerateInitialKey)
C:/Program Files/SDK30/SDK 7.5.1/SDK/lib_gnu/SEC.lib(SEC31.o)
                              Obj/DEBUG_T1/tlmcry.o (SEC_DukptEncryptPin)
C:/Program Files/SDK30/SDK 7.5.1/SDK/lib_gnu/SEC.lib(SEC32.o)
                              Obj/DEBUG_T1/tlmcry.o (SEC_ECBCipher)
C:/Program Files/SDK30/SDK 7.5.1/SDK/lib_gnu/SEC.lib(SEC34.o)
                              Obj/DEBUG_T1/tlmcry.o (SEC_ComputeMAC)
C:/Program Files/SDK30/SDK 7.5.1/SDK/lib_gnu/SEC.lib(SEC37.o)
                              C:/Program Files/SDK30/SDK 7.5.1/SDK/lib_gnu/SEC.lib(SECLibOpenClose.o) (SEC_InitInstance)
C:/Program Files/SDK30/SDK 7.5.1/SDK/lib_gnu/IP_.lib(IP.o)
                              Obj/DEBUG_T1/tlmchn.o (__inet_addr)
C:/Program Files/SDK30/SDK 7.5.1/SDK/lib_gnu/trap.lib(trap_1386_upload_diagnostic_txt.o)
                              C:/Program Files/SDK30/SDK 7.5.1/SDK/lib_gnu/LinkLayerExeInterface.lib(LinkLayerServices.o) (upload_diagnostic_txt)
C:/Program Files/SDK30/SDK 7.5.1/SDK/lib_gnu/trap.lib(trap_13D8_inet_addr.o)
                              C:/Program Files/SDK30/SDK 7.5.1/SDK/lib_gnu/IP_.lib(IP.o) (inet_addr)
C:/Program Files/SDK30/SDK 7.5.1/SDK/lib_gnu/trap.lib(trap_13DC_PppSetOption.o)
                              C:/Program Files/SDK30/SDK 7.5.1/SDK/lib_gnu/IP_.lib(IP.o) (PppSetOption)
C:/Program Files/SDK30/SDK 7.5.1/SDK/lib_gnu/trap.lib(trap_13E1_fcntlsocketSWI.o)
                              C:/Program Files/SDK30/SDK 7.5.1/SDK/lib_gnu/IP_.lib(IP.o) (fcntlsocketSWI)
C:/Program Files/SDK30/SDK 7.5.1/SDK/lib_gnu/trap.lib(trap_13E2_getsockoptSWI.o)
                              C:/Program Files/SDK30/SDK 7.5.1/SDK/lib_gnu/IP_.lib(IP.o) (getsockoptSWI)
C:/Program Files/SDK30/SDK 7.5.1/SDK/lib_gnu/trap.lib(trap_13E3_recvfromSWI.o)
                              C:/Program Files/SDK30/SDK 7.5.1/SDK/lib_gnu/IP_.lib(IP.o) (recvfromSWI)
C:/Program Files/SDK30/SDK 7.5.1/SDK/lib_gnu/trap.lib(trap_13E4_selectsocketSWI.o)
                              C:/Program Files/SDK30/SDK 7.5.1/SDK/lib_gnu/IP_.lib(IP.o) (selectsocketSWI)
C:/Program Files/SDK30/SDK 7.5.1/SDK/lib_gnu/trap.lib(trap_13E5_sendtoSWI.o)
                              C:/Program Files/SDK30/SDK 7.5.1/SDK/lib_gnu/IP_.lib(IP.o) (sendtoSWI)
C:/Program Files/SDK30/SDK 7.5.1/SDK/lib_gnu/trap.lib(trap_13E6_setsockoptSWI.o)
                              C:/Program Files/SDK30/SDK 7.5.1/SDK/lib_gnu/IP_.lib(IP.o) (setsockoptSWI)
C:/Program Files/SDK30/SDK 7.5.1/SDK/lib_gnu/trap.lib(trap_13E7_ngOSGetErrno.o)
                              C:/Program Files/SDK30/SDK 7.5.1/SDK/lib_gnu/IP_.lib(IP.o) (ngOSGetErrno)
C:/Program Files/SDK30/SDK 7.5.1/SDK/lib_gnu/trap.lib(trap_13E8_ngOSSetErrno.o)
                              C:/Program Files/SDK30/SDK 7.5.1/SDK/lib_gnu/IP_.lib(IP.o) (ngOSSetErrno)
C:/Program Files/SDK30/SDK 7.5.1/SDK/lib_gnu/trap.lib(trap_13E9_ngResolvSetOption.o)
                              C:/Program Files/SDK30/SDK 7.5.1/SDK/lib_gnu/IP_.lib(IP.o) (ngResolvSetOption)
C:/Program Files/SDK30/SDK 7.5.1/SDK/lib_gnu/trap.lib(trap_13EA_ngResolvGetOption.o)
                              C:/Program Files/SDK30/SDK 7.5.1/SDK/lib_gnu/IP_.lib(IP.o) (ngResolvGetOption)
C:/Program Files/SDK30/SDK 7.5.1/SDK/lib_gnu/trap.lib(trap_13ED_gethostbyaddr_rSWI.o)
                              C:/Program Files/SDK30/SDK 7.5.1/SDK/lib_gnu/IP_.lib(IP.o) (gethostbyaddr_rSWI)
C:/Program Files/SDK30/SDK 7.5.1/SDK/lib_gnu/trap.lib(trap_13EE_gethostbyname_rSWI.o)
                              C:/Program Files/SDK30/SDK 7.5.1/SDK/lib_gnu/IP_.lib(IP.o) (gethostbyname_rSWI)
C:/Program Files/SDK30/SDK 7.5.1/SDK/lib_gnu/trap.lib(trap_141D_ngRouteAdd.o)
                              C:/Program Files/SDK30/SDK 7.5.1/SDK/lib_gnu/IP_.lib(IP.o) (ngRouteAdd)
C:/Program Files/SDK30/SDK 7.5.1/SDK/lib_gnu/trap.lib(trap_141E_ngRouteDelete.o)
                              C:/Program Files/SDK30/SDK 7.5.1/SDK/lib_gnu/IP_.lib(IP.o) (ngRouteDelete)
C:/Program Files/SDK30/SDK 7.5.1/SDK/lib_gnu/trap.lib(trap_141F_ngRouteDefault.o)
                              C:/Program Files/SDK30/SDK 7.5.1/SDK/lib_gnu/IP_.lib(IP.o) (ngRouteDefault)
C:/Program Files/SDK30/SDK 7.5.1/SDK/lib_gnu/trap.lib(trap_142B_EthIfControl.o)
                              C:/Program Files/SDK30/SDK 7.5.1/SDK/lib_gnu/IP_.lib(IP.o) (EthIfControl)
C:/Program Files/Ingenico/IngeDev_7/plugins/com.ingenico.ingedev.telium.bin.win32_7.4.1.4/os/win32/GNUARM/arm-elf/lib/thumb/soft/interwork/libc.a(exit.o)
                              libs/GNU_ARM_DEBUG/RSA.lib(m_mem.o) (exit)
C:/Program Files/Ingenico/IngeDev_7/plugins/com.ingenico.ingedev.telium.bin.win32_7.4.1.4/os/win32/GNUARM/arm-elf/lib/thumb/soft/interwork/libc.a(impure.o)
                              C:/Program Files/Ingenico/IngeDev_7/plugins/com.ingenico.ingedev.telium.bin.win32_7.4.1.4/os/win32/GNUARM/arm-elf/lib/thumb/soft/interwork/libc.a(exit.o) (_global_impure_ptr)
C:/Program Files/Ingenico/IngeDev_7/plugins/com.ingenico.ingedev.telium.bin.win32_7.4.1.4/os/win32/GNUARM/arm-elf/lib/thumb/soft/interwork/libc.a(rand.o)
                              Obj/DEBUG_T1/tlm.o (rand)
C:/Program Files/Ingenico/IngeDev_7/plugins/com.ingenico.ingedev.telium.bin.win32_7.4.1.4/os/win32/GNUARM/arm-elf/lib/thumb/soft/interwork/libc.a(strchr.o)
                              C:/Program Files/SDK30/SDK 7.5.1/SDK/lib_gnu/AVL.lib(Serializer_Xml.o) (strchr)
C:/Program Files/Ingenico/IngeDev_7/plugins/com.ingenico.ingedev.telium.bin.win32_7.4.1.4/os/win32/GNUARM/arm-elf/lib/thumb/soft/interwork/libc.a(strlen.o)
                              Obj/DEBUG_T1/tbx.o (strlen)
C:/Program Files/Ingenico/IngeDev_7/plugins/com.ingenico.ingedev.telium.bin.win32_7.4.1.4/os/win32/GNUARM/arm-elf/lib/thumb/soft/interwork/libc.a(strstr.o)
                              C:/Program Files/SDK30/SDK 7.5.1/SDK/lib_gnu/AVL.lib(XMLs_ProcessData.o) (strstr)
C:/Program Files/Ingenico/IngeDev_7/plugins/com.ingenico.ingedev.telium.bin.win32_7.4.1.4/os/win32/GNUARM/arm-elf/lib/thumb/soft/interwork/libc.a(strtoul.o)
                              C:/Program Files/SDK30/SDK 7.5.1/SDK/lib_gnu/AVL.lib(Serializer_Xml.o) (strtoul)
C:/Program Files/Ingenico/IngeDev_7/plugins/com.ingenico.ingedev.telium.bin.win32_7.4.1.4/os/win32/GNUARM/arm-elf/lib/thumb/soft/interwork/libc.a(syscalls.o)
                              C:/Program Files/Ingenico/IngeDev_7/plugins/com.ingenico.ingedev.telium.bin.win32_7.4.1.4/os/win32/GNUARM/arm-elf/lib/thumb/soft/interwork/libc.a(exit.o) (_exit)
C:/Program Files/Ingenico/IngeDev_7/plugins/com.ingenico.ingedev.telium.bin.win32_7.4.1.4/os/win32/GNUARM/arm-elf/lib/thumb/soft/interwork/libc.a(__call_atexit.o)
                              C:/Program Files/Ingenico/IngeDev_7/plugins/com.ingenico.ingedev.telium.bin.win32_7.4.1.4/os/win32/GNUARM/arm-elf/lib/thumb/soft/interwork/libc.a(exit.o) (__call_exitprocs)
C:/Program Files/Ingenico/IngeDev_7/plugins/com.ingenico.ingedev.telium.bin.win32_7.4.1.4/os/win32/GNUARM/arm-elf/lib/thumb/soft/interwork/libc.a(ctype_.o)
                              C:/Program Files/Ingenico/IngeDev_7/plugins/com.ingenico.ingedev.telium.bin.win32_7.4.1.4/os/win32/GNUARM/arm-elf/lib/thumb/soft/interwork/libc.a(strtoul.o) (_ctype_)
C:/Program Files/Ingenico/IngeDev_7/plugins/com.ingenico.ingedev.telium.bin.win32_7.4.1.4/os/win32/GNUARM/arm-elf/lib/thumb/soft/interwork/libc.a(errno.o)
                              C:/Program Files/Ingenico/IngeDev_7/plugins/com.ingenico.ingedev.telium.bin.win32_7.4.1.4/os/win32/GNUARM/arm-elf/lib/thumb/soft/interwork/libc.a(syscalls.o) (__errno)
C:/Program Files/Ingenico/IngeDev_7/plugins/com.ingenico.ingedev.telium.bin.win32_7.4.1.4/os/win32/GNUARM/arm-elf/lib/thumb/soft/interwork/libc.a(findfp.o)
                              C:/Program Files/Ingenico/IngeDev_7/plugins/com.ingenico.ingedev.telium.bin.win32_7.4.1.4/os/win32/GNUARM/arm-elf/lib/thumb/soft/interwork/libc.a(syscalls.o) (__sinit)
C:/Program Files/Ingenico/IngeDev_7/plugins/com.ingenico.ingedev.telium.bin.win32_7.4.1.4/os/win32/GNUARM/arm-elf/lib/thumb/soft/interwork/libc.a(fwalk.o)
                              C:/Program Files/Ingenico/IngeDev_7/plugins/com.ingenico.ingedev.telium.bin.win32_7.4.1.4/os/win32/GNUARM/arm-elf/lib/thumb/soft/interwork/libc.a(findfp.o) (_fwalk)
C:/Program Files/Ingenico/IngeDev_7/plugins/com.ingenico.ingedev.telium.bin.win32_7.4.1.4/os/win32/GNUARM/arm-elf/lib/thumb/soft/interwork/libc.a(malloc.o)
                              C:/Program Files/Ingenico/IngeDev_7/plugins/com.ingenico.ingedev.telium.bin.win32_7.4.1.4/os/win32/GNUARM/arm-elf/lib/thumb/soft/interwork/libc.a(__call_atexit.o) (free)
C:/Program Files/Ingenico/IngeDev_7/plugins/com.ingenico.ingedev.telium.bin.win32_7.4.1.4/os/win32/GNUARM/arm-elf/lib/thumb/soft/interwork/libc.a(mallocr.o)
                              C:/Program Files/Ingenico/IngeDev_7/plugins/com.ingenico.ingedev.telium.bin.win32_7.4.1.4/os/win32/GNUARM/arm-elf/lib/thumb/soft/interwork/libc.a(findfp.o) (_malloc_r)
C:/Program Files/Ingenico/IngeDev_7/plugins/com.ingenico.ingedev.telium.bin.win32_7.4.1.4/os/win32/GNUARM/arm-elf/lib/thumb/soft/interwork/libc.a(mlock.o)
                              C:/Program Files/Ingenico/IngeDev_7/plugins/com.ingenico.ingedev.telium.bin.win32_7.4.1.4/os/win32/GNUARM/arm-elf/lib/thumb/soft/interwork/libc.a(mallocr.o) (__malloc_lock)
C:/Program Files/Ingenico/IngeDev_7/plugins/com.ingenico.ingedev.telium.bin.win32_7.4.1.4/os/win32/GNUARM/arm-elf/lib/thumb/soft/interwork/libc.a(sbrkr.o)
                              C:/Program Files/Ingenico/IngeDev_7/plugins/com.ingenico.ingedev.telium.bin.win32_7.4.1.4/os/win32/GNUARM/arm-elf/lib/thumb/soft/interwork/libc.a(mallocr.o) (_sbrk_r)
C:/Program Files/Ingenico/IngeDev_7/plugins/com.ingenico.ingedev.telium.bin.win32_7.4.1.4/os/win32/GNUARM/arm-elf/lib/thumb/soft/interwork/libc.a(stdio.o)
                              C:/Program Files/Ingenico/IngeDev_7/plugins/com.ingenico.ingedev.telium.bin.win32_7.4.1.4/os/win32/GNUARM/arm-elf/lib/thumb/soft/interwork/libc.a(findfp.o) (__sread)
C:/Program Files/Ingenico/IngeDev_7/plugins/com.ingenico.ingedev.telium.bin.win32_7.4.1.4/os/win32/GNUARM/arm-elf/lib/thumb/soft/interwork/libc.a(writer.o)
                              C:/Program Files/Ingenico/IngeDev_7/plugins/com.ingenico.ingedev.telium.bin.win32_7.4.1.4/os/win32/GNUARM/arm-elf/lib/thumb/soft/interwork/libc.a(stdio.o) (_write_r)
C:/Program Files/Ingenico/IngeDev_7/plugins/com.ingenico.ingedev.telium.bin.win32_7.4.1.4/os/win32/GNUARM/arm-elf/lib/thumb/soft/interwork/libc.a(closer.o)
                              C:/Program Files/Ingenico/IngeDev_7/plugins/com.ingenico.ingedev.telium.bin.win32_7.4.1.4/os/win32/GNUARM/arm-elf/lib/thumb/soft/interwork/libc.a(stdio.o) (_close_r)
C:/Program Files/Ingenico/IngeDev_7/plugins/com.ingenico.ingedev.telium.bin.win32_7.4.1.4/os/win32/GNUARM/arm-elf/lib/thumb/soft/interwork/libc.a(freer.o)
                              C:/Program Files/Ingenico/IngeDev_7/plugins/com.ingenico.ingedev.telium.bin.win32_7.4.1.4/os/win32/GNUARM/arm-elf/lib/thumb/soft/interwork/libc.a(malloc.o) (_free_r)
C:/Program Files/Ingenico/IngeDev_7/plugins/com.ingenico.ingedev.telium.bin.win32_7.4.1.4/os/win32/GNUARM/arm-elf/lib/thumb/soft/interwork/libc.a(lseekr.o)
                              C:/Program Files/Ingenico/IngeDev_7/plugins/com.ingenico.ingedev.telium.bin.win32_7.4.1.4/os/win32/GNUARM/arm-elf/lib/thumb/soft/interwork/libc.a(stdio.o) (_lseek_r)
C:/Program Files/Ingenico/IngeDev_7/plugins/com.ingenico.ingedev.telium.bin.win32_7.4.1.4/os/win32/GNUARM/arm-elf/lib/thumb/soft/interwork/libc.a(readr.o)
                              C:/Program Files/Ingenico/IngeDev_7/plugins/com.ingenico.ingedev.telium.bin.win32_7.4.1.4/os/win32/GNUARM/arm-elf/lib/thumb/soft/interwork/libc.a(stdio.o) (_read_r)
C:/Program Files/Ingenico/IngeDev_7/plugins/com.ingenico.ingedev.telium.bin.win32_7.4.1.4/os/win32/GNUARM/arm-elf/lib/thumb/soft/interwork/libc.a(reent.o)
                              C:/Program Files/Ingenico/IngeDev_7/plugins/com.ingenico.ingedev.telium.bin.win32_7.4.1.4/os/win32/GNUARM/arm-elf/lib/thumb/soft/interwork/libc.a(sbrkr.o) (errno)
C:/Program Files/Ingenico/IngeDev_7/plugins/com.ingenico.ingedev.telium.bin.win32_7.4.1.4/os/win32/GNUARM/lib/gcc/arm-elf/3.4.3/thumb/soft/interwork/libgcc.a(_udivsi3.o)
                              Obj/DEBUG_T1/tbx.o (__udivsi3)
C:/Program Files/Ingenico/IngeDev_7/plugins/com.ingenico.ingedev.telium.bin.win32_7.4.1.4/os/win32/GNUARM/lib/gcc/arm-elf/3.4.3/thumb/soft/interwork/libgcc.a(_divsi3.o)
                              Obj/DEBUG_T1/std.o (__divsi3)
C:/Program Files/Ingenico/IngeDev_7/plugins/com.ingenico.ingedev.telium.bin.win32_7.4.1.4/os/win32/GNUARM/lib/gcc/arm-elf/3.4.3/thumb/soft/interwork/libgcc.a(_umodsi3.o)
                              Obj/DEBUG_T1/tbx.o (__umodsi3)
C:/Program Files/Ingenico/IngeDev_7/plugins/com.ingenico.ingedev.telium.bin.win32_7.4.1.4/os/win32/GNUARM/lib/gcc/arm-elf/3.4.3/thumb/soft/interwork/libgcc.a(_modsi3.o)
                              Obj/DEBUG_T1/std.o (__modsi3)
C:/Program Files/Ingenico/IngeDev_7/plugins/com.ingenico.ingedev.telium.bin.win32_7.4.1.4/os/win32/GNUARM/lib/gcc/arm-elf/3.4.3/thumb/soft/interwork/libgcc.a(_dvmd_tls.o)
                              C:/Program Files/Ingenico/IngeDev_7/plugins/com.ingenico.ingedev.telium.bin.win32_7.4.1.4/os/win32/GNUARM/lib/gcc/arm-elf/3.4.3/thumb/soft/interwork/libgcc.a(_udivsi3.o) (__div0)
C:/Program Files/Ingenico/IngeDev_7/plugins/com.ingenico.ingedev.telium.bin.win32_7.4.1.4/os/win32/GNUARM/lib/gcc/arm-elf/3.4.3/thumb/soft/interwork/libgcc.a(_call_via_rX.o)
                              C:/Program Files/SDK30/SDK 7.5.1/SDK/lib_gnu/eft30.lib(gprs.o) (_call_via_r0)
C:/Program Files/Ingenico/IngeDev_7/plugins/com.ingenico.ingedev.telium.bin.win32_7.4.1.4/os/win32/GNUARM/lib/gcc/arm-elf/3.4.3/thumb/soft/interwork/libgcc.a(_muldi3.o)
                              C:/Program Files/Ingenico/IngeDev_7/plugins/com.ingenico.ingedev.telium.bin.win32_7.4.1.4/os/win32/GNUARM/arm-elf/lib/thumb/soft/interwork/libc.a(rand.o) (__muldi3)

Allocating common symbols
Common symbol       size              file

DllGetProcAddress3  0x4               C:/Program Files/SDK30/SDK 7.5.1/SDK/lib_gnu/eft30.lib(extens.o)
xsec_USK            0x21              Obj/DEBUG_T1/LineEncryption.o
EMV_IDLE_SHOW_FLAG  0x4               Obj/DEBUG_T1/Main.o
errno               0x4               C:/Program Files/Ingenico/IngeDev_7/plugins/com.ingenico.ingedev.telium.bin.win32_7.4.1.4/os/win32/GNUARM/arm-elf/lib/thumb/soft/interwork/libc.a(reent.o)
xsec_TLE            0x11              Obj/DEBUG_T1/LineEncryption.o
AESDataIn           0x10              Obj/DEBUG_T1/AES.o
EMV_ENTRYMODE       0x4               Obj/DEBUG_T1/Main.o
DllGetProcAddress6  0x4               C:/Program Files/SDK30/SDK 7.5.1/SDK/lib_gnu/eft30.lib(libgr.o)
EMVFallback         0x4               Obj/DEBUG_T1/Main.o
EMV_ENTRY_SERVICE_CODE
                    0x4               Obj/DEBUG_T1/Main.o
serialBuff          0x104             Obj/DEBUG_T1/keyinject.o
DllGetProcAddress13
                    0x4               C:/Program Files/SDK30/SDK 7.5.1/SDK/lib_gnu/eft30.lib(gprs.o)
xsec_UMK            0x21              Obj/DEBUG_T1/LineEncryption.o
debugRspFlag        0x1               Obj/DEBUG_T1/Main.o
AESDataOut          0x10              Obj/DEBUG_T1/AES.o
EMVIdleFallback     0x4               Obj/DEBUG_T1/Main.o
debugReqFlag        0x1               Obj/DEBUG_T1/Main.o
xsec_derivation_data
                    0x8               Obj/DEBUG_T1/LineEncryption.o
EMVFlagSet          0x4               Obj/DEBUG_T1/Main.o
DllGetProcAddress7  0x4               C:/Program Files/SDK30/SDK 7.5.1/SDK/lib_gnu/eft30.lib(param.o)
uploadedPrepaidIdx  0x20              Obj/DEBUG_T1/tle.o
DllGetProcAddress4  0x4               C:/Program Files/SDK30/SDK 7.5.1/SDK/lib_gnu/eft30.lib(iam.o)
DllGetProcAddress9  0x4               C:/Program Files/SDK30/SDK 7.5.1/SDK/lib_gnu/eft30.lib(pinpad.o)
prepaidCom          0x4c              Obj/DEBUG_T1/prepaid.o
DllGetProcAddress12
                    0x4               C:/Program Files/SDK30/SDK 7.5.1/SDK/lib_gnu/eft30.lib(sv.o)
prepaidRespCode     0x1               Obj/DEBUG_T1/prepaid.o
AESKey              0x20              Obj/DEBUG_T1/AES.o
EMV_FALLBACK_IDLE_SHOW
                    0x4               Obj/DEBUG_T1/Main.o
EMVFallbackFlagSet  0x1               Obj/DEBUG_T1/Main.o
debugEmvFlag        0x1               Obj/DEBUG_T1/Main.o

Memory Configuration

Name             Origin             Length             Attributes
*default*        0x00000000         0xffffffff

Linker script and memory map

                0x00000000                . = 0x0
                0x00000000                __text_start = .

.text           0x00000000    0xb282c
 *(.first)
 .first         0x00000000       0xa0 Obj/DEBUG_T1/cstartup.o
                0x00000000                _start
 *(.text .text.*)
 .text          0x000000a0       0x18 Obj/DEBUG_T1/trc.o
                0x000000a0                errChk
 .text          0x000000b8     0x16dc Obj/DEBUG_T1/tbx.o
                0x00000a68                bufInit
                0x00000ad4                bufLen
                0x000000d8                wPtr
                0x00000ae8                bufReset
                0x00001380                queGetTag
                0x0000146c                bitOff
                0x00000ac0                bufPtr
                0x00000f68                queInit
                0x000010e8                queGet
                0x00000aac                bufDim
                0x00000fc4                quePut
                0x000000b8                bPtr
                0x00000830                hex2bin
                0x00000d0c                bufOwr
                0x00000efc                bufCpy
                0x000014d4                bitTest
                0x000004c0                num2hex
                0x000012b8                quePutTlv
                0x00000314                dec2num
                0x00000eb0                bufCat
                0x0000017c                num2dec
                0x00000f34                bufGet
                0x00000b14                bufSet
                0x00001220                queLen
                0x0000099c                num2bin
                0x00001674                tbxCheckParity
                0x00000f90                queReset
                0x000013b0                queGetTlv
                0x00000a30                tmrPause
                0x00001234                queRewind
                0x000011a4                queNxt
                0x000007a0                bin2hex
                0x000000f8                cPtr
                0x0000153c                tbxParity
                0x00000608                hex2num
                0x00000924                bin2num
                0x00000bb0                bufIns
                0x00000e78                bufApp
                0x00000dcc                bufDel
                0x00000114                dPtr
                0x00001254                quePutTag
                0x00001408                bitOn
 .text          0x00001794     0x1da4 Obj/DEBUG_T1/tlm.o
                0x00003198                tskStop
                0x00001d48                magGet
                0x0000194c                magStart
                0x000025ec                iccDetect
                0x000018d0                tmrSleep
                0x000030f8                tskStart
                0x00001940                Click
                0x00001794                tmrStart
                0x000024a4                sysRand
                0x0000188c                tmrStop
                0x00003090                semDec
                0x00003238                reboot
                0x00003248                getSapSer
                0x00001934                utaBeep
                0x00002b48                iccCommand
                0x0000217c                getCard
                0x00002df8                getTS
                0x00003024                semInc
                0x000033b8                getCodeFileList
                0x00001818                tmrGet
                0x000024b4                iccStart
                0x00002be4                getDateTime
                0x00003344                getAppName
                0x00002cdc                setDateTime
                0x00003014                tskSync
                0x00001f64                magStop
                0x00003478                getAppVer
                0x00002590                iccStop
 .text          0x00003538      0xe9c Obj/DEBUG_T1/tlmhmi.o
                0x000042dc                kbdStart
                0x000041a4                dspHgt
                0x00003c64                prtImg
                0x00003d18                dspStart
                0x00004364                kbdStop
                0x00004180                dspWdt
                0x0000438c                kbdKey
                0x000036dc                prtS
                0x00003640                prtStop
                0x00003e04                dspClear
                0x000041e0                dspImg
                0x00003eec                dspLS
                0x00003810                prtES
                0x0000367c                prtCtrl
                0x00003dc8                dspStop
                0x000035b4                prtStart
                0x00003e68                dspLight
                0x000040bc                dspXYFS
 .text          0x000043d4      0xc84 Obj/DEBUG_T1/tlmmem.o
                0x000048cc                nvmSet
                0x00004688                nvmHold
                0x00004c3c                nvmMove
                0x00004738                nvmSave
                0x00004ec4                nvmSeqPos
                0x00004408                nvmFileName
                0x00004e14                nvmSeqClose
                0x00004bd0                nvmSize
                0x000046fc                nvmRelease
                0x00004e58                nvmSeqRemove
                0x00004628                nvmRemove
                0x00004fc0                nvmSeqPut
                0x00004aac                nvmLoad
                0x00004d1c                nvmSeqOpen
                0x00004438                nvmPathFileName
                0x00004f40                nvmSeqGet
                0x00004470                nvmStart
 .text          0x00005058     0x1e4c Obj/DEBUG_T1/std.o
                0x000056c4                stdLuhnCheck
                0x00006850                BaseToDec
                0x000061c0                stdDES
                0x0000626c                stdDED
                0x00006c10                ts2dt
                0x00005510                stdPow
                0x000065b4                Radix64Decode
                0x00006950                stdOWF
                0x00005920                stdArgMsgCrc16
                0x00005058                isSorted
                0x00006218                stdEDE
                0x00005498                subStr
                0x00006d34                dt2ts
                0x00005998                xor
                0x00005630                stdGetAcc
                0x00005a14                stdParity
                0x00006350                hashJerkinsBin
                0x000055ac                trk2Lrc
                0x0000644c                bmpDat
                0x00006460                Radix64Encode
                0x000061ec                stdSED
                0x00006424                bmpHgt
                0x00005428                addStr
                0x0000555c                stdLrc
                0x000063fc                bmpWdt
                0x00005818                stdCrc16
 .text          0x00006ea4      0xc68 Obj/DEBUG_T1/fmt.o
                0x00007aa4                fmtDelSpace
                0x00007954                fmtDate
                0x00006f14                fmtTok
                0x000070a8                fmtCnt
                0x00006fc4                fmtPad
                0x00007680                fmtIns
                0x000078b4                fmtTcp
                0x000077a4                fmtDel
                0x000079fc                fmtTime
                0x000074f8                fmtMut
                0x00007294                fmtAmt
                0x00006ea4                fmtSbs
 .text          0x00007b0c     0x4958 Obj/DEBUG_T1/dba.o
                0x0000a6ac                idxApp
                0x0000974c                searchInit
                0x00008c80                tabGet
                0x00009184                recDim
                0x0000823c                dbaImport
                0x00009694                recMove
                0x00008c28                tabReset
                0x00008e58                tabExport
                0x00009700                recPos
                0x0000a8b8                idxLoad
                0x000098f8                linFind
                0x00009524                recExport
                0x00009198                recSize
                0x0000a3b8                idxIns
                0x0000c1c4                hshScanBeg
                0x0000b634                hshFind
                0x0000aa18                idxReset
                0x0000aaec                idxSet
                0x0000c070                hshClean
                0x0000c250                hshScanEnd
                0x00008d74                tabPut
                0x0000b81c                hshDel
                0x0000c288                hshScan
                0x00009a78                binFind
                0x00009bc4                idxInit
                0x00008bf8                tabSize
                0x0000b1f8                hshIns
                0x00009100                recCache
                0x00008b4c                tabCache
                0x00008bd0                tabDim
                0x00008f88                tabSave
                0x0000927c                recGet
                0x00009224                recReset
                0x000091b8                recFldFmt
                0x00007b0c                dbaSetPtr
                0x00009664                recSave
                0x00008f28                tabFlush
                0x000091f8                recFldLen
                0x00009634                recLoad
                0x00009604                recFlush
                0x00008f58                tabLoad
                0x0000a5ac                idxDel
                0x00008be4                tabWdt
                0x0000b0e0                hshReset
                0x0000afe0                hshInit
                0x00008ff8                recInit
                0x00008ab8                tabInit
                0x00009cac                idxDim
                0x0000a750                idxSave
                0x000093dc                recPut
                0x0000a6e4                idxSize
                0x00008c14                tabRowFmt
                0x00009cc0                idxFind
                0x0000a388                idxSort
                0x00007de0                dbaExport
 .text          0x0000c464     0x26a8 Obj/DEBUG_T1/drv.o
                0x0000c5b0                cntGet
                0x0000c6c4                cntPut
                0x0000d2b4                cmbInit
                0x0000c834                cvtLen
                0x0000c4f4                cntLen
                0x0000c464                cntInit
                0x0000d410                cmbLen
                0x0000d0d8                cvtPut
                0x0000e8f4                cmbGet
                0x0000c7bc                cvtInit
                0x0000d1cc                cvtGet
 .text          0x0000eb0c     0x3398 Obj/DEBUG_T1/dlg.o
                0x00011dd0                info
                0x0000fa18                enterStr2
                0x00010820                removeCard
                0x0000fbd8                enterData
                0x00011250                enterTxt3
                0x0000fb08                enterAmt
                0x00010878                DetectCard
                0x0000fa90                enterPwd
                0x0000fb94                enterTcp
                0x0000fa54                enterPhr
                0x0000eb44                dlgClick
                0x00010504                enterCard
                0x000108b4                enterTxt2
                0x00011e60                enterTime
                0x0000eb0c                stub
                0x0000f76c                enterFmtStrFarsi
                0x0000f9dc                enterStr
                0x00011e1c                enterDate
                0x0000facc                enterPwd2
                0x0000fc1c                enterTxt
                0x0000ed20                mnuSelect
 .text          0x00011ea4      0xea0 Obj/DEBUG_T1/Main.o
                0x00012cb0                entry
                0x00011ea4                Main
                0x00012374                my_custom_message
                0x00012cd8                state
                0x000123a8                give_interface
 .text          0x00012d44     0x12f8 Obj/DEBUG_T1/sgm.o
                0x00012ea4                IAM_to_myself
                0x00013870                give_your_domain
                0x000137dc                is_name
                0x00013d7c                file_received
                0x000138e0                is_change_init
                0x00013604                more_function
                0x00012d44                HexDump
                0x00012f30                Task_Protocol
                0x00013638                idle_message
                0x00014000                debit_emv
                0x00013698                is_delete
                0x00013cac                keyboard_event
                0x00013764                is_state
                0x00013f64                give_aid
                0x00013514                message_received
                0x00013a58                debit_non_emv
                0x00013d58                time_function
                0x00013ae0                is_for_you_after
                0x00013f94                is_card_emv_for_you
                0x000136bc                after_reset
                0x00013488                sendBuff
 .text          0x0001403c     0x4584 Obj/DEBUG_T1/map.o
                0x0001818c                mapExport
                0x00017e78                mapLoad
                0x00016520                mapGet
                0x00014470                relKey
                0x00018134                mapIns
                0x00017a54                mapMove
                0x00015bc8                mapReset
                0x00017f50                mapSave
                0x00014c98                mapInit
                0x000144ac                getContainer
                0x000175bc                mapDatFmt
                0x00016ba8                mapPut
                0x00018160                mapDel
                0x00017118                mapDatLen
                0x00018028                mapFlush
                0x00017ce8                mapCache
                0x00018100                mapFind
 .text          0x000185c0     0x521c Obj/DEBUG_T1/dft.o
                0x0001d044                dftReset
                0x000185cc                getCmpTim
                0x000185c0                getCmpDat
 .text          0x0001d7dc     0x117c Obj/DEBUG_T1/rpt.o
                0x0001d928                rptReceipt
 .text          0x0001e958      0xee8 Obj/DEBUG_T1/scr.o
                0x0001f584                scrDlg
                0x0001ee20                usrInfo
 .text          0x0001f840      0xf9c Obj/DEBUG_T1/str.o
                0x0001fd0c                isReversibleSend
                0x000206b0                rloPrint
                0x0001fe40                isReversibleRecv
                0x0001f840                traReset
                0x0001fc04                emvIsApproved
                0x0001ff64                mapKeyTag
                0x00020724                incCard
                0x0001f8fc                strFormatDatTim
                0x0001fa84                strFormatTraDatTim
 .text          0x000207dc     0x1f80 Obj/DEBUG_T1/hdl.o
                0x000221bc                hex_dump_char
                0x00021994                hdlBefore
                0x00022528                Fn100
                0x00022628                FnSales
                0x00021b5c                hdlMagStripe
                0x00021ffc                hdlWakeUp
                0x00022654                FnPrepaid
                0x000216cc                hdlPowerOn
                0x00022604                FnSetPIN
                0x00022748                viewLog
                0x00022560                FnDisableMenu
                0x000219c4                hdlAskMagStripe
                0x00022720                FnSetMin
                0x000225f8                FnSetMQPSVEPS
                0x00022610                FnSettingTID
                0x00022734                FnTerminal
                0x000226cc                FnshowOption
                0x0002261c                cetakVersion
                0x000219b4                hdlAfter
                0x00022504                FnConnSetting
                0x0002270c                FnTMS
                0x000215ac                hdlMainMenu
                0x000224f0                FnCommunication
                0x00022514                Fn99
                0x000226ac                FnPrintRef
                0x000226e8                FnPrinthis
                0x00021c90                hdlSmartCard
                0x00022680                FnTopUp
                0x000221a4                hdlTimer
 .text          0x0002275c     0x1890 Obj/DEBUG_T1/val.o
                0x0002396c                valPwd
                0x00023480                valLogIsNotFull
                0x00023870                valTxnFound
                0x00023a3c                valChipAllowed
                0x00023f60                ValBfSett
                0x00023684                valAppliIsInit
                0x000232dc                valCard
                0x000237fc                valIsTrickleFeedEnabled
                0x00023878                valIsPrintRequired
                0x000233cc                valAmount
                0x00023a44                valFloorLimit
                0x0002360c                valBaudRate
                0x00023cd0                valAskPwd
                0x00022930                valBinLogoAssign
                0x000234fc                valConnSett
                0x00023694                valIsPinRequired
                0x00023584                valDialOpt
                0x00022a48                valBin
                0x00023974                valManualEntryAllowed
                0x0002368c                valNoPendingSettlement
                0x00023a34                valMagAllowed
                0x0002275c                valOpr
                0x00023788                valIsTipAllowed
                0x00023e00                valRspCod
 .text          0x00023fec     0x5e48 Obj/DEBUG_T1/adm.o
                0x00023fec                admDlgClick
                0x00025864                admViewTotals
                0x000295f0                admMasterKey
                0x00029180                admCmmEDHSetup
                0x00029594                admCmmGEncryption
                0x00029d98                admEDCFunction
                0x000291dc                admCmmDTMF
                0x00028d58                admCmmLineSetup
                0x00026080                admViewBatchNum
                0x0002877c                admTDT
                0x000275c0                admViewTCPIPGprs
                0x00026914                admTMSLoadParam
                0x00028a90                admCmmPrintSetting
                0x000261fc                admViewBat
                0x00024da0                admRevReset
                0x00028930                admCmmViewSetting
                0x00024d28                admTCReset
                0x0002757c                admTMSPrintConfig
                0x000291c8                admCmmCountryCode
                0x000273e0                admTMSViewConfig
                0x00024a30                admChangePwd
                0x000261b0                admSetStan
                0x00029cac                admBlowfish
                0x00025ff8                admViewRoc
                0x00027ab0                admViewRs232
                0x000295dc                admCmmGAutoEnable
                0x000280d4                admTMSConfig
                0x00024bcc                admReset
                0x000291f0                admCmmGConfigure
                0x00029b24                admConnSettings
                0x000260f0                admSetBatchNum
                0x000240e0                admEnterAPN
                0x0002891c                admTermAppli
                0x00024e08                admInitRpt
                0x000279e0                admViewDialup
                0x00024fec                admSWver
                0x00028fe4                admCmmIPSetup
                0x0002616c                admViewStan
                0x00026034                admSetRoc
                0x00025028                admViewTxn
 .text          0x00029e34     0x41a0 Obj/DEBUG_T1/emv.o
                0x0002dd54                emvFullProcessSet
                0x0002db24                emvProcessing
                0x0002d9cc                emvReset
                0x0002a2a4                emvApplicationSelect
                0x0002d97c                myMapPut
                0x00029e34                emvInitAid
                0x0002de98                emvFullProcessCheck
                0x00029fd0                emvMapAidMove
 .text          0x0002dfd4     0x39b8 Obj/DEBUG_T1/function.o
                0x0002f338                CheckFallBack
                0x0002e0a0                enterUang
                0x0002faa8                settingMenu
                0x0002f5a4                PrintIsoMsg
                0x0002e180                enterAngka
                0x0002e230                pmtPrepare
                0x0002eb08                isIct220
                0x0002e380                pmtPinManual
                0x0002f0e4                CetakMasterKey
                0x0002e000                enterHuruf
                0x0002e8d4                udf_get_key_press
                0x0002dfd4                hex_dump
                0x0002e5a0                debug_set
                0x0002e960                PrintInit
                0x0002f3d0                pmtEchoTest
                0x0002e6a8                acceptable_key
                0x0002f824                ICCDebug
                0x0002ebec                PrintBinAndIssuerTable
                0x0002fd18                call_function
                0x0002f794                debug_emv_set
                0x0002ff14                displayResponse
                0x0002f168                hexDumpTMS
                0x00031940                FmtExpDat
                0x0002eecc                AcquirerInfo
                0x0002e788                display_text
                0x0002f83c                functionMenu
 .text          0x0003198c       0x28 Obj/DEBUG_T1/iso.o
                0x0003198c                isoFmt
 .text          0x000319b4     0xa9a4 Obj/DEBUG_T1/log.o
                0x00035290                briLogReset
                0x00035c5c                logCalcTot
                0x000380e8                logSettlementRpt
                0x00034ac0                logPrintTxn
                0x0003c098                setLogIsUploaded
                0x0003b290                logBatchTotals
                0x000394ec                logPrintLog
                0x000354fc                copyUnmarkToBatch
                0x0003c154                printAllLog
                0x000319b4                logSaveCurContext
                0x00035c44                logGetPreviousAmount
                0x00035758                copyAllToBatch
                0x00035394                markSettlementTrans
                0x00034dd4                logDuplicata
                0x00032a74                logLoad
                0x00036c8c                logConfirmTotals
                0x000351d4                logReset
                0x000351c8                logSetDup
                0x00039f50                logHostTotals
                0x00035c3c                logIsInBlackList
                0x00035990                copyAllToTemporaryBatch
                0x00037388                logSettlement
                0x0003b970                pmtPrepaidSettlement
                0x00032318                logSave
                0x00031ab8                logLoadCurContext
                0x0003c280                printAllSetlleDuplicate
                0x00035b80                batchSync
 .text          0x0003c358      0xd1c Obj/DEBUG_T1/onl.o
                0x0003cc04                DisconnectFromHost
                0x0003d064                onlConnect2
                0x0003cc2c                onlSession
                0x0003cfcc                tleSecond
 .text          0x0003d074     0xa4b4 Obj/DEBUG_T1/pmt.o
                0x000426c0                pmtRefund
                0x00041d88                pmtSaleRedeem
                0x00042aac                pmtAdjust
                0x0003e400                pmtTipInput
                0x0003dea8                pmtPinInput
                0x00041f04                pmtPreaut
                0x0003e0a8                pmtAmountInput
                0x00041c0c                pmtSale
                0x00042c00                BlockPan
                0x00042198                pmtAut
                0x00042920                pmtVoid
                0x0004284c                pmtOffline
                0x00042050                pmtPreAut
                0x00040410                pmtPayment
                0x00042db0                pmtBalance
                0x00042cfc                pmtFallback
                0x00045164                disableSubmenu
                0x000422e4                pmtPreAuth
                0x00042b38                pmtManual
                0x0003d07c                pmtManInput
                0x0003d2c4                pmtCardInput
                0x0003dae8                pmtOldPinInput
                0x00042fd8                pmtBRI
                0x00042e88                pmtVoidTarikTunai
                0x000474fc                fmtAmtReceipt2
                0x0004242c                pmtPreCancel
                0x00040360                pmtIncrementInv
                0x0003dc7c                pmtNewPinInput
                0x00042578                pmtPreCom
                0x0003f980                dmyPmtSmartCard
                0x0003d074                pmtForceOnline
 .text          0x00047528     0x52a0 Obj/DEBUG_T1/req.o
                0x0004b4b8                reqBuild
 .text          0x0004c7c8      0x334 Obj/DEBUG_T1/rev.o
                0x0004c7c8                revSave
                0x0004c9f8                tcSave
                0x0004c8e0                reversalTransaction
 .text          0x0004cafc     0x89c4 Obj/DEBUG_T1/rsp.o
                0x00055304                rspParse
 .text          0x000554c0     0x3adc Obj/DEBUG_T1/tle.o
                0x00058870                checkMti
                0x00058174                tleSession
                0x000582a0                doBRIReversal
                0x00058604                checkMid
                0x00058d54                dumpIsoMessage
                0x00058704                checkStan
                0x000588f4                procPrepaidUpload
                0x00058508                checkTid
 .text          0x00058f9c     0x3aac Obj/DEBUG_T1/tlmchn.o
                0x0005c440                comHangWait
                0x0005c020                comRecvBuf
                0x0005a718                comSet
                0x0005b338                comSendBuf
                0x00059010                parseIp
                0x0005b61c                comRecv
                0x0005ae68                comDial
                0x0005c930                comGetIMEI
                0x0005b0c0                comSend
                0x0005c2d4                comHangStart
                0x00058f9c                parseStr
                0x0005c7b4                comStop
                0x00059224                comStart
                0x0005c858                comGetIMSI
                0x0005ca18                comGetLastError
                0x0005ca30                comGetDialInfo
 .text          0x0005ca48     0x149c Obj/DEBUG_T1/tlmcry.o
                0x0005d8d4                cryDiag
                0x0005ddf0                cryDukptGetPinTSA
                0x0005dcf8                cry3DESDukptGetPin
                0x0005cc08                cryStop
                0x0005ceb0                cryLoadDKuDK
                0x0005d650                cryGetPin
                0x0005d95c                tlmGetSer
                0x0005da4c                cryDukptInit
                0x0005d01c                crySetPpd
                0x0005cb2c                cryStart
                0x0005db10                cryDukptGetPin
                0x0005dc0c                cry3DESDukptInit
                0x0005d7fc                cryMac
                0x0005cca4                cryLoadTestKey
                0x0005d1b4                ppdLS
                0x0005cc1c                cryEraseKeysArray
                0x0005cd9c                cryVerify
                0x0005d1a0                ppdClear
                0x0005d644                getPinLen
                0x0005d738                cryEmvPin
 .text          0x0005dee4     0x3af8 Obj/DEBUG_T1/tlmemv.o
                0x0006055c                emvAuthenticate
                0x00060b90                emvCVMstart
                0x00061254                emvAnalyse
                0x00060c8c                emvCVMnext
                0x0005f700                emvInit
                0x00060318                emvContext
                0x000601cc                emvGetLang
                0x00060fb0                emvValidate
                0x00060078                emvSetSelectResponse
                0x0005e4ec                emvGetFallBack
                0x00061544                emvComplete
                0x0005e4ac                emvSetFallBack
                0x000617b8                emvGetAids
                0x0006006c                emvSetFSbuf
                0x000618fc                emvCheckCardBlocked
                0x0005fcd4                emvSelect
                0x0005fc20                emvSelectStatus
                0x00060e5c                emvCVMoff
                0x0005f984                emvCheckFallback
                0x0006041c                emvPrepare
                0x00060140                emvFinalSelect
                0x0005f95c                emvStop
                0x0005f820                emvStart
 .text          0x000619dc        0x4 Obj/DEBUG_T1/tcan0020.o
                0x000619dc                tcan0020
 .text          0x000619e0    0x31128 Obj/DEBUG_T1/BRI.o
                0x0006c91c                KonfirmasiTCash
                0x00092918                briModifyPinEntry
                0x0008fe3c                viewMiniAtmLog
                0x00063ef4                inputPembayaranKKBRI
                0x000727bc                parseField63
                0x000723a4                getField61
                0x000905a8                parseField62
                0x0006c180                inputInternetBankingPin
                0x0008ee90                mLogReset
                0x0008fe7c                setDumpIsoMessage
                0x00066968                KonfirmasiInfoSaldo8
                0x0006d320                KonfirmasiInstallment
                0x0006cd64                KonfirmasiKartuOtorisasi
                0x00065fd8                inputPrepaidDeposit
                0x00062b7c                inputTransferSesamaBRI
                0x00076540                briLogLoadByRoc
                0x0008fa24                selectTerminalId
                0x0006b628                smartCardInput
                0x00065b88                inputInstallment
                0x000674fc                KonfirmasiPembayaranSPP
                0x000623c8                pmtBRIKonfirmasiSesudahInquiry
                0x000906fc                setFirstPowerOnFlag
                0x0006271c                inputTCash
                0x00075b7c                briLogSave
                0x0006866c                KonfirmasiPembayaranSSB
                0x00062254                infoKodeBank
                0x000929f4                adaTransPembelian
                0x00064ab0                inputPembayaranPLN
                0x00092a30                POSPrintReferenceNum
                0x000906a0                resetLogonDateTime
                0x00063098                inputPembayaranTV
                0x00062aa0                inputInfoSaldoBankLain
                0x00063d4c                inputTrxTransfer
                0x00063170                inputTiketPesawat
                0x0008fe6c                viewTCashLog
                0x00069938                KonfirmasiPembayaranKKCITI
                0x00090eb8                modifyMnuLayout
                0x00061af0                trimLeft
                0x00069088                KonfirmasiPembayaranBriva2
                0x0006acfc                KonfirmasiSetPIN
                0x000636e4                inputPembayaranDPLKR
                0x0008e9d4                briPrintTotal
                0x00075ac0                displayLongText
                0x0008e9ac                briPrintDetailToday
                0x000679e0                KonfirmasiPembayaranTiketPesawat
                0x0008f20c                getJenisLog
                0x0008e8b0                briPrintDetail
                0x0006a624                KonfirmasiTrxPulsa
                0x0006caa8                KonfirmasiRegistrasiInternetBanking
                0x0006cc78                KonfirmasiRegistrasiPhoneBanking
                0x000639cc                inputPembayaranBriva
                0x0006d49c                getField48
                0x000634c8                inputPembayaranSSB
                0x00069ee8                KonfirmasiPembayaranKKRBS
                0x0006293c                inputPreAuth
                0x0007a908                getBriTransTypeName
                0x000652b0                inputPembayaranPulsa
                0x0008f470                getAllAcq
                0x0007159c                getIso57
                0x00069c10                KonfirmasiPembayaranKKHSBC
                0x00075a48                downloadKey
                0x0006c4f4                inputReissuePIN
                0x0008f820                selectAcquirer1
                0x00076a30                briLogLoadByIndex
                0x0008fc30                ShowData
                0x0008fbb0                checkPendingSettlement
                0x000655c0                inputSetoran
                0x0008fe5c                viewTunaiLog
                0x00090e44                OptionEnabled
                0x00062d34                inputTransferAntarBank
                0x0008ead0                briPrintTotalToday
                0x0006b7c0                KonfirmasiPembayaranPLNPra
                0x00091090                checkSubMnuLayout
                0x0006a1c0                KonfirmasiPembayaranKKStanChar
                0x0006c2f0                inputGantiPasswordSPV
                0x0008ef78                tLogReset
                0x000716bc                getField63
                0x00066d54                KonfirmasiSetoran
                0x00079794                briLogPrintTotal
                0x00063abc                inputSmsBanking
                0x000658c8                inputPembayaranZakat
                0x00075434                scrollDisplay
                0x0006ce3c                KonfirmasiPembayaranPascaBayar
                0x00067220                KonfirmasiPembayaranZakat
                0x00090478                parseField57
                0x0006bb9c                KonfirmasiPembayaranPLN
                0x0008f1a0                getBriReversalIdx
                0x00077848                viewBatch1
                0x00065e90                inputPembayaranPascaBayar
                0x0006473c                inputPembayaranKKStanChar
                0x0008ffd4                setDiscount
                0x00069678                KonfirmasiPembayaranKKBRIBayar
                0x000683ec                KonfirmasiPembayaranTelkom
                0x00061c6c                convertBulan
                0x00076d74                briLogLoadByDate
                0x0006d0ec                KonfirmasiPembayaranPascaBayar8
                0x00067084                KonfirmasiVoidTarikTunai
                0x0008f2a4                getAllTid
                0x000650ec                inputPembayaranCicilan
                0x00069190                KonfirmasiPembayaranKKBRI
                0x00063fcc                inputPembayaranKKANZ
                0x0007a2c0                briLogPrintDetail
                0x000619e0                hapusAwalan
                0x0008fe4c                viewCardServiceLog
                0x00066b00                KonfirmasiInfoSaldoLain8
                0x0008eaf8                briGetAcq
                0x0008d998                briLogPrintTxn
                0x00064b88                inputPembayaranPLNToken
                0x00064540                inputPembayaranKKRBS
                0x00061ea8                isPembelianTransaction
                0x00061a98                trimRight
                0x00064d14                inputPembayaranPLNPra
                0x00079c34                printDetail
                0x00090768                setECRFlag
                0x00072708                parseField61
                0x000748e4                scrollDisplay8
                0x0006b518                prepaidInput
                0x000689a0                KonfirmasiPembayaranDPLKR
                0x0008f05c                tCashLogReset
                0x00066628                KonfirmasiPembayaranCicilan8
                0x0008f5f0                selectAcquirer
                0x00077160                briViewBat
                0x00067424                KonfirmasiSetorPasti
                0x00069760                KonfirmasiPembayaranKKANZ
                0x00091d00                modifySubMnuLayout
                0x00065a70                inputSetorPasti
                0x00061e30                isBRITransaction
                0x0006abc4                KonfirmasiShowOption
                0x0008f140                setBriReversalIdx
                0x00064148                inputPembayaranKKCITI
                0x000677b4                KonfirmasiPembayaranTV
                0x00090320                setDebugData
                0x00063e24                inputTrxPulsa
                0x00077bd0                viewBatch2
                0x000663d8                KonfirmasiPembayaranPulsa
                0x000795e4                strFormatDatTimBRI2
                0x00079478                strFormatDatTimBRI
                0x00076054                briLogUpdate
                0x000661bc                KonfirmasiTransferAntarBank
                0x0006aa14                KonfirmasiPembayaranECR
                0x00068b4c                KonfirmasiPembayaranBriva
                0x00063318                inputPembayaranTelkom
                0x00063240                inputPembayaranPdam
                0x00064ff8                KonfirmasiMinInput
                0x00066f58                KonfirmasiTarikTunai
                0x0006b1c4                magStripeInput
                0x0006269c                isBRIInquiryTransaction
                0x00077f88                briLogCalcTotal
                0x0006af40                KonfirmasiSetMQPSVEPS
                0x000622b0                pmtBRIKonfirmasiTanpaInquiry
                0x0008d2e4                briLogDuplicata
                0x0008edac                cLogReset
                0x0007290c                parseField48
                0x0007b20c                briPrintData
                0x00061f24                whichBRITransaction
                0x000657a8                inputTarikTunai
                0x00061fac                pmtBRICustomInput
                0x0006a73c                konfirmasiSettingTIDMID
                0x00061d18                isBRISaveToBatch
                0x000621f8                infoKodeUniv
                0x000660b4                KonfirmasiTransferSesamaBRI
                0x0006c5f4                KonfirmasiAktivasiKartu
                0x0007264c                parseField60
                0x00067f48                KonfirmasiPembayaranPdam
                0x0006a498                KonfirmasiTrxTransfer
                0x000907d4                getInfoEcr
                0x00061ba8                isBRIPrint
                0x00064938                inputPembayaranSPP
                0x0008df90                briLogSaveCurContext
                0x000638d4                inputRedeem
                0x0006a9e4                printVersion
                0x0006cb8c                KonfirmasiRegistrasiSmsBanking
                0x0008e360                briLogLoadCurContext
                0x00064344                inputPembayaranKKHSBC
 .text          0x00092b08     0x18e4 Obj/DEBUG_T1/LineEncryption.o
                0x00093d08                keyDownload
                0x00093d18                isEncryptedField
                0x00093a14                decryptRSA
                0x00093608                tleGetKey
                0x00092d70                MACX9_19
                0x00093870                tleKeyDownload
                0x000936cc                tleInputUserPass
                0x00092f18                shaData
                0x000942a4                xsec_encrypt_data
                0x00093ec4                xsec_generate_derivation_data
                0x00093114                generate_random_data
                0x00092c00                getField60
                0x000934e0                insertChip
                0x00092ec4                calcMAC
                0x00093344                tleProcess
                0x000941b4                DecryptCBC
                0x000940c4                EncryptCBC
                0x00093260                tleMenu
                0x00092b08                RSA_padding_check_PKCS1_type_2
                0x00093180                checkKey
                0x00093f1c                xsec_generate_USK
                0x00093d84                xsec_add_tlv
                0x00094030                xsec_encrypt_derivation_data
                0x00093b20                tleDecryptAndStoreUMK
 .text          0x000943ec     0x1b08 Obj/DEBUG_T1/AES.o
                0x0009488c                InvShiftRows
                0x00095d60                AESLoadKey
                0x00094928                ShiftRows
                0x000949c4                InvMixColumns
                0x00095c44                AESCipher
                0x00095e0c                AESEncrypt
                0x00095b28                AESInvCipher
                0x000958f4                MixColumns
                0x00095e80                AESDecrypt
                0x0009481c                SubBytes
                0x00094484                AESKeyExpansion
                0x000943ec                getSBoxInvert
                0x000947ac                InvSubBytes
                0x00094438                getSBoxValue
                0x00094720                AddRoundKey
 .text          0x00095ef4     0x113c Obj/DEBUG_T1/keyinject.o
                0x00096cd4                store_acqTMKRefNo
                0x00096db0                store_acqTAKnTLE
                0x00096368                injectOpenCom
                0x00096ac0                storeWorkingKey
                0x0009692c                storeMasterKey
                0x00096750                loadTransportTest
                0x000966e8                gen_random_data
                0x00096e4c                req4Key
                0x00096c64                store_acqTMK
                0x000963ec                injectCloseCom
                0x00096d40                store_acqTAKLogon
 .text          0x00097030     0x9278 Obj/DEBUG_T1/prepaid.o
                0x0009a6d4                pmtPrepaidInit
                0x0009757c                checkResponseMessage
                0x0009ee1c                printPrepaidSummary
                0x000979f4                sendReceiveMessage
                0x0009fa50                getPrepaidNii
                0x00099438                reaktivasiInquiry
                0x000987b4                topUp
                0x0009e174                prepaidReprint
                0x00097528                closeCom
                0x0009e198                prepaidDateSummary
                0x0009cfbc                pmtPrepaidReaktivasi
                0x0009fcc4                getPrepaidCardInfo
                0x000976f4                buildMessage
                0x0009e078                isPrepaidTransaction
                0x00099ecc                getPrepaidBatchNumber
                0x0009b0e4                pmtPrepaidPaymentDisc
                0x00098da0                redeem
                0x0009c68c                pmtPrepaidPrintLog
                0x00098d84                redeemInquiry
                0x00098ea8                infoKartu
                0x000a01e4                debugData
                0x0009f5e0                prepaidSettlementReceipt
                0x00099e7c                getPrepaidRefNumber
                0x00098240                displayAmount
                0x0009a04c                pmtBrizzi
                0x0009a4ec                autoSamInit
                0x0009a794                pmtPrepaidInfoSaldo
                0x00097ff4                infoInquiry
                0x00099fa0                decString2Hex
                0x00098a9c                prepaidAktivasi
                0x0009c18c                pmtPrepaidRedeem
                0x0009c078                pmtPrepaidRedeemInquiry
                0x00097e24                infoSaldo
                0x00097bf8                processToReader
                0x0009e914                printPrepaidRecDetail
                0x0009bb14                pmtPrepaidTopUp
                0x0009e41c                prepaidPrintDetail
                0x0009f470                prepaidBatchIncrement
                0x00099dec                updatePrepaidRefNumber
                0x000a0100                ubahTanggalKartuPrepaid
                0x000990b8                transLog
                0x0009d1b8                pmtPrepaidVoidInquiry
                0x0009c1d4                pmtPrepaidInfoKartu
                0x0009fd94                getPrepaidVoidTrans
                0x0009ce14                pmtPrepaidReaktivasiInquiry
                0x0009d9c8                KonfirmasiPrepaidRedeem
                0x0009b988                pmtPrepaidInquiry
                0x0009f9e4                clearPrepaidReversalFlag
                0x00098354                prepaidSale
                0x0009d384                pmtPrepaidVoid
                0x0009e028                KonfirmasiPrepaidVoid
                0x00099f24                xx_hex_dump
                0x000999f0                voidBrizzi
                0x0009e2c8                prepaidDateDetail
                0x0009b4d8                pmtPrepaidPayment
                0x0009dc48                KonfirmasiPrepaidReaktivasi
                0x0009f928                doPrepaidReversal
                0x0009ab30                pmtPrepaidInfoDeposit
                0x0009e3fc                prepaidAllDetail
                0x0009d5d4                getPrepaidTidMid
                0x000974a4                openCom
                0x00099cd8                ubahTanggal
                0x0009a610                pmtPrepaidInitSaldo
                0x00097ca8                samInit
                0x0009be28                pmtPrepaidAktivasiDeposit
                0x0009d7d0                selectPrepaidInit
                0x0009e2bc                prepaidAllSummary
                0x00099684                reaktivasi
 .text          0x000a02a8      0xccc Obj/DEBUG_T1/logon.o
                0x000a02a8                DateToInt
                0x000a0428                debitLogon
                0x000a03d0                TimeToInt
 .text          0x000a0f74       0x68 Obj/DEBUG_T1/rsagen.o
                0x000a0f74                RSAKeyPair
 .text          0x000a0fdc      0x794 Obj/DEBUG_T1/prsa.o
                0x000a1534                ConvertHexStringToData
                0x000a1324                rsa_free
                0x000a0fdc                rsa_initialization
                0x000a15dc                genRSAKeyPair
                0x000a1474                ha_to_i
                0x000a13b8                a_to_hc
                0x000a101c                rsa_gen_key
 .text          0x000a1770     0x6574 Obj/DEBUG_T1/bignum.o
                0x000a3288                mpi_sub_mpi
                0x000a18c8                mpi_copy
                0x000a5c7c                mpi_div_mpi
                0x000a1a64                mpi_get_bit
                0x000a33dc                mpi_sub_int
                0x000a6450                mpi_div_int
                0x000a5c34                mpi_mul_int
                0x000a5a88                mpi_mul_mpi
                0x000a2d84                mpi_add_abs
                0x000a1770                mpi_init
                0x000a1c18                mpi_msb
                0x000a31b0                mpi_add_mpi
                0x000a2d10                mpi_cmp_int
                0x000a3360                mpi_add_int
                0x000a6968                mpi_exp_mod
                0x000a1b90                mpi_lsb
                0x000a1800                mpi_grow
                0x000a65a4                mpi_mod_int
                0x000a7abc                mpi_gen_prime
                0x000a240c                mpi_write_file
                0x000a64dc                mpi_mod_mpi
                0x000a25a8                mpi_read_binary
                0x000a1990                mpi_swap
                0x000a22a4                mpi_read_file
                0x000a19d4                mpi_lset
                0x000a2760                mpi_shift_l
                0x000a1ca8                mpi_size
                0x000a30a8                mpi_sub_abs
                0x000a1ab0                mpi_set_bit
                0x000a723c                mpi_inv_mod
                0x000a2a58                mpi_cmp_abs
                0x000a7198                mpi_fill_random
                0x000a20b0                mpi_write_string
                0x000a2900                mpi_shift_r
                0x000a1d70                mpi_read_string
                0x000a17a0                mpi_free
                0x000a76cc                mpi_is_prime
                0x000a6f9c                mpi_gcd
                0x000a26a8                mpi_write_binary
                0x000a2b94                mpi_cmp_mpi
 .text          0x000a7ce4     0x2f8c Obj/DEBUG_T1/havege.o
                0x000aabc0                havege_init
                0x000aabec                havege_rand
 .text          0x000aac70       0x10 Obj/DEBUG_T1/timing.o
                0x000aac70                hardclock
 .text          0x000aac80      0x470 libs/GNU_ARM_DEBUG/RSA.lib(RSA_dec.o)
                0x000aada4                RSA_Decrypt
                0x000aac80                math_modexpmod
 .text          0x000ab0f0       0x2c libs/GNU_ARM_DEBUG/RSA.lib(RSA_init.o)
                0x000ab0f0                RSA_init
 .text          0x000ab11c       0x8c libs/GNU_ARM_DEBUG/RSA.lib(m_add.o)
                0x000ab11c                math_add
 .text          0x000ab1a8       0xc8 libs/GNU_ARM_DEBUG/RSA.lib(m_b2w.o)
                0x000ab1a8                math_byteToWord
 .text          0x000ab270       0x44 libs/GNU_ARM_DEBUG/RSA.lib(m_clr.o)
                0x000ab270                math_clr
 .text          0x000ab2b4       0xac libs/GNU_ARM_DEBUG/RSA.lib(m_cmp.o)
                0x000ab2b4                math_cmp
 .text          0x000ab360       0xb4 libs/GNU_ARM_DEBUG/RSA.lib(m_cpy.o)
                0x000ab360                math_cpy
 .text          0x000ab414      0x2e8 libs/GNU_ARM_DEBUG/RSA.lib(m_div.o)
                0x000ab490                math_div
                0x000ab414                math_predict
 .text          0x000ab6fc      0x134 libs/GNU_ARM_DEBUG/RSA.lib(m_mem.o)
                0x000ab734                math_memAlloc
                0x000ab6fc                math_memInit
                0x000ab7f0                math_memFree
 .text          0x000ab830       0x48 libs/GNU_ARM_DEBUG/RSA.lib(m_modmul.o)
                0x000ab830                math_modmul
 .text          0x000ab878      0x1fc libs/GNU_ARM_DEBUG/RSA.lib(m_monexp.o)
                0x000ab878                math_monexp
 .text          0x000aba74       0xc8 libs/GNU_ARM_DEBUG/RSA.lib(m_moninv.o)
                0x000aba74                math_moninv
 .text          0x000abb3c       0x54 libs/GNU_ARM_DEBUG/RSA.lib(m_monmul.o)
                0x000abb3c                math_monmul
 .text          0x000abb90       0xc0 libs/GNU_ARM_DEBUG/RSA.lib(m_msb.o)
                0x000abb90                math_msb
 .text          0x000abc50      0x17c libs/GNU_ARM_DEBUG/RSA.lib(m_mul.o)
                0x000abc50                math_mul
 .text          0x000abdcc       0xc0 libs/GNU_ARM_DEBUG/RSA.lib(m_mulsub.o)
                0x000abdcc                math_mulsub
 .text          0x000abe8c       0xd0 libs/GNU_ARM_DEBUG/RSA.lib(m_rand.o)
                0x000abe8c                math_random_init
                0x000abed8                math_random
                0x000abe9c                math_random_bit
 .text          0x000abf5c      0x1cc libs/GNU_ARM_DEBUG/RSA.lib(m_red.o)
                0x000abf5c                math_monred
 .text          0x000ac128       0xfc libs/GNU_ARM_DEBUG/RSA.lib(m_shlx.o)
                0x000ac128                math_shlx
 .text          0x000ac224      0x11c libs/GNU_ARM_DEBUG/RSA.lib(m_shrx.o)
                0x000ac224                math_shrx
 .text          0x000ac340       0x8c libs/GNU_ARM_DEBUG/RSA.lib(m_sub.o)
                0x000ac340                math_sub
 .text          0x000ac3cc       0x88 libs/GNU_ARM_DEBUG/RSA.lib(m_w2b.o)
                0x000ac3cc                math_wordToByte
 .text          0x000ac454       0x4c C:/Program Files/SDK30/SDK 7.5.1/SDK/lib_gnu/eft30.lib(iam1.o)
                0x000ac454                Send_Message
 .text          0x000ac4a0       0x60 C:/Program Files/SDK30/SDK 7.5.1/SDK/lib_gnu/eft30.lib(atoi.o)
                0x000ac4a0                atol
                0x000ac4f4                atoi
 .text          0x000ac500       0x44 C:/Program Files/SDK30/SDK 7.5.1/SDK/lib_gnu/eft30.lib(extens119.o)
                0x000ac500                StateHeader
 .text          0x000ac544       0x50 C:/Program Files/SDK30/SDK 7.5.1/SDK/lib_gnu/eft30.lib(extens5.o)
                0x000ac544                Get_TypeCode
 .text          0x000ac594       0x4c C:/Program Files/SDK30/SDK 7.5.1/SDK/lib_gnu/eft30.lib(extens53.o)
                0x000ac594                d_tolong
 .text          0x000ac5e0       0xc8 C:/Program Files/SDK30/SDK 7.5.1/SDK/lib_gnu/eft30.lib(extens87.o)
                0x000ac5e0                USR_ServiceCall
                0x000ac644                USQ_ServiceCall
 .text          0x000ac6a8       0x4c C:/Program Files/SDK30/SDK 7.5.1/SDK/lib_gnu/eft30.lib(extens89.o)
                0x000ac6a8                GetSemaphoreUser
 .text          0x000ac6f4       0x4c C:/Program Files/SDK30/SDK 7.5.1/SDK/lib_gnu/eft30.lib(extens90.o)
                0x000ac6f4                FreeSemaphoreUser
 .text          0x000ac740       0x4c C:/Program Files/SDK30/SDK 7.5.1/SDK/lib_gnu/eft30.lib(extens93.o)
                0x000ac740                GetDelayUser
 .text          0x000ac78c       0x4c C:/Program Files/SDK30/SDK 7.5.1/SDK/lib_gnu/eft30.lib(extens94.o)
                0x000ac78c                FreeDelayUser
 .text          0x000ac7d8       0x48 C:/Program Files/SDK30/SDK 7.5.1/SDK/lib_gnu/eft30.lib(param17.o)
                0x000ac7d8                PSQ_Donner_noserie
 .text          0x000ac820       0x50 C:/Program Files/SDK30/SDK 7.5.1/SDK/lib_gnu/eft30.lib(param46.o)
                0x000ac820                PSQ_Update_Cash_Connection
 .text          0x000ac870       0x48 C:/Program Files/SDK30/SDK 7.5.1/SDK/lib_gnu/eft30.lib(param72.o)
                0x000ac870                PSQ_donner_type_pinpad
 .text          0x000ac8b8      0xb7c C:/Program Files/SDK30/SDK 7.5.1/SDK/lib_gnu/eft30.lib(crypto.o)
                0x000acd38                Des112Cipher
                0x000acb8c                NotB
                0x000ac910                Crypto_Dll_Version
                0x000ace18                Des56DecipherIcv
                0x000ac9a4                AesCipherInit
                0x000ad08c                FormatPinBloc
                0x000acfa0                DukptLoadKey
                0x000ac950                AesMakeKey
                0x000acf08                MacIcv
                0x000aceb8                Des112DecipherIcv
                0x000ad3f0                MD5Final
                0x000ac9f0                AesBlockEncrypt
                0x000ac8b8                Crypto_Dll_Open
                0x000ace68                Des112CipherIcv
                0x000acdc8                Des56CipherIcv
                0x000ad284                RSAPublicKey
                0x000ad174                ShaInit
                0x000aca44                AesBlockDecrypt
                0x000ac8f4                Crypto_Dll_Close
                0x000ad1fc                ShaFinal
                0x000acfe8                DukptCurrentKeyDerivation
                0x000acca8                Des56Cipher
                0x000acf58                DukptInitialKeyCreation
                0x000ad31c                RSAGenerateKeys
                0x000acc60                AndB
                0x000ad038                DukptEncryptPin
                0x000ad368                MD5Init
                0x000acb3c                CalculateLrc
                0x000ad23c                ShaCompute
                0x000acc18                OrB
                0x000ad3a8                MD5Update
                0x000ad2d0                RSAPrivateKey
                0x000ad12c                Owf
                0x000acd80                Des112Decipher
                0x000acaec                CalculateCrc
                0x000ad1b4                ShaUpdate
                0x000ad0e4                MkskEncryptPin
                0x000accf0                Des56Decipher
                0x000acbd0                XorB
                0x000aca98                AesCipherUpdateRounds
 .text          0x000ad434       0x48 C:/Program Files/SDK30/SDK 7.5.1/SDK/lib_gnu/eft30.lib(pinpad10.o)
                0x000ad434                PPS_firstline
 .text          0x000ad47c       0x4c C:/Program Files/SDK30/SDK 7.5.1/SDK/lib_gnu/eft30.lib(pinpad12.o)
                0x000ad47c                PPS_Display
 .text          0x000ad4c8       0x4c C:/Program Files/SDK30/SDK 7.5.1/SDK/lib_gnu/eft30.lib(pinpad15.o)
                0x000ad4c8                PPS_clear_display
 .text          0x000ad514       0x48 C:/Program Files/SDK30/SDK 7.5.1/SDK/lib_gnu/eft30.lib(pinpad8.o)
                0x000ad514                PPS_newline
 .text          0x000ad55c       0x48 C:/Program Files/SDK30/SDK 7.5.1/SDK/lib_gnu/eft30.lib(pinpad9.o)
                0x000ad55c                PPS_clearline
 .text          0x000ad5a4       0x50 C:/Program Files/SDK30/SDK 7.5.1/SDK/lib_gnu/eft30.lib(sv21.o)
                0x000ad5a4                SV_input_command
 .text          0x000ad5f4       0x50 C:/Program Files/SDK30/SDK 7.5.1/SDK/lib_gnu/eft30.lib(sv22.o)
                0x000ad5f4                SV_output_command
 .text          0x000ad644       0x50 C:/Program Files/SDK30/SDK 7.5.1/SDK/lib_gnu/eft30.lib(sv23.o)
                0x000ad644                SV_power_on
 .text          0x000ad694       0x4c C:/Program Files/SDK30/SDK 7.5.1/SDK/lib_gnu/eft30.lib(sv24.o)
                0x000ad694                SV_read_date
 .text          0x000ad6e0       0x4c C:/Program Files/SDK30/SDK 7.5.1/SDK/lib_gnu/eft30.lib(sv25.o)
                0x000ad6e0                SV_write_date
 .text          0x000ad72c       0x88 C:/Program Files/SDK30/SDK 7.5.1/SDK/lib_gnu/eft30.lib(libgr1.o)
                0x000ad770                _PaintGraphics
                0x000ad72c                PaintGraphics
 .text          0x000ad7b4       0x48 C:/Program Files/SDK30/SDK 7.5.1/SDK/lib_gnu/eft30.lib(libgr35.o)
                0x000ad7b4                _clrscr
 .text          0x000ad7fc       0x4c C:/Program Files/SDK30/SDK 7.5.1/SDK/lib_gnu/eft30.lib(libgr40.o)
                0x000ad7fc                InitContexteGraphique
 .text          0x000ad848       0x60 C:/Program Files/SDK30/SDK 7.5.1/SDK/lib_gnu/eft30.lib(libgr41.o)
                0x000ad848                DisplayBitmap
 .text          0x000ad8a8       0x48 C:/Program Files/SDK30/SDK 7.5.1/SDK/lib_gnu/eft30.lib(libgr49.o)
                0x000ad8a8                GetDefaultFont
 .text          0x000ad8f0       0x4c C:/Program Files/SDK30/SDK 7.5.1/SDK/lib_gnu/eft30.lib(libgr54.o)
                0x000ad8f0                DefCurrentFont
 .text          0x000ad93c       0x64 C:/Program Files/SDK30/SDK 7.5.1/SDK/lib_gnu/eft30.lib(libgr55.o)
                0x000ad93c                DrawExtendedString8859
 .text          0x000ad9a0       0x5c C:/Program Files/SDK30/SDK 7.5.1/SDK/lib_gnu/eft30.lib(libgr58.o)
                0x000ad9a0                pprintf8859
 .text          0x000ad9fc       0x4c C:/Program Files/SDK30/SDK 7.5.1/SDK/lib_gnu/eft30.lib(libgr66.o)
                0x000ad9fc                GetExtendedPoliceSize
 .text          0x000ada48       0x4c C:/Program Files/SDK30/SDK 7.5.1/SDK/lib_gnu/eft30.lib(libgr68.o)
                0x000ada48                LoadFont
 .text          0x000ada94       0x4c C:/Program Files/SDK30/SDK 7.5.1/SDK/lib_gnu/eft30.lib(libgr7.o)
                0x000ada94                CreateGraphics
 .text          0x000adae0       0x54 C:/Program Files/SDK30/SDK 7.5.1/SDK/lib_gnu/eft30.lib(libgr8.o)
                0x000adae0                _SetPixel
 .text          0x000adb34       0x48 C:/Program Files/SDK30/SDK 7.5.1/SDK/lib_gnu/eft30.lib(libgr82.o)
                0x000adb34                PaintPrinterGraphics
 .text          0x000adb7c       0x4c C:/Program Files/SDK30/SDK 7.5.1/SDK/lib_gnu/eft30.lib(libgr83.o)
                0x000adb7c                InitPrinterBitmap
 .text          0x000adbc8       0x64 C:/Program Files/SDK30/SDK 7.5.1/SDK/lib_gnu/eft30.lib(libgr86.o)
                0x000adbc8                _pprintf8859XY
 .text          0x000adc2c       0x80 C:/Program Files/SDK30/SDK 7.5.1/SDK/lib_gnu/eft30.lib(gprs.o)
                0x000adc2c                gprslib_open
 .text          0x000adcac      0x19c C:/Program Files/SDK30/SDK 7.5.1/SDK/lib_gnu/eft30.lib(LibAppli.o)
                0x000add9c                putchar
                0x000add00                printf
                0x000add24                format
                0x000addb4                puts
                0x000adcac                fprintf
                0x000adcc8                vprintf
                0x000addc8                InitGK
                0x000adce4                sprintf
                0x000addf4                WaitOnError
                0x000add40                OEM_exit_asm
                0x000add4c                __stdprt
                0x000ade44                InitVar_vide
                0x000adde4                TrapResetDiv0
                0x000add64                pprintf
 .text          0x000ade48       0x5c C:/Program Files/SDK30/SDK 7.5.1/SDK/lib_gnu/eft30.lib(iam.o)
                0x000ade48                iamlib_open
                0x000ade94                iamlib_close
 .text          0x000adea4       0xb0 C:/Program Files/SDK30/SDK 7.5.1/SDK/lib_gnu/eft30.lib(ctype.o)
                0x000adeb4                islower
                0x000adf04                ispunct
                0x000adef4                isspace
                0x000adee4                isxdigit
                0x000adea4                isupper
                0x000adec4                isalpha
                0x000adf24                isgraph
                0x000adf14                isalnum
                0x000adf34                isprint
                0x000aded4                isdigit
                0x000adf44                iscntrl
 .text          0x000adf54       0x5c C:/Program Files/SDK30/SDK 7.5.1/SDK/lib_gnu/eft30.lib(extens.o)
                0x000adfa0                extenslib_close
                0x000adf54                extenslib_open
 .text          0x000adfb0       0x5c C:/Program Files/SDK30/SDK 7.5.1/SDK/lib_gnu/eft30.lib(param.o)
                0x000adfb0                paramlib_open
                0x000adffc                paramlib_close
 .text          0x000ae00c       0x5c C:/Program Files/SDK30/SDK 7.5.1/SDK/lib_gnu/eft30.lib(pinpad.o)
                0x000ae00c                pinpadlib_open
                0x000ae058                pinpadlib_close
 .text          0x000ae068       0x5c C:/Program Files/SDK30/SDK 7.5.1/SDK/lib_gnu/eft30.lib(sv.o)
                0x000ae068                svlib_open
                0x000ae0b4                svlib_close
 .text          0x000ae0c4       0x5c C:/Program Files/SDK30/SDK 7.5.1/SDK/lib_gnu/eft30.lib(libgr.o)
                0x000ae0c4                libgrlib_open
                0x000ae110                libgrlib_close
 .text          0x000ae120       0x10 C:/Program Files/SDK30/SDK 7.5.1/SDK/lib_gnu/trap.lib(trap_1302___STDOUT.o)
                0x000ae120                __STDOUT
 .text          0x000ae130       0x10 C:/Program Files/SDK30/SDK 7.5.1/SDK/lib_gnu/trap.lib(trap_1303_OS_rtc_CurrentTask.o)
                0x000ae130                OS_rtc_CurrentTask
 .text          0x000ae140       0x10 C:/Program Files/SDK30/SDK 7.5.1/SDK/lib_gnu/trap.lib(trap_1305_OS_rtc_SignalEvent.o)
                0x000ae140                OS_rtc_SignalEvent
 .text          0x000ae150       0x10 C:/Program Files/SDK30/SDK 7.5.1/SDK/lib_gnu/trap.lib(trap_1307_OS_rtc_V.o)
                0x000ae150                OS_rtc_V
 .text          0x000ae160       0x10 C:/Program Files/SDK30/SDK 7.5.1/SDK/lib_gnu/trap.lib(trap_1308_OS_rtc_P.o)
                0x000ae160                OS_rtc_P
 .text          0x000ae170       0x10 C:/Program Files/SDK30/SDK 7.5.1/SDK/lib_gnu/trap.lib(trap_1309_OS_rtc_StartLDelay.o)
                0x000ae170                OS_rtc_StartLDelay
 .text          0x000ae180       0x10 C:/Program Files/SDK30/SDK 7.5.1/SDK/lib_gnu/trap.lib(trap_130A_OS_rtc_StopDelay.o)
                0x000ae180                OS_rtc_StopDelay
 .text          0x000ae190       0x10 C:/Program Files/SDK30/SDK 7.5.1/SDK/lib_gnu/trap.lib(trap_130D_OS_rtc_InitSemaphore.o)
                0x000ae190                OS_rtc_InitSemaphore
 .text          0x000ae1a0       0x10 C:/Program Files/SDK30/SDK 7.5.1/SDK/lib_gnu/trap.lib(trap_1313_fclose.o)
                0x000ae1a0                fclose
 .text          0x000ae1b0       0x10 C:/Program Files/SDK30/SDK 7.5.1/SDK/lib_gnu/trap.lib(trap_1314_fopen.o)
                0x000ae1b0                fopen
 .text          0x000ae1c0       0x10 C:/Program Files/SDK30/SDK 7.5.1/SDK/lib_gnu/trap.lib(trap_1315_fread.o)
                0x000ae1c0                fread
 .text          0x000ae1d0       0x10 C:/Program Files/SDK30/SDK 7.5.1/SDK/lib_gnu/trap.lib(trap_1316_fwrite.o)
                0x000ae1d0                fwrite
 .text          0x000ae1e0       0x10 C:/Program Files/SDK30/SDK 7.5.1/SDK/lib_gnu/trap.lib(trap_1319_getc.o)
                0x000ae1e0                getc
 .text          0x000ae1f0       0x10 C:/Program Files/SDK30/SDK 7.5.1/SDK/lib_gnu/trap.lib(trap_131A_reset_buf.o)
                0x000ae1f0                reset_buf
 .text          0x000ae200       0x10 C:/Program Files/SDK30/SDK 7.5.1/SDK/lib_gnu/trap.lib(trap_131B___STDIN.o)
                0x000ae200                __STDIN
 .text          0x000ae210       0x10 C:/Program Files/SDK30/SDK 7.5.1/SDK/lib_gnu/trap.lib(trap_131E_status.o)
                0x000ae210                status
 .text          0x000ae220       0x10 C:/Program Files/SDK30/SDK 7.5.1/SDK/lib_gnu/trap.lib(trap_1320_gotoxy.o)
                0x000ae220                gotoxy
 .text          0x000ae230       0x10 C:/Program Files/SDK30/SDK 7.5.1/SDK/lib_gnu/trap.lib(trap_1323__vfprintf.o)
                0x000ae230                _vfprintf
 .text          0x000ae240       0x10 C:/Program Files/SDK30/SDK 7.5.1/SDK/lib_gnu/trap.lib(trap_1324_vsprintf.o)
                0x000ae240                vsprintf
 .text          0x000ae250       0x10 C:/Program Files/SDK30/SDK 7.5.1/SDK/lib_gnu/trap.lib(trap_1325_fgets.o)
                0x000ae250                fgets
 .text          0x000ae260       0x10 C:/Program Files/SDK30/SDK 7.5.1/SDK/lib_gnu/trap.lib(trap_1328_putc.o)
                0x000ae260                putc
 .text          0x000ae270       0x10 C:/Program Files/SDK30/SDK 7.5.1/SDK/lib_gnu/trap.lib(trap_1329_ttestall.o)
                0x000ae270                ttestall
 .text          0x000ae280       0x10 C:/Program Files/SDK30/SDK 7.5.1/SDK/lib_gnu/trap.lib(trap_132A_fork.o)
                0x000ae280                fork
 .text          0x000ae290       0x10 C:/Program Files/SDK30/SDK 7.5.1/SDK/lib_gnu/trap.lib(trap_132B_kill.o)
                0x000ae290                kill
 .text          0x000ae2a0       0x10 C:/Program Files/SDK30/SDK 7.5.1/SDK/lib_gnu/trap.lib(trap_132C_FormatOem.o)
                0x000ae2a0                FormatOem
 .text          0x000ae2b0       0x10 C:/Program Files/SDK30/SDK 7.5.1/SDK/lib_gnu/trap.lib(trap_1332_EMV_apdu.o)
                0x000ae2b0                EMV_apdu
 .text          0x000ae2c0       0x10 C:/Program Files/SDK30/SDK 7.5.1/SDK/lib_gnu/trap.lib(trap_1335_EMV_power_on.o)
                0x000ae2c0                EMV_power_on
 .text          0x000ae2d0       0x10 C:/Program Files/SDK30/SDK 7.5.1/SDK/lib_gnu/trap.lib(trap_133C_memcpy.o)
                0x000ae2d0                memcpy
 .text          0x000ae2e0       0x10 C:/Program Files/SDK30/SDK 7.5.1/SDK/lib_gnu/trap.lib(trap_133D_memmove.o)
                0x000ae2e0                memmove
 .text          0x000ae2f0       0x10 C:/Program Files/SDK30/SDK 7.5.1/SDK/lib_gnu/trap.lib(trap_133E_strcpy.o)
                0x000ae2f0                strcpy
 .text          0x000ae300       0x10 C:/Program Files/SDK30/SDK 7.5.1/SDK/lib_gnu/trap.lib(trap_133F_strncpy.o)
                0x000ae300                strncpy
 .text          0x000ae310       0x10 C:/Program Files/SDK30/SDK 7.5.1/SDK/lib_gnu/trap.lib(trap_1340_strcat.o)
                0x000ae310                strcat
 .text          0x000ae320       0x10 C:/Program Files/SDK30/SDK 7.5.1/SDK/lib_gnu/trap.lib(trap_1342_memcmp.o)
                0x000ae320                memcmp
 .text          0x000ae330       0x10 C:/Program Files/SDK30/SDK 7.5.1/SDK/lib_gnu/trap.lib(trap_1343_strcmp.o)
                0x000ae330                strcmp
 .text          0x000ae340       0x10 C:/Program Files/SDK30/SDK 7.5.1/SDK/lib_gnu/trap.lib(trap_1346_memset.o)
                0x000ae340                memset
 .text          0x000ae350       0x10 C:/Program Files/SDK30/SDK 7.5.1/SDK/lib_gnu/trap.lib(trap_1348_ObjectGetInfo.o)
                0x000ae350                ObjectGetInfo
 .text          0x000ae360       0x10 C:/Program Files/SDK30/SDK 7.5.1/SDK/lib_gnu/trap.lib(trap_1349_ObjectLoad.o)
                0x000ae360                ObjectLoad
 .text          0x000ae370       0x10 C:/Program Files/SDK30/SDK 7.5.1/SDK/lib_gnu/trap.lib(trap_134D_ServiceRegister.o)
                0x000ae370                ServiceRegister
 .text          0x000ae380       0x10 C:/Program Files/SDK30/SDK 7.5.1/SDK/lib_gnu/trap.lib(trap_134E_ServiceGet.o)
                0x000ae380                ServiceGet
 .text          0x000ae390       0x10 C:/Program Files/SDK30/SDK 7.5.1/SDK/lib_gnu/trap.lib(trap_1350_DllLink.o)
                0x000ae390                DllLink
 .text          0x000ae3a0       0x10 C:/Program Files/SDK30/SDK 7.5.1/SDK/lib_gnu/trap.lib(trap_1352_DllUnlink.o)
                0x000ae3a0                DllUnlink
 .text          0x000ae3b0       0x10 C:/Program Files/SDK30/SDK 7.5.1/SDK/lib_gnu/trap.lib(trap_1356_stdperif.o)
                0x000ae3b0                stdperif
 .text          0x000ae3c0       0x10 C:/Program Files/SDK30/SDK 7.5.1/SDK/lib_gnu/trap.lib(trap_135B_StartRetroEclairage.o)
                0x000ae3c0                StartRetroEclairage
 .text          0x000ae3d0       0x10 C:/Program Files/SDK30/SDK 7.5.1/SDK/lib_gnu/trap.lib(trap_135C_StopRetroEclairage.o)
                0x000ae3d0                StopRetroEclairage
 .text          0x000ae3e0       0x10 C:/Program Files/SDK30/SDK 7.5.1/SDK/lib_gnu/trap.lib(trap_1369_startupcv20.o)
                0x000ae3e0                startupcv20
 .text          0x000ae3f0       0x10 C:/Program Files/SDK30/SDK 7.5.1/SDK/lib_gnu/trap.lib(trap_1373_ctrl_date.o)
                0x000ae3f0                ctrl_date
 .text          0x000ae400       0x10 C:/Program Files/SDK30/SDK 7.5.1/SDK/lib_gnu/trap.lib(trap_1374_defprinterpattern.o)
                0x000ae400                defprinterpattern
 .text          0x000ae410       0x10 C:/Program Files/SDK30/SDK 7.5.1/SDK/lib_gnu/trap.lib(trap_1375_download.o)
                0x000ae410                download
 .text          0x000ae420       0x10 C:/Program Files/SDK30/SDK 7.5.1/SDK/lib_gnu/trap.lib(trap_1378_OEM_exit.o)
                0x000ae420                OEM_exit
 .text          0x000ae430       0x10 C:/Program Files/SDK30/SDK 7.5.1/SDK/lib_gnu/trap.lib(trap_137B_is_iso2.o)
                0x000ae430                is_iso2
 .text          0x000ae440       0x10 C:/Program Files/SDK30/SDK 7.5.1/SDK/lib_gnu/trap.lib(trap_137C_is_iso3.o)
                0x000ae440                is_iso3
 .text          0x000ae450       0x10 C:/Program Files/SDK30/SDK 7.5.1/SDK/lib_gnu/trap.lib(trap_137D_is_iso1.o)
                0x000ae450                is_iso1
 .text          0x000ae460       0x10 C:/Program Files/SDK30/SDK 7.5.1/SDK/lib_gnu/trap.lib(trap_138B_FS_dskcreate.o)
                0x000ae460                FS_dskcreate
 .text          0x000ae470       0x10 C:/Program Files/SDK30/SDK 7.5.1/SDK/lib_gnu/trap.lib(trap_138D_FS_mount.o)
                0x000ae470                FS_mount
 .text          0x000ae480       0x10 C:/Program Files/SDK30/SDK 7.5.1/SDK/lib_gnu/trap.lib(trap_138E_FS_unmount.o)
                0x000ae480                FS_unmount
 .text          0x000ae490       0x10 C:/Program Files/SDK30/SDK 7.5.1/SDK/lib_gnu/trap.lib(trap_1395_FS_opendir.o)
                0x000ae490                FS_opendir
 .text          0x000ae4a0       0x10 C:/Program Files/SDK30/SDK 7.5.1/SDK/lib_gnu/trap.lib(trap_1396_FS_readdir.o)
                0x000ae4a0                FS_readdir
 .text          0x000ae4b0       0x10 C:/Program Files/SDK30/SDK 7.5.1/SDK/lib_gnu/trap.lib(trap_1397_FS_closedir.o)
                0x000ae4b0                FS_closedir
 .text          0x000ae4c0       0x10 C:/Program Files/SDK30/SDK 7.5.1/SDK/lib_gnu/trap.lib(trap_1398_FS_rename.o)
                0x000ae4c0                FS_rename
 .text          0x000ae4d0       0x10 C:/Program Files/SDK30/SDK 7.5.1/SDK/lib_gnu/trap.lib(trap_1399_FS_unlink.o)
                0x000ae4d0                FS_unlink
 .text          0x000ae4e0       0x10 C:/Program Files/SDK30/SDK 7.5.1/SDK/lib_gnu/trap.lib(trap_139B_FS_open.o)
                0x000ae4e0                FS_open
 .text          0x000ae4f0       0x10 C:/Program Files/SDK30/SDK 7.5.1/SDK/lib_gnu/trap.lib(trap_139C_FS_close.o)
                0x000ae4f0                FS_close
 .text          0x000ae500       0x10 C:/Program Files/SDK30/SDK 7.5.1/SDK/lib_gnu/trap.lib(trap_139D_FS_read.o)
                0x000ae500                FS_read
 .text          0x000ae510       0x10 C:/Program Files/SDK30/SDK 7.5.1/SDK/lib_gnu/trap.lib(trap_139E_FS_write.o)
                0x000ae510                FS_write
 .text          0x000ae520       0x10 C:/Program Files/SDK30/SDK 7.5.1/SDK/lib_gnu/trap.lib(trap_139F_FS_flush.o)
                0x000ae520                FS_flush
 .text          0x000ae530       0x10 C:/Program Files/SDK30/SDK 7.5.1/SDK/lib_gnu/trap.lib(trap_13A1_FS_length.o)
                0x000ae530                FS_length
 .text          0x000ae540       0x10 C:/Program Files/SDK30/SDK 7.5.1/SDK/lib_gnu/trap.lib(trap_13A2_FS_seek.o)
                0x000ae540                FS_seek
 .text          0x000ae550       0x10 C:/Program Files/SDK30/SDK 7.5.1/SDK/lib_gnu/trap.lib(trap_13A8_info_seg.o)
                0x000ae550                info_seg
 .text          0x000ae560       0x10 C:/Program Files/SDK30/SDK 7.5.1/SDK/lib_gnu/trap.lib(trap_13AA_num_seg.o)
                0x000ae560                num_seg
 .text          0x000ae570       0x10 C:/Program Files/SDK30/SDK 7.5.1/SDK/lib_gnu/trap.lib(trap_13AB_first_init.o)
                0x000ae570                first_init
 .text          0x000ae580       0x10 C:/Program Files/SDK30/SDK 7.5.1/SDK/lib_gnu/trap.lib(trap_13B2_ApplicationGetCurrent.o)
                0x000ae580                ApplicationGetCurrent
 .text          0x000ae590       0x10 C:/Program Files/SDK30/SDK 7.5.1/SDK/lib_gnu/trap.lib(trap_13B9_buzzer.o)
                0x000ae590                buzzer
 .text          0x000ae5a0       0x10 C:/Program Files/SDK30/SDK 7.5.1/SDK/lib_gnu/trap.lib(trap_13BE_GiveNoTask.o)
                0x000ae5a0                GiveNoTask
 .text          0x000ae5b0       0x10 C:/Program Files/SDK30/SDK 7.5.1/SDK/lib_gnu/trap.lib(trap_13C2_InitGkDrv.o)
                0x000ae5b0                InitGkDrv
 .text          0x000ae5c0       0x10 C:/Program Files/SDK30/SDK 7.5.1/SDK/lib_gnu/trap.lib(trap_13CE_closesocket.o)
                0x000ae5c0                closesocket
 .text          0x000ae5d0       0x10 C:/Program Files/SDK30/SDK 7.5.1/SDK/lib_gnu/trap.lib(trap_13CF_connect.o)
                0x000ae5d0                connect
 .text          0x000ae5e0       0x10 C:/Program Files/SDK30/SDK 7.5.1/SDK/lib_gnu/trap.lib(trap_13D6_shutdownsocket.o)
                0x000ae5e0                shutdownsocket
 .text          0x000ae5f0       0x10 C:/Program Files/SDK30/SDK 7.5.1/SDK/lib_gnu/trap.lib(trap_13D7_socket.o)
                0x000ae5f0                socket
 .text          0x000ae600       0x10 C:/Program Files/SDK30/SDK 7.5.1/SDK/lib_gnu/trap.lib(trap_1406_umalloc.o)
                0x000ae600                umalloc
 .text          0x000ae610       0x10 C:/Program Files/SDK30/SDK 7.5.1/SDK/lib_gnu/trap.lib(trap_1407_ufree.o)
                0x000ae610                ufree
 .text          0x000ae620       0x10 C:/Program Files/SDK30/SDK 7.5.1/SDK/lib_gnu/trap.lib(trap_1414_fioctl.o)
                0x000ae620                fioctl
 .text          0x000ae630       0x10 C:/Program Files/SDK30/SDK 7.5.1/SDK/lib_gnu/trap.lib(trap_1426_get_tick_counter.o)
                0x000ae630                get_tick_counter
 .text          0x000ae640       0x10 C:/Program Files/SDK30/SDK 7.5.1/SDK/lib_gnu/trap.lib(trap_1432_SystemFioctl.o)
                0x000ae640                SystemFioctl
 .text          0x000ae650      0x168 C:/Program Files/SDK30/SDK 7.5.1/SDK/lib_gnu/AVL.lib(Proxy.o)
                0x000ae7a0                TlvTree_SetTag
                0x000ae7ac                TlvTree_Copy
                0x000ae6c8                TlvTree_Serialize
                0x000ae734                TlvTree_GetTag
                0x000ae740                TlvTree_GetLength
                0x000ae728                TlvTree_GetNext
                0x000ae6f8                TlvTree_Iterate
                0x000ae71c                TlvTree_GetParent
                0x000ae65c                TlvTree_AddChild
                0x000ae668                TlvTree_AddChildInteger
                0x000ae780                TlvTree_SetDataInteger
                0x000ae6ec                TlvTree_Find
                0x000ae684                TlvTree_AddChildString
                0x000ae6e0                TlvTree_Unserialize
                0x000ae74c                TlvTree_GetData
                0x000ae758                TlvTree_SetData
                0x000ae710                TlvTree_GetFirstChild
                0x000ae764                TlvTree_SetDataString
                0x000ae6d4                TlvTree_GetSerializationSize
                0x000ae6bc                TlvTree_Release
                0x000ae6a4                TlvTree_Graft
                0x000ae650                TlvTree_New
                0x000ae6b0                TlvTree_RemoveChild
 .text          0x000ae7b8       0xa0 C:/Program Files/SDK30/SDK 7.5.1/SDK/lib_gnu/AVL.lib(Serializer.o)
                0x000ae834                __TlvTree_GetSerializationSize
                0x000ae7e4                __TlvTree_Unserialize
                0x000ae7b8                __TlvTree_Serialize
 .text          0x000ae858      0x2c8 C:/Program Files/SDK30/SDK 7.5.1/SDK/lib_gnu/AVL.lib(Serializer_Default.o)
                0x000ae8c8                __TlvTree_Serialize_Default
                0x000aea1c                __TlvTree_Unserialize_Default
                0x000ae9d8                __TlvTree_GetSerializationSize_Default
 .text          0x000aeb20      0x7ac C:/Program Files/SDK30/SDK 7.5.1/SDK/lib_gnu/AVL.lib(Serializer_Xml.o)
                0x000af1f4                __TlvTree_Unserialize_Xml
                0x000aee08                __TlvTree_GetSerializationSize_Xml
                0x000aebf4                __TlvTree_Serialize_Xml
 .text          0x000af2cc      0x150 C:/Program Files/SDK30/SDK 7.5.1/SDK/lib_gnu/AVL.lib(XMLs.o)
                0x000af31c                XMLs_ParserClose
                0x000af340                XMLs_Parse
                0x000af38c                XMLs_SetUserData
                0x000af3c4                XMLs_Abort
                0x000af2ec                XMLs_ParserOpen
                0x000af3ac                XMLs_GetUserData
                0x000af3e4                XMLs_GetParsingState
 .text          0x000af41c      0x5cc C:/Program Files/SDK30/SDK 7.5.1/SDK/lib_gnu/AVL.lib(XMLs_Parser.o)
                0x000af55c                XMLgr_Document
 .text          0x000af9e8      0x1a8 C:/Program Files/SDK30/SDK 7.5.1/SDK/lib_gnu/AVL.lib(XMLs_ProcessData.o)
                0x000afa0c                XMLs_ProcessData
 .text          0x000afb90      0x314 C:/Program Files/SDK30/SDK 7.5.1/SDK/lib_gnu/AVL.lib(Internal.o)
                0x000afd20                __TlvTree_Find
                0x000afd70                __TlvTree_GetNext
                0x000afbc8                __TlvTree_SetData
                0x000afe70                __TlvTree_Release
                0x000afd68                __TlvTree_GetFirstChild
                0x000afd8c                __TlvTree_GetData
                0x000afdf4                __TlvTree_RemoveChild
                0x000afd90                __TlvTree_Copy
                0x000afd74                __TlvTree_GetTag
                0x000afbb8                __TlvTree_New
                0x000afb90                __TlvTree_NewNode
                0x000afc24                __TlvTree_AddChild
                0x000afc20                __TlvTree_SetTag
                0x000afc58                __TlvTree_Graft
                0x000afd78                __TlvTree_GetLength
                0x000afd6c                __TlvTree_GetParent
                0x000afe44                __TlvTree_DeleteNode
                0x000afca4                __TlvTree_GetNextNode
 .text          0x000afea4      0x5b8 C:/Program Files/SDK30/SDK 7.5.1/SDK/lib_gnu/LinkLayerExeInterface.lib(LinkLayerServices.o)
                0x000aff60                LL_GetInfo
                0x000b0204                LL_WaitEvent
                0x000b01ac                LL_GetLastError
                0x000b0154                LL_ClearSendBuffer
                0x000b0380                LL_GSM_Start
                0x000b0400                LL_GetHandle
                0x000b00cc                LL_Receive
                0x000b0048                LL_Send
                0x000b0234                LL_Network_GetStatus
                0x000afff0                LL_Connect
                0x000b001c                LL_Disconnect
                0x000b02e0                LL_GPRS_Connect
                0x000b026c                LL_GPRS_Start
                0x000b0180                LL_ClearReceiveBuffer
                0x000b03d8                LL_GSM_Stop
                0x000afea4                LL_Configure
                0x000b0358                LL_GPRS_Stop
                0x000b01d8                LL_GetStatus
 .text          0x000b045c       0xc4 C:/Program Files/SDK30/SDK 7.5.1/SDK/lib_gnu/SEC.lib(SECLibOpenClose.o)
                0x000b0464                SEClib_Open
                0x000b045c                SEClib_Version
                0x000b0504                SEClib_Close
 .text          0x000b0520       0x48 C:/Program Files/SDK30/SDK 7.5.1/SDK/lib_gnu/SEC.lib(SEC1.o)
                0x000b0520                SEC_Version
 .text          0x000b0568       0x48 C:/Program Files/SDK30/SDK 7.5.1/SDK/lib_gnu/SEC.lib(SEC7.o)
                0x000b0568                SEC_InitVar
 .text          0x000b05b0       0x54 C:/Program Files/SDK30/SDK 7.5.1/SDK/lib_gnu/SEC.lib(SEC8.o)
                0x000b05b0                SEC_SetConfig
 .text          0x000b0604       0x54 C:/Program Files/SDK30/SDK 7.5.1/SDK/lib_gnu/SEC.lib(SEC9.o)
                0x000b0604                SEC_GetConfig
 .text          0x000b0658       0x54 C:/Program Files/SDK30/SDK 7.5.1/SDK/lib_gnu/SEC.lib(SEC10.o)
                0x000b0658                SEC_listSecureId
 .text          0x000b06ac       0x58 C:/Program Files/SDK30/SDK 7.5.1/SDK/lib_gnu/SEC.lib(SEC11.o)
                0x000b06ac                SEC_isSecretArea
 .text          0x000b0704       0x5c C:/Program Files/SDK30/SDK 7.5.1/SDK/lib_gnu/SEC.lib(SEC19.o)
                0x000b0704                SEC_CreateSecretArea
 .text          0x000b0760       0x58 C:/Program Files/SDK30/SDK 7.5.1/SDK/lib_gnu/SEC.lib(SEC20.o)
                0x000b0760                SEC_FreeSecret
 .text          0x000b07b8       0x60 C:/Program Files/SDK30/SDK 7.5.1/SDK/lib_gnu/SEC.lib(SEC21.o)
                0x000b07b8                SEC_LoadKey
 .text          0x000b0818       0x58 C:/Program Files/SDK30/SDK 7.5.1/SDK/lib_gnu/SEC.lib(SEC22.o)
                0x000b0818                SEC_PinEntryInit
 .text          0x000b0870       0x50 C:/Program Files/SDK30/SDK 7.5.1/SDK/lib_gnu/SEC.lib(SEC23.o)
                0x000b0870                SEC_PinEntry
 .text          0x000b08c0       0x64 C:/Program Files/SDK30/SDK 7.5.1/SDK/lib_gnu/SEC.lib(SEC24.o)
                0x000b08c0                SEC_Iso9564
 .text          0x000b0924       0x54 C:/Program Files/SDK30/SDK 7.5.1/SDK/lib_gnu/SEC.lib(SEC25.o)
                0x000b0924                SEC_DukptLoadKSN
 .text          0x000b0978       0x5c C:/Program Files/SDK30/SDK 7.5.1/SDK/lib_gnu/SEC.lib(SEC26.o)
                0x000b0978                SEC_DukptLoadDerivationKey
 .text          0x000b09d4       0x58 C:/Program Files/SDK30/SDK 7.5.1/SDK/lib_gnu/SEC.lib(SEC28.o)
                0x000b09d4                SEC_DukptGenerateInitialKey
 .text          0x000b0a2c       0x64 C:/Program Files/SDK30/SDK 7.5.1/SDK/lib_gnu/SEC.lib(SEC31.o)
                0x000b0a2c                SEC_DukptEncryptPin
 .text          0x000b0a90       0x64 C:/Program Files/SDK30/SDK 7.5.1/SDK/lib_gnu/SEC.lib(SEC32.o)
                0x000b0a90                SEC_ECBCipher
 .text          0x000b0af4       0x5c C:/Program Files/SDK30/SDK 7.5.1/SDK/lib_gnu/SEC.lib(SEC34.o)
                0x000b0af4                SEC_ComputeMAC
 .text          0x000b0b50       0x48 C:/Program Files/SDK30/SDK 7.5.1/SDK/lib_gnu/SEC.lib(SEC37.o)
                0x000b0b50                SEC_InitInstance
 .text          0x000b0b98      0x428 C:/Program Files/SDK30/SDK 7.5.1/SDK/lib_gnu/IP_.lib(IP.o)
                0x000b0dec                __Ping
                0x000b0d00                ResolverGetOption
                0x000b0c8c                __inet_addr
                0x000b0f8c                __GetDefaultRoute
                0x000b0d4c                recvfrom
                0x000b0dd4                gethostbyname_r
                0x000b0fb4                __DeleteRoute
                0x000b0cec                EthernetSetOption
                0x000b0f9c                __SetDefaultRoute
                0x000b0bb0                __inet_aton
                0x000b0d9c                setsockopt
                0x000b0d80                sendto
                0x000b0fa8                __AddRoute
                0x000b0c98                __inet_ntoa
                0x000b0ba4                SetErrno
                0x000b0db4                gethostbyaddr_r
                0x000b0b98                GetErrno
                0x000b0d18                fcntlsocket
                0x000b0cd8                EthernetGetOption
                0x000b0d34                getsockopt
                0x000b0d68                selectsocket
                0x000b0d0c                ResolverSetOption
 .text          0x000b0fc0       0x10 C:/Program Files/SDK30/SDK 7.5.1/SDK/lib_gnu/trap.lib(trap_1386_upload_diagnostic_txt.o)
                0x000b0fc0                upload_diagnostic_txt
 .text          0x000b0fd0       0x10 C:/Program Files/SDK30/SDK 7.5.1/SDK/lib_gnu/trap.lib(trap_13D8_inet_addr.o)
                0x000b0fd0                inet_addr
 .text          0x000b0fe0       0x10 C:/Program Files/SDK30/SDK 7.5.1/SDK/lib_gnu/trap.lib(trap_13DC_PppSetOption.o)
                0x000b0fe0                PppSetOption
 .text          0x000b0ff0       0x10 C:/Program Files/SDK30/SDK 7.5.1/SDK/lib_gnu/trap.lib(trap_13E1_fcntlsocketSWI.o)
                0x000b0ff0                fcntlsocketSWI
 .text          0x000b1000       0x10 C:/Program Files/SDK30/SDK 7.5.1/SDK/lib_gnu/trap.lib(trap_13E2_getsockoptSWI.o)
                0x000b1000                getsockoptSWI
 .text          0x000b1010       0x10 C:/Program Files/SDK30/SDK 7.5.1/SDK/lib_gnu/trap.lib(trap_13E3_recvfromSWI.o)
                0x000b1010                recvfromSWI
 .text          0x000b1020       0x10 C:/Program Files/SDK30/SDK 7.5.1/SDK/lib_gnu/trap.lib(trap_13E4_selectsocketSWI.o)
                0x000b1020                selectsocketSWI
 .text          0x000b1030       0x10 C:/Program Files/SDK30/SDK 7.5.1/SDK/lib_gnu/trap.lib(trap_13E5_sendtoSWI.o)
                0x000b1030                sendtoSWI
 .text          0x000b1040       0x10 C:/Program Files/SDK30/SDK 7.5.1/SDK/lib_gnu/trap.lib(trap_13E6_setsockoptSWI.o)
                0x000b1040                setsockoptSWI
 .text          0x000b1050       0x10 C:/Program Files/SDK30/SDK 7.5.1/SDK/lib_gnu/trap.lib(trap_13E7_ngOSGetErrno.o)
                0x000b1050                ngOSGetErrno
 .text          0x000b1060       0x10 C:/Program Files/SDK30/SDK 7.5.1/SDK/lib_gnu/trap.lib(trap_13E8_ngOSSetErrno.o)
                0x000b1060                ngOSSetErrno
 .text          0x000b1070       0x10 C:/Program Files/SDK30/SDK 7.5.1/SDK/lib_gnu/trap.lib(trap_13E9_ngResolvSetOption.o)
                0x000b1070                ngResolvSetOption
 .text          0x000b1080       0x10 C:/Program Files/SDK30/SDK 7.5.1/SDK/lib_gnu/trap.lib(trap_13EA_ngResolvGetOption.o)
                0x000b1080                ngResolvGetOption
 .text          0x000b1090       0x10 C:/Program Files/SDK30/SDK 7.5.1/SDK/lib_gnu/trap.lib(trap_13ED_gethostbyaddr_rSWI.o)
                0x000b1090                gethostbyaddr_rSWI
 .text          0x000b10a0       0x10 C:/Program Files/SDK30/SDK 7.5.1/SDK/lib_gnu/trap.lib(trap_13EE_gethostbyname_rSWI.o)
                0x000b10a0                gethostbyname_rSWI
 .text          0x000b10b0       0x10 C:/Program Files/SDK30/SDK 7.5.1/SDK/lib_gnu/trap.lib(trap_141D_ngRouteAdd.o)
                0x000b10b0                ngRouteAdd
 .text          0x000b10c0       0x10 C:/Program Files/SDK30/SDK 7.5.1/SDK/lib_gnu/trap.lib(trap_141E_ngRouteDelete.o)
                0x000b10c0                ngRouteDelete
 .text          0x000b10d0       0x10 C:/Program Files/SDK30/SDK 7.5.1/SDK/lib_gnu/trap.lib(trap_141F_ngRouteDefault.o)
                0x000b10d0                ngRouteDefault
 .text          0x000b10e0       0x10 C:/Program Files/SDK30/SDK 7.5.1/SDK/lib_gnu/trap.lib(trap_142B_EthIfControl.o)
                0x000b10e0                EthIfControl
 .text          0x000b10f0       0x24 C:/Program Files/Ingenico/IngeDev_7/plugins/com.ingenico.ingedev.telium.bin.win32_7.4.1.4/os/win32/GNUARM/arm-elf/lib/thumb/soft/interwork/libc.a(exit.o)
                0x000b10f0                exit
 .text          0x000b1114       0x50 C:/Program Files/Ingenico/IngeDev_7/plugins/com.ingenico.ingedev.telium.bin.win32_7.4.1.4/os/win32/GNUARM/arm-elf/lib/thumb/soft/interwork/libc.a(rand.o)
                0x000b1128                rand
                0x000b1114                srand
 .text          0x000b1164       0x20 C:/Program Files/Ingenico/IngeDev_7/plugins/com.ingenico.ingedev.telium.bin.win32_7.4.1.4/os/win32/GNUARM/arm-elf/lib/thumb/soft/interwork/libc.a(strchr.o)
                0x000b1164                strchr
 .text          0x000b1184       0x14 C:/Program Files/Ingenico/IngeDev_7/plugins/com.ingenico.ingedev.telium.bin.win32_7.4.1.4/os/win32/GNUARM/arm-elf/lib/thumb/soft/interwork/libc.a(strlen.o)
                0x000b1184                strlen
 .text          0x000b1198       0x34 C:/Program Files/Ingenico/IngeDev_7/plugins/com.ingenico.ingedev.telium.bin.win32_7.4.1.4/os/win32/GNUARM/arm-elf/lib/thumb/soft/interwork/libc.a(strstr.o)
                0x000b1198                strstr
 .text          0x000b11cc      0x120 C:/Program Files/Ingenico/IngeDev_7/plugins/com.ingenico.ingedev.telium.bin.win32_7.4.1.4/os/win32/GNUARM/arm-elf/lib/thumb/soft/interwork/libc.a(strtoul.o)
                0x000b12cc                strtoul
                0x000b11cc                _strtoul_r
 .text          0x000b12ec      0x520 C:/Program Files/Ingenico/IngeDev_7/plugins/com.ingenico.ingedev.telium.bin.win32_7.4.1.4/os/win32/GNUARM/arm-elf/lib/thumb/soft/interwork/libc.a(syscalls.o)
                0x000b16e4                _getpid
                0x000b13ac                initialise_monitor_handles
                0x000b17dc                isatty
                0x000b171c                _fstat
                0x000b1658                _open
                0x000b16e8                _sbrk
                0x000b1788                _raise
                0x000b17b8                _times
                0x000b1740                _stat
                0x000b154c                _lseek
                0x000b1778                _link
                0x000b155c                _swiwrite
                0x000b17f8                _rename
                0x000b14cc                _swilseek
                0x000b166c                _swiclose
                0x000b15d0                _swiopen
                0x000b1780                _unlink
                0x000b1584                _write
                0x000b16c8                _kill
                0x000b178c                _gettimeofday
                0x000b1484                _read
                0x000b16b0                _exit
                0x000b17e0                _system
                0x000b145c                _swiread
                0x000b16a0                _close
 .text          0x000b180c       0xc8 C:/Program Files/Ingenico/IngeDev_7/plugins/com.ingenico.ingedev.telium.bin.win32_7.4.1.4/os/win32/GNUARM/arm-elf/lib/thumb/soft/interwork/libc.a(__call_atexit.o)
                0x000b180c                __call_exitprocs
 .text          0x000b18d4        0xc C:/Program Files/Ingenico/IngeDev_7/plugins/com.ingenico.ingedev.telium.bin.win32_7.4.1.4/os/win32/GNUARM/arm-elf/lib/thumb/soft/interwork/libc.a(errno.o)
                0x000b18d4                __errno
 .text          0x000b18e0      0x1a4 C:/Program Files/Ingenico/IngeDev_7/plugins/com.ingenico.ingedev.telium.bin.win32_7.4.1.4/os/win32/GNUARM/arm-elf/lib/thumb/soft/interwork/libc.a(findfp.o)
                0x000b1954                __sinit
                0x000b1918                __sfmoreglue
                0x000b1a38                _cleanup
                0x000b1a28                _cleanup_r
                0x000b1a54                __fp_lock_all
                0x000b1950                __sfp_lock_acquire
                0x000b19b0                __sfp
                0x000b1a6c                __fp_unlock_all
                0x000b19ac                __sfp_lock_release
 .text          0x000b1a84       0xac C:/Program Files/Ingenico/IngeDev_7/plugins/com.ingenico.ingedev.telium.bin.win32_7.4.1.4/os/win32/GNUARM/arm-elf/lib/thumb/soft/interwork/libc.a(fwalk.o)
                0x000b1a84                _fwalk
                0x000b1ad8                _fwalk_reent
 .text          0x000b1b30       0x28 C:/Program Files/Ingenico/IngeDev_7/plugins/com.ingenico.ingedev.telium.bin.win32_7.4.1.4/os/win32/GNUARM/arm-elf/lib/thumb/soft/interwork/libc.a(malloc.o)
                0x000b1b30                malloc
                0x000b1b44                free
 .text          0x000b1b58      0x47c C:/Program Files/Ingenico/IngeDev_7/plugins/com.ingenico.ingedev.telium.bin.win32_7.4.1.4/os/win32/GNUARM/arm-elf/lib/thumb/soft/interwork/libc.a(mallocr.o)
                0x000b1b58                _malloc_r
 .text          0x000b1fd4        0x8 C:/Program Files/Ingenico/IngeDev_7/plugins/com.ingenico.ingedev.telium.bin.win32_7.4.1.4/os/win32/GNUARM/arm-elf/lib/thumb/soft/interwork/libc.a(mlock.o)
                0x000b1fd8                __malloc_unlock
                0x000b1fd4                __malloc_lock
 .text          0x000b1fdc       0x28 C:/Program Files/Ingenico/IngeDev_7/plugins/com.ingenico.ingedev.telium.bin.win32_7.4.1.4/os/win32/GNUARM/arm-elf/lib/thumb/soft/interwork/libc.a(sbrkr.o)
                0x000b1fdc                _sbrk_r
 .text          0x000b2004       0xd0 C:/Program Files/Ingenico/IngeDev_7/plugins/com.ingenico.ingedev.telium.bin.win32_7.4.1.4/os/win32/GNUARM/arm-elf/lib/thumb/soft/interwork/libc.a(stdio.o)
                0x000b2080                __sseek
                0x000b2004                __sread
                0x000b20bc                __sclose
                0x000b203c                __swrite
 .text          0x000b20d4       0x2c C:/Program Files/Ingenico/IngeDev_7/plugins/com.ingenico.ingedev.telium.bin.win32_7.4.1.4/os/win32/GNUARM/arm-elf/lib/thumb/soft/interwork/libc.a(writer.o)
                0x000b20d4                _write_r
 .text          0x000b2100       0x28 C:/Program Files/Ingenico/IngeDev_7/plugins/com.ingenico.ingedev.telium.bin.win32_7.4.1.4/os/win32/GNUARM/arm-elf/lib/thumb/soft/interwork/libc.a(closer.o)
                0x000b2100                _close_r
 .text          0x000b2128      0x244 C:/Program Files/Ingenico/IngeDev_7/plugins/com.ingenico.ingedev.telium.bin.win32_7.4.1.4/os/win32/GNUARM/arm-elf/lib/thumb/soft/interwork/libc.a(freer.o)
                0x000b21d0                _free_r
                0x000b2128                _malloc_trim_r
 .text          0x000b236c       0x2c C:/Program Files/Ingenico/IngeDev_7/plugins/com.ingenico.ingedev.telium.bin.win32_7.4.1.4/os/win32/GNUARM/arm-elf/lib/thumb/soft/interwork/libc.a(lseekr.o)
                0x000b236c                _lseek_r
 .text          0x000b2398       0x2c C:/Program Files/Ingenico/IngeDev_7/plugins/com.ingenico.ingedev.telium.bin.win32_7.4.1.4/os/win32/GNUARM/arm-elf/lib/thumb/soft/interwork/libc.a(readr.o)
                0x000b2398                _read_r
 .text          0x000b23c4      0x100 C:/Program Files/Ingenico/IngeDev_7/plugins/com.ingenico.ingedev.telium.bin.win32_7.4.1.4/os/win32/GNUARM/arm-elf/lib/thumb/soft/interwork/libc.a(reent.o)
                0x000b23c4                cleanup_glue
                0x000b23e4                _reclaim_reent
                0x000b2478                _wrapup_reent
 .text          0x000b24c4       0x7c C:/Program Files/Ingenico/IngeDev_7/plugins/com.ingenico.ingedev.telium.bin.win32_7.4.1.4/os/win32/GNUARM/lib/gcc/arm-elf/3.4.3/thumb/soft/interwork/libgcc.a(_udivsi3.o)
                0x000b24c4                __udivsi3
 .text          0x000b2540       0x94 C:/Program Files/Ingenico/IngeDev_7/plugins/com.ingenico.ingedev.telium.bin.win32_7.4.1.4/os/win32/GNUARM/lib/gcc/arm-elf/3.4.3/thumb/soft/interwork/libgcc.a(_divsi3.o)
                0x000b2540                __divsi3
 .text          0x000b25d4       0xc8 C:/Program Files/Ingenico/IngeDev_7/plugins/com.ingenico.ingedev.telium.bin.win32_7.4.1.4/os/win32/GNUARM/lib/gcc/arm-elf/3.4.3/thumb/soft/interwork/libgcc.a(_umodsi3.o)
                0x000b25d4                __umodsi3
 .text          0x000b269c       0xd8 C:/Program Files/Ingenico/IngeDev_7/plugins/com.ingenico.ingedev.telium.bin.win32_7.4.1.4/os/win32/GNUARM/lib/gcc/arm-elf/3.4.3/thumb/soft/interwork/libgcc.a(_modsi3.o)
                0x000b269c                __modsi3
 .text          0x000b2774        0x4 C:/Program Files/Ingenico/IngeDev_7/plugins/com.ingenico.ingedev.telium.bin.win32_7.4.1.4/os/win32/GNUARM/lib/gcc/arm-elf/3.4.3/thumb/soft/interwork/libgcc.a(_dvmd_tls.o)
                0x000b2774                __div0
 .text          0x000b2778       0x3c C:/Program Files/Ingenico/IngeDev_7/plugins/com.ingenico.ingedev.telium.bin.win32_7.4.1.4/os/win32/GNUARM/lib/gcc/arm-elf/3.4.3/thumb/soft/interwork/libgcc.a(_call_via_rX.o)
                0x000b2780                _call_via_r2
                0x000b2790                _call_via_r6
                0x000b278c                _call_via_r5
                0x000b2784                _call_via_r3
                0x000b27a4                _call_via_fp
                0x000b2798                _call_via_r8
                0x000b2794                _call_via_r7
                0x000b2778                _call_via_r0
                0x000b27a0                _call_via_sl
                0x000b27ac                _call_via_sp
                0x000b279c                _call_via_r9
                0x000b2788                _call_via_r4
                0x000b277c                _call_via_r1
                0x000b27a8                _call_via_ip
                0x000b27b0                _call_via_lr
 .text          0x000b27b4       0x78 C:/Program Files/Ingenico/IngeDev_7/plugins/com.ingenico.ingedev.telium.bin.win32_7.4.1.4/os/win32/GNUARM/lib/gcc/arm-elf/3.4.3/thumb/soft/interwork/libgcc.a(_muldi3.o)
                0x000b27b4                __muldi3
 *(.gnu.linkonce.t.*)
 *(.strings .strings.*)
 *(.glue_7)
 *(.glue_7t)
 *(.gcc_except_table)

.eh_frame
 *(.eh_frame)

.jcr
 *(.jcr)

.ctors          0x000b282c        0x0
                0x000b282c                __ctors_start = .
 *(SORT(.ctors.*))
 *(.ctors)
                0x000b282c                __ctors_end = .

.dtors          0x000b282c        0x0
                0x000b282c                __dtors_start = .
 *(SORT(.dtors.*))
 *(.dtors)
                0x000b282c                __dtors_end = .

.rodata         0x000b282c    0x1a01d
 *(.rodata .rodata.*)
 .rodata        0x000b282c      0x210 Obj/DEBUG_T1/tbx.o
 .rodata        0x000b2a3c      0x250 Obj/DEBUG_T1/tlm.o
 .rodata        0x000b2c8c      0x1b4 Obj/DEBUG_T1/tlmhmi.o
 .rodata        0x000b2e40       0xe0 Obj/DEBUG_T1/tlmmem.o
 .rodata        0x000b2f20      0x2a0 Obj/DEBUG_T1/std.o
 .rodata        0x000b31c0       0x10 Obj/DEBUG_T1/fmt.o
 .rodata        0x000b31d0      0x180 Obj/DEBUG_T1/dba.o
 .rodata        0x000b3350      0x274 Obj/DEBUG_T1/drv.o
 .rodata        0x000b35c4      0xbcc Obj/DEBUG_T1/dlg.o
 .rodata        0x000b4190       0xfc Obj/DEBUG_T1/Main.o
 .rodata        0x000b428c      0xb08 Obj/DEBUG_T1/sgm.o
                0x000b428c                __BMP_briLogo
 .rodata        0x000b4d94       0x74 Obj/DEBUG_T1/map.o
 .rodata        0x000b4e08     0x6a84 Obj/DEBUG_T1/dft.o
 .rodata        0x000bb88c      0x3cc Obj/DEBUG_T1/rpt.o
 .rodata        0x000bbc58      0x17c Obj/DEBUG_T1/scr.o
 .rodata        0x000bbdd4     0x12e0 Obj/DEBUG_T1/str.o
                0x000bc9cc                __BMP_
 .rodata        0x000bd0b4      0x818 Obj/DEBUG_T1/hdl.o
 .rodata        0x000bd8cc      0x168 Obj/DEBUG_T1/val.o
 .rodata        0x000bda34      0x6b4 Obj/DEBUG_T1/adm.o
 .rodata        0x000be0e8      0x314 Obj/DEBUG_T1/emv.o
 .rodata        0x000be3fc      0x700 Obj/DEBUG_T1/function.o
 .rodata        0x000beafc      0x1c8 Obj/DEBUG_T1/log.o
 .rodata        0x000becc4       0x7c Obj/DEBUG_T1/onl.o
 .rodata        0x000bed40     0x20c0 Obj/DEBUG_T1/pmt.o
 .rodata        0x000c0e00      0xa5c Obj/DEBUG_T1/req.o
 .rodata        0x000c185c       0x48 Obj/DEBUG_T1/rev.o
 .rodata        0x000c18a4      0xb04 Obj/DEBUG_T1/rsp.o
 .rodata        0x000c23a8      0x464 Obj/DEBUG_T1/tle.o
 .rodata        0x000c280c      0x600 Obj/DEBUG_T1/tlmchn.o
 .rodata        0x000c2e0c       0xb0 Obj/DEBUG_T1/tlmcry.o
 .rodata        0x000c2ebc      0x2dc Obj/DEBUG_T1/tlmemv.o
 .rodata        0x000c3198     0x74d8 Obj/DEBUG_T1/BRI.o
 .rodata        0x000ca670      0x200 Obj/DEBUG_T1/LineEncryption.o
 .rodata        0x000ca870      0x800 Obj/DEBUG_T1/AES.o
 .rodata        0x000cb070      0x1c4 Obj/DEBUG_T1/keyinject.o
 .rodata        0x000cb234      0x844 Obj/DEBUG_T1/prepaid.o
 .rodata        0x000cba78       0xa8 Obj/DEBUG_T1/logon.o
 .rodata        0x000cbb20        0x8 Obj/DEBUG_T1/prsa.o
 .rodata        0x000cbb28      0x2b4 Obj/DEBUG_T1/bignum.o
 .rodata        0x000cbddc       0x14 libs/GNU_ARM_DEBUG/RSA.lib(m_mem.o)
 .rodata.str1.4
                0x000cbdf0        0xd C:/Program Files/SDK30/SDK 7.5.1/SDK/lib_gnu/eft30.lib(iam1.o)
                                 0x10 (size before relaxing)
 *fill*         0x000cbdfd        0x3 00
 .rodata.str1.4
                0x000cbe00        0xc C:/Program Files/SDK30/SDK 7.5.1/SDK/lib_gnu/eft30.lib(extens119.o)
 .rodata.str1.4
                0x000cbe0c        0xd C:/Program Files/SDK30/SDK 7.5.1/SDK/lib_gnu/eft30.lib(extens5.o)
                                 0x10 (size before relaxing)
 *fill*         0x000cbe19        0x3 00
 .rodata.str1.4
                0x000cbe1c        0x9 C:/Program Files/SDK30/SDK 7.5.1/SDK/lib_gnu/eft30.lib(extens53.o)
                                  0xc (size before relaxing)
 *fill*         0x000cbe25        0x3 00
 .rodata.str1.4
                0x000cbe28       0x20 C:/Program Files/SDK30/SDK 7.5.1/SDK/lib_gnu/eft30.lib(extens87.o)
 .rodata.str1.4
                0x000cbe48       0x11 C:/Program Files/SDK30/SDK 7.5.1/SDK/lib_gnu/eft30.lib(extens89.o)
                                 0x14 (size before relaxing)
 *fill*         0x000cbe59        0x3 00
 .rodata.str1.4
                0x000cbe5c       0x12 C:/Program Files/SDK30/SDK 7.5.1/SDK/lib_gnu/eft30.lib(extens90.o)
                                 0x14 (size before relaxing)
 *fill*         0x000cbe6e        0x2 00
 .rodata.str1.4
                0x000cbe70        0xd C:/Program Files/SDK30/SDK 7.5.1/SDK/lib_gnu/eft30.lib(extens93.o)
                                 0x10 (size before relaxing)
 *fill*         0x000cbe7d        0x3 00
 .rodata.str1.4
                0x000cbe80        0xe C:/Program Files/SDK30/SDK 7.5.1/SDK/lib_gnu/eft30.lib(extens94.o)
                                 0x10 (size before relaxing)
 *fill*         0x000cbe8e        0x2 00
 .rodata.str1.4
                0x000cbe90       0x13 C:/Program Files/SDK30/SDK 7.5.1/SDK/lib_gnu/eft30.lib(param17.o)
                                 0x14 (size before relaxing)
 *fill*         0x000cbea3        0x1 00
 .rodata.str1.4
                0x000cbea4       0x1b C:/Program Files/SDK30/SDK 7.5.1/SDK/lib_gnu/eft30.lib(param46.o)
                                 0x1c (size before relaxing)
 *fill*         0x000cbebf        0x1 00
 .rodata.str1.4
                0x000cbec0       0x17 C:/Program Files/SDK30/SDK 7.5.1/SDK/lib_gnu/eft30.lib(param72.o)
                                 0x18 (size before relaxing)
 *fill*         0x000cbed7        0x1 00
 .rodata.str1.4
                0x000cbed8      0x219 C:/Program Files/SDK30/SDK 7.5.1/SDK/lib_gnu/eft30.lib(crypto.o)
                                0x22c (size before relaxing)
 *fill*         0x000cc0f1        0x3 00
 .rodata.str1.4
                0x000cc0f4        0xe C:/Program Files/SDK30/SDK 7.5.1/SDK/lib_gnu/eft30.lib(pinpad10.o)
                                 0x10 (size before relaxing)
 *fill*         0x000cc102        0x2 00
 .rodata.str1.4
                0x000cc104       0x14 C:/Program Files/SDK30/SDK 7.5.1/SDK/lib_gnu/eft30.lib(pinpad12.o)
 .rodata.str1.4
                0x000cc118       0x12 C:/Program Files/SDK30/SDK 7.5.1/SDK/lib_gnu/eft30.lib(pinpad15.o)
                                 0x14 (size before relaxing)
 *fill*         0x000cc12a        0x2 00
 .rodata.str1.4
                0x000cc12c        0xc C:/Program Files/SDK30/SDK 7.5.1/SDK/lib_gnu/eft30.lib(pinpad8.o)
 .rodata.str1.4
                0x000cc138        0xe C:/Program Files/SDK30/SDK 7.5.1/SDK/lib_gnu/eft30.lib(pinpad9.o)
                                 0x10 (size before relaxing)
 *fill*         0x000cc146        0x2 00
 .rodata.str1.4
                0x000cc148       0x11 C:/Program Files/SDK30/SDK 7.5.1/SDK/lib_gnu/eft30.lib(sv21.o)
                                 0x14 (size before relaxing)
 *fill*         0x000cc159        0x3 00
 .rodata.str1.4
                0x000cc15c       0x12 C:/Program Files/SDK30/SDK 7.5.1/SDK/lib_gnu/eft30.lib(sv22.o)
                                 0x14 (size before relaxing)
 *fill*         0x000cc16e        0x2 00
 .rodata.str1.4
                0x000cc170        0xc C:/Program Files/SDK30/SDK 7.5.1/SDK/lib_gnu/eft30.lib(sv23.o)
 .rodata.str1.4
                0x000cc17c        0xd C:/Program Files/SDK30/SDK 7.5.1/SDK/lib_gnu/eft30.lib(sv24.o)
                                 0x10 (size before relaxing)
 *fill*         0x000cc189        0x3 00
 .rodata.str1.4
                0x000cc18c        0xe C:/Program Files/SDK30/SDK 7.5.1/SDK/lib_gnu/eft30.lib(sv25.o)
                                 0x10 (size before relaxing)
 *fill*         0x000cc19a        0x2 00
 .rodata.str1.4
                0x000cc19c       0x1f C:/Program Files/SDK30/SDK 7.5.1/SDK/lib_gnu/eft30.lib(libgr1.o)
                                 0x20 (size before relaxing)
 *fill*         0x000cc1bb        0x1 00
 .rodata.str1.4
                0x000cc1bc        0x8 C:/Program Files/SDK30/SDK 7.5.1/SDK/lib_gnu/eft30.lib(libgr35.o)
 .rodata.str1.4
                0x000cc1c4       0x16 C:/Program Files/SDK30/SDK 7.5.1/SDK/lib_gnu/eft30.lib(libgr40.o)
                                 0x18 (size before relaxing)
 *fill*         0x000cc1da        0x2 00
 .rodata.str1.4
                0x000cc1dc        0xe C:/Program Files/SDK30/SDK 7.5.1/SDK/lib_gnu/eft30.lib(libgr41.o)
                                 0x10 (size before relaxing)
 *fill*         0x000cc1ea        0x2 00
 .rodata.str1.4
                0x000cc1ec        0xf C:/Program Files/SDK30/SDK 7.5.1/SDK/lib_gnu/eft30.lib(libgr49.o)
                                 0x10 (size before relaxing)
 *fill*         0x000cc1fb        0x1 00
 .rodata.str1.4
                0x000cc1fc        0xf C:/Program Files/SDK30/SDK 7.5.1/SDK/lib_gnu/eft30.lib(libgr54.o)
                                 0x10 (size before relaxing)
 *fill*         0x000cc20b        0x1 00
 .rodata.str1.4
                0x000cc20c       0x17 C:/Program Files/SDK30/SDK 7.5.1/SDK/lib_gnu/eft30.lib(libgr55.o)
                                 0x18 (size before relaxing)
 *fill*         0x000cc223        0x1 00
 .rodata.str1.4
                0x000cc224        0xc C:/Program Files/SDK30/SDK 7.5.1/SDK/lib_gnu/eft30.lib(libgr58.o)
 .rodata.str1.4
                0x000cc230       0x16 C:/Program Files/SDK30/SDK 7.5.1/SDK/lib_gnu/eft30.lib(libgr66.o)
                                 0x18 (size before relaxing)
 *fill*         0x000cc246        0x2 00
 .rodata.str1.4
                0x000cc248        0x9 C:/Program Files/SDK30/SDK 7.5.1/SDK/lib_gnu/eft30.lib(libgr68.o)
                                  0xc (size before relaxing)
 *fill*         0x000cc251        0x3 00
 .rodata.str1.4
                0x000cc254        0xf C:/Program Files/SDK30/SDK 7.5.1/SDK/lib_gnu/eft30.lib(libgr7.o)
                                 0x10 (size before relaxing)
 *fill*         0x000cc263        0x1 00
 .rodata.str1.4
                0x000cc264        0xa C:/Program Files/SDK30/SDK 7.5.1/SDK/lib_gnu/eft30.lib(libgr8.o)
                                  0xc (size before relaxing)
 *fill*         0x000cc26e        0x2 00
 .rodata.str1.4
                0x000cc270       0x15 C:/Program Files/SDK30/SDK 7.5.1/SDK/lib_gnu/eft30.lib(libgr82.o)
                                 0x18 (size before relaxing)
 *fill*         0x000cc285        0x3 00
 .rodata.str1.4
                0x000cc288       0x12 C:/Program Files/SDK30/SDK 7.5.1/SDK/lib_gnu/eft30.lib(libgr83.o)
                                 0x14 (size before relaxing)
 *fill*         0x000cc29a        0x2 00
 .rodata.str1.4
                0x000cc29c        0xf C:/Program Files/SDK30/SDK 7.5.1/SDK/lib_gnu/eft30.lib(libgr86.o)
                                 0x10 (size before relaxing)
 *fill*         0x000cc2ab        0x1 00
 .rodata.str1.4
                0x000cc2ac       0x1c C:/Program Files/SDK30/SDK 7.5.1/SDK/lib_gnu/eft30.lib(gprs.o)
                                 0x24 (size before relaxing)
 .rodata.str1.4
                0x000cc2c8       0x21 C:/Program Files/SDK30/SDK 7.5.1/SDK/lib_gnu/eft30.lib(LibAppli.o)
                                 0x28 (size before relaxing)
 *fill*         0x000cc2e9        0x3 00
 .rodata.str1.4
                0x000cc2ec        0x4 C:/Program Files/SDK30/SDK 7.5.1/SDK/lib_gnu/eft30.lib(iam.o)
                                  0xc (size before relaxing)
 .rodata        0x000cc2f0      0x100 C:/Program Files/SDK30/SDK 7.5.1/SDK/lib_gnu/eft30.lib(ctype.o)
                0x000cc2f0                _ctype2_
 .rodata.str1.4
                0x000cc3f0        0x7 C:/Program Files/SDK30/SDK 7.5.1/SDK/lib_gnu/eft30.lib(extens.o)
                                 0x10 (size before relaxing)
 *fill*         0x000cc3f7        0x1 00
 .rodata.str1.4
                0x000cc3f8        0x6 C:/Program Files/SDK30/SDK 7.5.1/SDK/lib_gnu/eft30.lib(param.o)
                                 0x10 (size before relaxing)
 *fill*         0x000cc3fe        0x2 00
 .rodata.str1.4
                0x000cc400        0x7 C:/Program Files/SDK30/SDK 7.5.1/SDK/lib_gnu/eft30.lib(pinpad.o)
                                 0x10 (size before relaxing)
 *fill*         0x000cc407        0x1 00
 .rodata.str1.4
                0x000cc408        0x3 C:/Program Files/SDK30/SDK 7.5.1/SDK/lib_gnu/eft30.lib(sv.o)
                                  0xc (size before relaxing)
 *fill*         0x000cc40b        0x1 00
 .rodata.str1.4
                0x000cc40c        0x6 C:/Program Files/SDK30/SDK 7.5.1/SDK/lib_gnu/eft30.lib(libgr.o)
                                 0x10 (size before relaxing)
 *fill*         0x000cc412        0x2 00
 .rodata.str1.4
                0x000cc414       0xc1 C:/Program Files/SDK30/SDK 7.5.1/SDK/lib_gnu/AVL.lib(Serializer_Xml.o)
                                 0xc4 (size before relaxing)
 *fill*         0x000cc4d5        0x3 00
 .rodata.str1.4
                0x000cc4d8       0x27 C:/Program Files/SDK30/SDK 7.5.1/SDK/lib_gnu/AVL.lib(XMLs_ProcessData.o)
                                 0x28 (size before relaxing)
 *fill*         0x000cc4ff        0x1 00
 .rodata.str1.4
                0x000cc500       0xc4 C:/Program Files/SDK30/SDK 7.5.1/SDK/lib_gnu/LinkLayerExeInterface.lib(LinkLayerServices.o)
                                 0xc8 (size before relaxing)
 .rodata        0x000cc5c4        0xc C:/Program Files/SDK30/SDK 7.5.1/SDK/lib_gnu/SEC.lib(SECLibOpenClose.o)
 .rodata.str1.4
                0x000cc5d0        0x5 C:/Program Files/SDK30/SDK 7.5.1/SDK/lib_gnu/SEC.lib(SECLibOpenClose.o)
                                 0x10 (size before relaxing)
 *fill*         0x000cc5d5        0x3 00
 .rodata.str1.4
                0x000cc5d8        0xc C:/Program Files/SDK30/SDK 7.5.1/SDK/lib_gnu/SEC.lib(SEC1.o)
 .rodata.str1.4
                0x000cc5e4        0xc C:/Program Files/SDK30/SDK 7.5.1/SDK/lib_gnu/SEC.lib(SEC7.o)
 .rodata.str1.4
                0x000cc5f0        0xe C:/Program Files/SDK30/SDK 7.5.1/SDK/lib_gnu/SEC.lib(SEC8.o)
                                 0x10 (size before relaxing)
 *fill*         0x000cc5fe        0x2 00
 .rodata.str1.4
                0x000cc600        0xe C:/Program Files/SDK30/SDK 7.5.1/SDK/lib_gnu/SEC.lib(SEC9.o)
                                 0x10 (size before relaxing)
 *fill*         0x000cc60e        0x2 00
 .rodata.str1.4
                0x000cc610       0x11 C:/Program Files/SDK30/SDK 7.5.1/SDK/lib_gnu/SEC.lib(SEC10.o)
                                 0x14 (size before relaxing)
 *fill*         0x000cc621        0x3 00
 .rodata.str1.4
                0x000cc624       0x11 C:/Program Files/SDK30/SDK 7.5.1/SDK/lib_gnu/SEC.lib(SEC11.o)
                                 0x14 (size before relaxing)
 *fill*         0x000cc635        0x3 00
 .rodata.str1.4
                0x000cc638       0x15 C:/Program Files/SDK30/SDK 7.5.1/SDK/lib_gnu/SEC.lib(SEC19.o)
                                 0x18 (size before relaxing)
 *fill*         0x000cc64d        0x3 00
 .rodata.str1.4
                0x000cc650        0xf C:/Program Files/SDK30/SDK 7.5.1/SDK/lib_gnu/SEC.lib(SEC20.o)
                                 0x10 (size before relaxing)
 *fill*         0x000cc65f        0x1 00
 .rodata.str1.4
                0x000cc660        0xc C:/Program Files/SDK30/SDK 7.5.1/SDK/lib_gnu/SEC.lib(SEC21.o)
 .rodata.str1.4
                0x000cc66c       0x11 C:/Program Files/SDK30/SDK 7.5.1/SDK/lib_gnu/SEC.lib(SEC22.o)
                                 0x14 (size before relaxing)
 *fill*         0x000cc67d        0x3 00
 .rodata.str1.4
                0x000cc680        0xd C:/Program Files/SDK30/SDK 7.5.1/SDK/lib_gnu/SEC.lib(SEC23.o)
                                 0x10 (size before relaxing)
 *fill*         0x000cc68d        0x3 00
 .rodata.str1.4
                0x000cc690        0xc C:/Program Files/SDK30/SDK 7.5.1/SDK/lib_gnu/SEC.lib(SEC24.o)
 .rodata.str1.4
                0x000cc69c       0x11 C:/Program Files/SDK30/SDK 7.5.1/SDK/lib_gnu/SEC.lib(SEC25.o)
                                 0x14 (size before relaxing)
 *fill*         0x000cc6ad        0x3 00
 .rodata.str1.4
                0x000cc6b0       0x1b C:/Program Files/SDK30/SDK 7.5.1/SDK/lib_gnu/SEC.lib(SEC26.o)
                                 0x1c (size before relaxing)
 *fill*         0x000cc6cb        0x1 00
 .rodata.str1.4
                0x000cc6cc       0x1c C:/Program Files/SDK30/SDK 7.5.1/SDK/lib_gnu/SEC.lib(SEC28.o)
 .rodata.str1.4
                0x000cc6e8       0x14 C:/Program Files/SDK30/SDK 7.5.1/SDK/lib_gnu/SEC.lib(SEC31.o)
 .rodata.str1.4
                0x000cc6fc        0xe C:/Program Files/SDK30/SDK 7.5.1/SDK/lib_gnu/SEC.lib(SEC32.o)
                                 0x10 (size before relaxing)
 *fill*         0x000cc70a        0x2 00
 .rodata.str1.4
                0x000cc70c        0xf C:/Program Files/SDK30/SDK 7.5.1/SDK/lib_gnu/SEC.lib(SEC34.o)
                                 0x10 (size before relaxing)
 *fill*         0x000cc71b        0x1 00
 .rodata.str1.4
                0x000cc71c       0x11 C:/Program Files/SDK30/SDK 7.5.1/SDK/lib_gnu/SEC.lib(SEC37.o)
                                 0x14 (size before relaxing)
 *fill*         0x000cc72d        0x3 00
 .rodata.str1.4
                0x000cc730        0xc C:/Program Files/SDK30/SDK 7.5.1/SDK/lib_gnu/IP_.lib(IP.o)
 .rodata        0x000cc73c        0x4 C:/Program Files/Ingenico/IngeDev_7/plugins/com.ingenico.ingedev.telium.bin.win32_7.4.1.4/os/win32/GNUARM/arm-elf/lib/thumb/soft/interwork/libc.a(impure.o)
                0x000cc73c                _global_impure_ptr
 .rodata.str1.4
                0x000cc740        0x2 C:/Program Files/Ingenico/IngeDev_7/plugins/com.ingenico.ingedev.telium.bin.win32_7.4.1.4/os/win32/GNUARM/arm-elf/lib/thumb/soft/interwork/libc.a(impure.o)
                                  0x4 (size before relaxing)
 *fill*         0x000cc742        0x2 00
 .rodata.str1.4
                0x000cc744        0x4 C:/Program Files/Ingenico/IngeDev_7/plugins/com.ingenico.ingedev.telium.bin.win32_7.4.1.4/os/win32/GNUARM/arm-elf/lib/thumb/soft/interwork/libc.a(syscalls.o)
 .rodata        0x000cc748      0x101 C:/Program Files/Ingenico/IngeDev_7/plugins/com.ingenico.ingedev.telium.bin.win32_7.4.1.4/os/win32/GNUARM/arm-elf/lib/thumb/soft/interwork/libc.a(ctype_.o)
                0x000cc748                _ctype_
 *(.gnu.linkonce.r.*)
                0x000cc849                __text_end = .
                0x00200000                . = 0x200000

.data           0x00200000     0xb798 load address 0x000cc849
                0x00200000                __data_start = .
 *(.data .data.*)
 .data          0x00200000       0x18 Obj/DEBUG_T1/tlmhmi.o
 .data          0x00200018        0xc Obj/DEBUG_T1/tlmmem.o
 .data          0x00200024     0x2ce0 Obj/DEBUG_T1/map.o
 .data          0x00202d04     0x40a4 Obj/DEBUG_T1/dft.o
 .data          0x00206da8     0x33f8 Obj/DEBUG_T1/rpt.o
 .data          0x0020a1a0      0x480 Obj/DEBUG_T1/scr.o
 .data          0x0020a620      0x100 Obj/DEBUG_T1/iso.o
 .data          0x0020a720       0xd0 Obj/DEBUG_T1/log.o
 .data          0x0020a7f0        0x1 Obj/DEBUG_T1/req.o
 *fill*         0x0020a7f1        0x1 00
 .data          0x0020a7f2       0x5a Obj/DEBUG_T1/rev.o
 .data          0x0020a84c        0x9 Obj/DEBUG_T1/tlmcry.o
 *fill*         0x0020a855        0x1 00
 .data          0x0020a856      0x2c0 Obj/DEBUG_T1/BRI.o
 .data          0x0020ab16       0x40 Obj/DEBUG_T1/LineEncryption.o
                0x0020ab16                encryptedField
 *fill*         0x0020ab56        0x2 00
 .data          0x0020ab58      0x3fc Obj/DEBUG_T1/AES.o
                0x0020ab58                Rcon
 .data          0x0020af54       0x28 C:/Program Files/SDK30/SDK 7.5.1/SDK/lib_gnu/AVL.lib(XMLs_ProcessData.o)
 .data          0x0020af7c        0x3 C:/Program Files/SDK30/SDK 7.5.1/SDK/lib_gnu/SEC.lib(SECLibOpenClose.o)
 *fill*         0x0020af7f        0x1 00
 .data          0x0020af80      0x404 C:/Program Files/Ingenico/IngeDev_7/plugins/com.ingenico.ingedev.telium.bin.win32_7.4.1.4/os/win32/GNUARM/arm-elf/lib/thumb/soft/interwork/libc.a(impure.o)
                0x0020b380                _impure_ptr
 .data          0x0020b384        0x4 C:/Program Files/Ingenico/IngeDev_7/plugins/com.ingenico.ingedev.telium.bin.win32_7.4.1.4/os/win32/GNUARM/arm-elf/lib/thumb/soft/interwork/libc.a(ctype_.o)
                0x0020b384                __ctype_ptr
 .data          0x0020b388      0x410 C:/Program Files/Ingenico/IngeDev_7/plugins/com.ingenico.ingedev.telium.bin.win32_7.4.1.4/os/win32/GNUARM/arm-elf/lib/thumb/soft/interwork/libc.a(mallocr.o)
                0x0020b388                __malloc_sbrk_base
                0x0020b390                __malloc_av_
                0x0020b38c                __malloc_trim_threshold
 *(.gnu.linkonce.d.*)
                0x0020b798                __data_end = .

.bss            0x0020b798    0x2b7cc
                0x0020b798                __bss_start = .
 *(.bss .bss.*)
 .bss           0x0020b798        0x8 Obj/DEBUG_T1/tbx.o
 .bss           0x0020b7a0      0x144 Obj/DEBUG_T1/tlm.o
 .bss           0x0020b8e4       0x14 Obj/DEBUG_T1/tlmhmi.o
 .bss           0x0020b8f8       0x4c Obj/DEBUG_T1/tlmmem.o
 .bss           0x0020b944        0x4 Obj/DEBUG_T1/dba.o
 .bss           0x0020b948        0x2 Obj/DEBUG_T1/dlg.o
 *fill*         0x0020b94a        0x2 00
 .bss           0x0020b94c      0x418 Obj/DEBUG_T1/sgm.o
                0x0020b94c                testHandle
 .bss           0x0020bd64     0x9e10 Obj/DEBUG_T1/map.o
 .bss           0x00215b74        0x1 Obj/DEBUG_T1/hdl.o
 .bss           0x00215b75        0x2 Obj/DEBUG_T1/adm.o
 .bss           0x00215b77        0x1 Obj/DEBUG_T1/emv.o
                0x00215b77                goOnline
 .bss           0x00215b78        0x1 Obj/DEBUG_T1/log.o
 .bss           0x00215b79       0x12 Obj/DEBUG_T1/onl.o
 .bss           0x00215b8b        0x1 Obj/DEBUG_T1/pmt.o
 .bss           0x00215b8c        0x2 Obj/DEBUG_T1/req.o
                0x00215b8c                txnAsli
 *fill*         0x00215b8e        0x2 00
 .bss           0x00215b90    0x10008 Obj/DEBUG_T1/rsp.o
 .bss           0x00225b98       0x12 Obj/DEBUG_T1/tle.o
 *fill*         0x00225baa        0x2 00
 .bss           0x00225bac       0x4c Obj/DEBUG_T1/tlmchn.o
 .bss           0x00225bf8        0xc Obj/DEBUG_T1/tlmcry.o
 .bss           0x00225c04    0x10c3c Obj/DEBUG_T1/tlmemv.o
 .bss           0x00236840       0xfa Obj/DEBUG_T1/BRI.o
 *fill*         0x0023693a        0x2 00
 .bss           0x0023693c      0x108 Obj/DEBUG_T1/AES.o
 .bss           0x00236a44       0x30 Obj/DEBUG_T1/keyinject.o
 .bss           0x00236a74        0x4 Obj/DEBUG_T1/timing.o
                0x00236a74                alarmed
 .bss           0x00236a78        0xc libs/GNU_ARM_DEBUG/RSA.lib(m_mem.o)
 .bss           0x00236a84        0x2 libs/GNU_ARM_DEBUG/RSA.lib(m_rand.o)
 *fill*         0x00236a86        0x2 00
 .bss           0x00236a88        0x4 C:/Program Files/SDK30/SDK 7.5.1/SDK/lib_gnu/eft30.lib(iam1.o)
 .bss           0x00236a8c        0x4 C:/Program Files/SDK30/SDK 7.5.1/SDK/lib_gnu/eft30.lib(extens119.o)
 .bss           0x00236a90        0x4 C:/Program Files/SDK30/SDK 7.5.1/SDK/lib_gnu/eft30.lib(extens5.o)
 .bss           0x00236a94        0x4 C:/Program Files/SDK30/SDK 7.5.1/SDK/lib_gnu/eft30.lib(extens53.o)
 .bss           0x00236a98        0x8 C:/Program Files/SDK30/SDK 7.5.1/SDK/lib_gnu/eft30.lib(extens87.o)
 .bss           0x00236aa0        0x4 C:/Program Files/SDK30/SDK 7.5.1/SDK/lib_gnu/eft30.lib(extens89.o)
 .bss           0x00236aa4        0x4 C:/Program Files/SDK30/SDK 7.5.1/SDK/lib_gnu/eft30.lib(extens90.o)
 .bss           0x00236aa8        0x4 C:/Program Files/SDK30/SDK 7.5.1/SDK/lib_gnu/eft30.lib(extens93.o)
 .bss           0x00236aac        0x4 C:/Program Files/SDK30/SDK 7.5.1/SDK/lib_gnu/eft30.lib(extens94.o)
 .bss           0x00236ab0        0x4 C:/Program Files/SDK30/SDK 7.5.1/SDK/lib_gnu/eft30.lib(param17.o)
 .bss           0x00236ab4        0x4 C:/Program Files/SDK30/SDK 7.5.1/SDK/lib_gnu/eft30.lib(param46.o)
 .bss           0x00236ab8        0x4 C:/Program Files/SDK30/SDK 7.5.1/SDK/lib_gnu/eft30.lib(param72.o)
 .bss           0x00236abc       0x9c C:/Program Files/SDK30/SDK 7.5.1/SDK/lib_gnu/eft30.lib(crypto.o)
 .bss           0x00236b58        0x4 C:/Program Files/SDK30/SDK 7.5.1/SDK/lib_gnu/eft30.lib(pinpad10.o)
 .bss           0x00236b5c        0x4 C:/Program Files/SDK30/SDK 7.5.1/SDK/lib_gnu/eft30.lib(pinpad12.o)
 .bss           0x00236b60        0x4 C:/Program Files/SDK30/SDK 7.5.1/SDK/lib_gnu/eft30.lib(pinpad15.o)
 .bss           0x00236b64        0x4 C:/Program Files/SDK30/SDK 7.5.1/SDK/lib_gnu/eft30.lib(pinpad8.o)
 .bss           0x00236b68        0x4 C:/Program Files/SDK30/SDK 7.5.1/SDK/lib_gnu/eft30.lib(pinpad9.o)
 .bss           0x00236b6c        0x4 C:/Program Files/SDK30/SDK 7.5.1/SDK/lib_gnu/eft30.lib(sv21.o)
 .bss           0x00236b70        0x4 C:/Program Files/SDK30/SDK 7.5.1/SDK/lib_gnu/eft30.lib(sv22.o)
 .bss           0x00236b74        0x4 C:/Program Files/SDK30/SDK 7.5.1/SDK/lib_gnu/eft30.lib(sv23.o)
 .bss           0x00236b78        0x4 C:/Program Files/SDK30/SDK 7.5.1/SDK/lib_gnu/eft30.lib(sv24.o)
 .bss           0x00236b7c        0x4 C:/Program Files/SDK30/SDK 7.5.1/SDK/lib_gnu/eft30.lib(sv25.o)
 .bss           0x00236b80        0x8 C:/Program Files/SDK30/SDK 7.5.1/SDK/lib_gnu/eft30.lib(libgr1.o)
 .bss           0x00236b88        0x4 C:/Program Files/SDK30/SDK 7.5.1/SDK/lib_gnu/eft30.lib(libgr35.o)
 .bss           0x00236b8c        0x4 C:/Program Files/SDK30/SDK 7.5.1/SDK/lib_gnu/eft30.lib(libgr40.o)
 .bss           0x00236b90        0x4 C:/Program Files/SDK30/SDK 7.5.1/SDK/lib_gnu/eft30.lib(libgr41.o)
 .bss           0x00236b94        0x4 C:/Program Files/SDK30/SDK 7.5.1/SDK/lib_gnu/eft30.lib(libgr49.o)
 .bss           0x00236b98        0x4 C:/Program Files/SDK30/SDK 7.5.1/SDK/lib_gnu/eft30.lib(libgr54.o)
 .bss           0x00236b9c        0x4 C:/Program Files/SDK30/SDK 7.5.1/SDK/lib_gnu/eft30.lib(libgr55.o)
 .bss           0x00236ba0        0x4 C:/Program Files/SDK30/SDK 7.5.1/SDK/lib_gnu/eft30.lib(libgr58.o)
 .bss           0x00236ba4        0x4 C:/Program Files/SDK30/SDK 7.5.1/SDK/lib_gnu/eft30.lib(libgr66.o)
 .bss           0x00236ba8        0x4 C:/Program Files/SDK30/SDK 7.5.1/SDK/lib_gnu/eft30.lib(libgr68.o)
 .bss           0x00236bac        0x4 C:/Program Files/SDK30/SDK 7.5.1/SDK/lib_gnu/eft30.lib(libgr7.o)
 .bss           0x00236bb0        0x4 C:/Program Files/SDK30/SDK 7.5.1/SDK/lib_gnu/eft30.lib(libgr8.o)
 .bss           0x00236bb4        0x4 C:/Program Files/SDK30/SDK 7.5.1/SDK/lib_gnu/eft30.lib(libgr82.o)
 .bss           0x00236bb8        0x4 C:/Program Files/SDK30/SDK 7.5.1/SDK/lib_gnu/eft30.lib(libgr83.o)
 .bss           0x00236bbc        0x4 C:/Program Files/SDK30/SDK 7.5.1/SDK/lib_gnu/eft30.lib(libgr86.o)
 .bss           0x00236bc0        0x4 C:/Program Files/SDK30/SDK 7.5.1/SDK/lib_gnu/SEC.lib(SECLibOpenClose.o)
                0x00236bc0                __SEC_DllGetProcAddress
 .bss           0x00236bc4        0x4 C:/Program Files/SDK30/SDK 7.5.1/SDK/lib_gnu/SEC.lib(SEC1.o)
 .bss           0x00236bc8        0x4 C:/Program Files/SDK30/SDK 7.5.1/SDK/lib_gnu/SEC.lib(SEC7.o)
 .bss           0x00236bcc        0x4 C:/Program Files/SDK30/SDK 7.5.1/SDK/lib_gnu/SEC.lib(SEC8.o)
 .bss           0x00236bd0        0x4 C:/Program Files/SDK30/SDK 7.5.1/SDK/lib_gnu/SEC.lib(SEC9.o)
 .bss           0x00236bd4        0x4 C:/Program Files/SDK30/SDK 7.5.1/SDK/lib_gnu/SEC.lib(SEC10.o)
 .bss           0x00236bd8        0x4 C:/Program Files/SDK30/SDK 7.5.1/SDK/lib_gnu/SEC.lib(SEC11.o)
 .bss           0x00236bdc        0x4 C:/Program Files/SDK30/SDK 7.5.1/SDK/lib_gnu/SEC.lib(SEC19.o)
 .bss           0x00236be0        0x4 C:/Program Files/SDK30/SDK 7.5.1/SDK/lib_gnu/SEC.lib(SEC20.o)
 .bss           0x00236be4        0x4 C:/Program Files/SDK30/SDK 7.5.1/SDK/lib_gnu/SEC.lib(SEC21.o)
 .bss           0x00236be8        0x4 C:/Program Files/SDK30/SDK 7.5.1/SDK/lib_gnu/SEC.lib(SEC22.o)
 .bss           0x00236bec        0x4 C:/Program Files/SDK30/SDK 7.5.1/SDK/lib_gnu/SEC.lib(SEC23.o)
 .bss           0x00236bf0        0x4 C:/Program Files/SDK30/SDK 7.5.1/SDK/lib_gnu/SEC.lib(SEC24.o)
 .bss           0x00236bf4        0x4 C:/Program Files/SDK30/SDK 7.5.1/SDK/lib_gnu/SEC.lib(SEC25.o)
 .bss           0x00236bf8        0x4 C:/Program Files/SDK30/SDK 7.5.1/SDK/lib_gnu/SEC.lib(SEC26.o)
 .bss           0x00236bfc        0x4 C:/Program Files/SDK30/SDK 7.5.1/SDK/lib_gnu/SEC.lib(SEC28.o)
 .bss           0x00236c00        0x4 C:/Program Files/SDK30/SDK 7.5.1/SDK/lib_gnu/SEC.lib(SEC31.o)
 .bss           0x00236c04        0x4 C:/Program Files/SDK30/SDK 7.5.1/SDK/lib_gnu/SEC.lib(SEC32.o)
 .bss           0x00236c08        0x4 C:/Program Files/SDK30/SDK 7.5.1/SDK/lib_gnu/SEC.lib(SEC34.o)
 .bss           0x00236c0c        0x4 C:/Program Files/SDK30/SDK 7.5.1/SDK/lib_gnu/SEC.lib(SEC37.o)
 .bss           0x00236c10       0x14 C:/Program Files/SDK30/SDK 7.5.1/SDK/lib_gnu/IP_.lib(IP.o)
 .bss           0x00236c24       0xb4 C:/Program Files/Ingenico/IngeDev_7/plugins/com.ingenico.ingedev.telium.bin.win32_7.4.1.4/os/win32/GNUARM/arm-elf/lib/thumb/soft/interwork/libc.a(syscalls.o)
 .bss           0x00236cd8       0x34 C:/Program Files/Ingenico/IngeDev_7/plugins/com.ingenico.ingedev.telium.bin.win32_7.4.1.4/os/win32/GNUARM/arm-elf/lib/thumb/soft/interwork/libc.a(mallocr.o)
                0x00236d08                __malloc_top_pad
                0x00236d04                __malloc_max_sbrked_mem
                0x00236cd8                __malloc_current_mallinfo
                0x00236d00                __malloc_max_total_mem
 *(.gnu.linkonce.b.*)
 *(COMMON)
 COMMON         0x00236d0c       0x26 Obj/DEBUG_T1/Main.o
                0x00236d0c                EMV_IDLE_SHOW_FLAG
                0x00236d10                EMV_ENTRYMODE
                0x00236d14                EMVFallback
                0x00236d18                EMV_ENTRY_SERVICE_CODE
                0x00236d1c                debugRspFlag
                0x00236d20                EMVIdleFallback
                0x00236d24                debugReqFlag
                0x00236d28                EMVFlagSet
                0x00236d2c                EMV_FALLBACK_IDLE_SHOW
                0x00236d30                EMVFallbackFlagSet
                0x00236d31                debugEmvFlag
 COMMON         0x00236d32       0x20 Obj/DEBUG_T1/tle.o
                0x00236d32                uploadedPrepaidIdx
 COMMON         0x00236d52       0x5b Obj/DEBUG_T1/LineEncryption.o
                0x00236d52                xsec_USK
                0x00236d73                xsec_TLE
                0x00236d84                xsec_UMK
                0x00236da5                xsec_derivation_data
 COMMON         0x00236dad       0x40 Obj/DEBUG_T1/AES.o
                0x00236dad                AESDataIn
                0x00236dbd                AESDataOut
                0x00236dcd                AESKey
 COMMON         0x00236ded      0x104 Obj/DEBUG_T1/keyinject.o
                0x00236ded                serialBuff
 *fill*         0x00236ef1        0x3 00
 COMMON         0x00236ef4       0x4d Obj/DEBUG_T1/prepaid.o
                0x00236ef4                prepaidCom
                0x00236f40                prepaidRespCode
 *fill*         0x00236f41        0x3 00
 COMMON         0x00236f44        0x4 C:/Program Files/SDK30/SDK 7.5.1/SDK/lib_gnu/eft30.lib(gprs.o)
                0x00236f44                DllGetProcAddress13
 COMMON         0x00236f48        0x4 C:/Program Files/SDK30/SDK 7.5.1/SDK/lib_gnu/eft30.lib(iam.o)
                0x00236f48                DllGetProcAddress4
 COMMON         0x00236f4c        0x4 C:/Program Files/SDK30/SDK 7.5.1/SDK/lib_gnu/eft30.lib(extens.o)
                0x00236f4c                DllGetProcAddress3
 COMMON         0x00236f50        0x4 C:/Program Files/SDK30/SDK 7.5.1/SDK/lib_gnu/eft30.lib(param.o)
                0x00236f50                DllGetProcAddress7
 COMMON         0x00236f54        0x4 C:/Program Files/SDK30/SDK 7.5.1/SDK/lib_gnu/eft30.lib(pinpad.o)
                0x00236f54                DllGetProcAddress9
 COMMON         0x00236f58        0x4 C:/Program Files/SDK30/SDK 7.5.1/SDK/lib_gnu/eft30.lib(sv.o)
                0x00236f58                DllGetProcAddress12
 COMMON         0x00236f5c        0x4 C:/Program Files/SDK30/SDK 7.5.1/SDK/lib_gnu/eft30.lib(libgr.o)
                0x00236f5c                DllGetProcAddress6
 COMMON         0x00236f60        0x4 C:/Program Files/Ingenico/IngeDev_7/plugins/com.ingenico.ingedev.telium.bin.win32_7.4.1.4/os/win32/GNUARM/arm-elf/lib/thumb/soft/interwork/libc.a(reent.o)
                0x00236f60                errno
                0x00236f64                __bss_end = .
                0x00236f64                PROVIDE (end, .)
LOAD Obj/DEBUG_T1/trc.o
LOAD Obj/DEBUG_T1/tbx.o
LOAD Obj/DEBUG_T1/tlm.o
LOAD Obj/DEBUG_T1/tlmhmi.o
LOAD Obj/DEBUG_T1/tlmmem.o
LOAD Obj/DEBUG_T1/std.o
LOAD Obj/DEBUG_T1/fmt.o
LOAD Obj/DEBUG_T1/dba.o
LOAD Obj/DEBUG_T1/drv.o
LOAD Obj/DEBUG_T1/dlg.o
LOAD Obj/DEBUG_T1/Main.o
LOAD Obj/DEBUG_T1/sgm.o
LOAD Obj/DEBUG_T1/map.o
LOAD Obj/DEBUG_T1/dft.o
LOAD Obj/DEBUG_T1/rpt.o
LOAD Obj/DEBUG_T1/scr.o
LOAD Obj/DEBUG_T1/str.o
LOAD Obj/DEBUG_T1/hdl.o
LOAD Obj/DEBUG_T1/val.o
LOAD Obj/DEBUG_T1/adm.o
LOAD Obj/DEBUG_T1/emv.o
LOAD Obj/DEBUG_T1/function.o
LOAD Obj/DEBUG_T1/iso.o
LOAD Obj/DEBUG_T1/log.o
LOAD Obj/DEBUG_T1/onl.o
LOAD Obj/DEBUG_T1/pmt.o
LOAD Obj/DEBUG_T1/req.o
LOAD Obj/DEBUG_T1/rev.o
LOAD Obj/DEBUG_T1/rsp.o
LOAD Obj/DEBUG_T1/tle.o
LOAD Obj/DEBUG_T1/cmm.o
LOAD Obj/DEBUG_T1/tlmchn.o
LOAD Obj/DEBUG_T1/tlmcry.o
LOAD Obj/DEBUG_T1/tlmemv.o
LOAD Obj/DEBUG_T1/tcan0020.o
LOAD Obj/DEBUG_T1/BRI.o
LOAD Obj/DEBUG_T1/LineEncryption.o
LOAD Obj/DEBUG_T1/AES.o
LOAD Obj/DEBUG_T1/keyinject.o
LOAD Obj/DEBUG_T1/prepaid.o
LOAD Obj/DEBUG_T1/logon.o
LOAD Obj/DEBUG_T1/rsagen.o
LOAD Obj/DEBUG_T1/prsa.o
LOAD Obj/DEBUG_T1/bignum.o
LOAD Obj/DEBUG_T1/havege.o
LOAD Obj/DEBUG_T1/timing.o
LOAD Obj/DEBUG_T1/cstartup.o
START GROUP
LOAD libs/GNU_ARM_DEBUG/RSA.lib
LOAD C:/Program Files/SDK30/SDK 7.5.1/SDK/lib_gnu/eft30.lib
LOAD C:/Program Files/SDK30/SDK 7.5.1/SDK/lib_gnu/trap.lib
LOAD C:/Program Files/SDK30/SDK 7.5.1/SDK/lib_gnu/PinLib.lib
LOAD C:/Program Files/SDK30/SDK 7.5.1/SDK/lib_gnu/IAPP.lib
LOAD C:/Program Files/SDK30/SDK 7.5.1/SDK/lib_gnu/AVL.lib
LOAD C:/Program Files/SDK30/SDK 7.5.1/SDK/lib_gnu/LinkLayerExeInterface.lib
LOAD C:/Program Files/SDK30/SDK 7.5.1/SDK/lib_gnu/SEC.lib
LOAD C:/Program Files/SDK30/SDK 7.5.1/SDK/lib_gnu/dll_wifi.lib
LOAD C:/Program Files/SDK30/SDK 7.5.1/SDK/lib_gnu/FTP_.lib
LOAD C:/Program Files/SDK30/SDK 7.5.1/SDK/lib_gnu/SSL_.lib
LOAD C:/Program Files/SDK30/SDK 7.5.1/SDK/lib_gnu/IP_.lib
LOAD C:/Program Files/SDK30/SDK 7.5.1/SDK/lib_gnu/SNMP_.lib
LOAD C:/Program Files/SDK30/SDK 7.5.1/SDK/lib_gnu/IMG_.lib
LOAD C:/Program Files/SDK30/Easy Path to EMV 19/SDK/lib_gnu/DEL.lib
LOAD C:/Program Files/SDK30/SDK 7.5.1/SDK/lib_gnu/LinkLayerExeInterface_DEL.lib
LOAD C:/Program Files/SDK30/SDK 7.5.1/SDK/lib_gnu/LinkLayerExeInterface_Script.lib
LOAD C:/Program Files/SDK30/Easy Path to EMV 19/SDK/lib_gnu/EmvDcInterface.lib
LOAD C:/Program Files/SDK30/Easy Path to EMV 19/SDK/lib_gnu/EngineInterface.lib
END GROUP
LOAD C:/Program Files/Ingenico/IngeDev_7/plugins/com.ingenico.ingedev.telium.bin.win32_7.4.1.4/os/win32/GNUARM/arm-elf/lib/thumb/soft/interwork/libsupc++.a
LOAD C:/Program Files/Ingenico/IngeDev_7/plugins/com.ingenico.ingedev.telium.bin.win32_7.4.1.4/os/win32/GNUARM/arm-elf/lib/thumb/soft/interwork/libc.a
LOAD C:/Program Files/Ingenico/IngeDev_7/plugins/com.ingenico.ingedev.telium.bin.win32_7.4.1.4/os/win32/GNUARM/lib/gcc/arm-elf/3.4.3/thumb/soft/interwork/libgcc.a
OUTPUT(Obj/DEBUG_T1/BRI.axf elf32-littlearm)

.debug_abbrev   0x00000000     0x7020
 .debug_abbrev  0x00000000       0x6b Obj/DEBUG_T1/trc.o
 .debug_abbrev  0x0000006b      0x16f Obj/DEBUG_T1/tbx.o
 .debug_abbrev  0x000001da      0x24a Obj/DEBUG_T1/tlm.o
 .debug_abbrev  0x00000424      0x155 Obj/DEBUG_T1/tlmhmi.o
 .debug_abbrev  0x00000579      0x16c Obj/DEBUG_T1/tlmmem.o
 .debug_abbrev  0x000006e5      0x169 Obj/DEBUG_T1/std.o
 .debug_abbrev  0x0000084e       0xe7 Obj/DEBUG_T1/fmt.o
 .debug_abbrev  0x00000935      0x1cb Obj/DEBUG_T1/dba.o
 .debug_abbrev  0x00000b00      0x189 Obj/DEBUG_T1/drv.o
 .debug_abbrev  0x00000c89      0x18c Obj/DEBUG_T1/dlg.o
 .debug_abbrev  0x00000e15      0x1ea Obj/DEBUG_T1/Main.o
 .debug_abbrev  0x00000fff      0x1e8 Obj/DEBUG_T1/sgm.o
 .debug_abbrev  0x000011e7      0x1b0 Obj/DEBUG_T1/map.o
 .debug_abbrev  0x00001397      0x150 Obj/DEBUG_T1/dft.o
 .debug_abbrev  0x000014e7       0xf0 Obj/DEBUG_T1/rpt.o
 .debug_abbrev  0x000015d7      0x11d Obj/DEBUG_T1/scr.o
 .debug_abbrev  0x000016f4      0x119 Obj/DEBUG_T1/str.o
 .debug_abbrev  0x0000180d      0x195 Obj/DEBUG_T1/hdl.o
 .debug_abbrev  0x000019a2      0x143 Obj/DEBUG_T1/val.o
 .debug_abbrev  0x00001ae5      0x16c Obj/DEBUG_T1/adm.o
 .debug_abbrev  0x00001c51      0x23f Obj/DEBUG_T1/emv.o
 .debug_abbrev  0x00001e90      0x1d0 Obj/DEBUG_T1/function.o
 .debug_abbrev  0x00002060       0x80 Obj/DEBUG_T1/iso.o
 .debug_abbrev  0x000020e0      0x1c9 Obj/DEBUG_T1/log.o
 .debug_abbrev  0x000022a9      0x169 Obj/DEBUG_T1/onl.o
 .debug_abbrev  0x00002412      0x1d1 Obj/DEBUG_T1/pmt.o
 .debug_abbrev  0x000025e3      0x1a9 Obj/DEBUG_T1/req.o
 .debug_abbrev  0x0000278c       0xa5 Obj/DEBUG_T1/rev.o
 .debug_abbrev  0x00002831      0x190 Obj/DEBUG_T1/rsp.o
 .debug_abbrev  0x000029c1      0x195 Obj/DEBUG_T1/tle.o
 .debug_abbrev  0x00002b56       0x2a Obj/DEBUG_T1/cmm.o
 .debug_abbrev  0x00002b80      0x222 Obj/DEBUG_T1/tlmchn.o
 .debug_abbrev  0x00002da2      0x1ab Obj/DEBUG_T1/tlmcry.o
 .debug_abbrev  0x00002f4d      0x245 Obj/DEBUG_T1/tlmemv.o
 .debug_abbrev  0x00003192       0x3f Obj/DEBUG_T1/tcan0020.o
 .debug_abbrev  0x000031d1      0x24e Obj/DEBUG_T1/BRI.o
 .debug_abbrev  0x0000341f      0x21f Obj/DEBUG_T1/LineEncryption.o
 .debug_abbrev  0x0000363e      0x12b Obj/DEBUG_T1/AES.o
 .debug_abbrev  0x00003769      0x1bb Obj/DEBUG_T1/keyinject.o
 .debug_abbrev  0x00003924      0x260 Obj/DEBUG_T1/prepaid.o
 .debug_abbrev  0x00003b84       0x9e Obj/DEBUG_T1/logon.o
 .debug_abbrev  0x00003c22       0x6a Obj/DEBUG_T1/rsagen.o
 .debug_abbrev  0x00003c8c      0x178 Obj/DEBUG_T1/prsa.o
 .debug_abbrev  0x00003e04      0x275 Obj/DEBUG_T1/bignum.o
 .debug_abbrev  0x00004079       0xf3 Obj/DEBUG_T1/havege.o
 .debug_abbrev  0x0000416c       0x71 Obj/DEBUG_T1/timing.o
 .debug_abbrev  0x000041dd       0x98 libs/GNU_ARM_DEBUG/RSA.lib(RSA_dec.o)
 .debug_abbrev  0x00004275       0x4a libs/GNU_ARM_DEBUG/RSA.lib(RSA_init.o)
 .debug_abbrev  0x000042bf       0x5f libs/GNU_ARM_DEBUG/RSA.lib(m_add.o)
 .debug_abbrev  0x0000431e       0x5f libs/GNU_ARM_DEBUG/RSA.lib(m_b2w.o)
 .debug_abbrev  0x0000437d       0x4e libs/GNU_ARM_DEBUG/RSA.lib(m_clr.o)
 .debug_abbrev  0x000043cb       0x50 libs/GNU_ARM_DEBUG/RSA.lib(m_cmp.o)
 .debug_abbrev  0x0000441b       0x4e libs/GNU_ARM_DEBUG/RSA.lib(m_cpy.o)
 .debug_abbrev  0x00004469       0x8e libs/GNU_ARM_DEBUG/RSA.lib(m_div.o)
 .debug_abbrev  0x000044f7       0x9e libs/GNU_ARM_DEBUG/RSA.lib(m_mem.o)
 .debug_abbrev  0x00004595       0x4e libs/GNU_ARM_DEBUG/RSA.lib(m_modmul.o)
 .debug_abbrev  0x000045e3       0x66 libs/GNU_ARM_DEBUG/RSA.lib(m_monexp.o)
 .debug_abbrev  0x00004649       0x56 libs/GNU_ARM_DEBUG/RSA.lib(m_moninv.o)
 .debug_abbrev  0x0000469f       0x4e libs/GNU_ARM_DEBUG/RSA.lib(m_monmul.o)
 .debug_abbrev  0x000046ed       0x68 libs/GNU_ARM_DEBUG/RSA.lib(m_msb.o)
 .debug_abbrev  0x00004755       0x66 libs/GNU_ARM_DEBUG/RSA.lib(m_mul.o)
 .debug_abbrev  0x000047bb       0x5f libs/GNU_ARM_DEBUG/RSA.lib(m_mulsub.o)
 .debug_abbrev  0x0000481a       0x92 libs/GNU_ARM_DEBUG/RSA.lib(m_rand.o)
 .debug_abbrev  0x000048ac       0x66 libs/GNU_ARM_DEBUG/RSA.lib(m_red.o)
 .debug_abbrev  0x00004912       0x5f libs/GNU_ARM_DEBUG/RSA.lib(m_shlx.o)
 .debug_abbrev  0x00004971       0x5f libs/GNU_ARM_DEBUG/RSA.lib(m_shrx.o)
 .debug_abbrev  0x000049d0       0x5f libs/GNU_ARM_DEBUG/RSA.lib(m_sub.o)
 .debug_abbrev  0x00004a2f       0x66 libs/GNU_ARM_DEBUG/RSA.lib(m_w2b.o)
 .debug_abbrev  0x00004a95      0x16e C:/Program Files/Ingenico/IngeDev_7/plugins/com.ingenico.ingedev.telium.bin.win32_7.4.1.4/os/win32/GNUARM/arm-elf/lib/thumb/soft/interwork/libc.a(exit.o)
 .debug_abbrev  0x00004c03      0x157 C:/Program Files/Ingenico/IngeDev_7/plugins/com.ingenico.ingedev.telium.bin.win32_7.4.1.4/os/win32/GNUARM/arm-elf/lib/thumb/soft/interwork/libc.a(impure.o)
 .debug_abbrev  0x00004d5a      0x185 C:/Program Files/Ingenico/IngeDev_7/plugins/com.ingenico.ingedev.telium.bin.win32_7.4.1.4/os/win32/GNUARM/arm-elf/lib/thumb/soft/interwork/libc.a(rand.o)
 .debug_abbrev  0x00004edf       0x71 C:/Program Files/Ingenico/IngeDev_7/plugins/com.ingenico.ingedev.telium.bin.win32_7.4.1.4/os/win32/GNUARM/arm-elf/lib/thumb/soft/interwork/libc.a(strchr.o)
 .debug_abbrev  0x00004f50       0x7c C:/Program Files/Ingenico/IngeDev_7/plugins/com.ingenico.ingedev.telium.bin.win32_7.4.1.4/os/win32/GNUARM/arm-elf/lib/thumb/soft/interwork/libc.a(strlen.o)
 .debug_abbrev  0x00004fcc       0x85 C:/Program Files/Ingenico/IngeDev_7/plugins/com.ingenico.ingedev.telium.bin.win32_7.4.1.4/os/win32/GNUARM/arm-elf/lib/thumb/soft/interwork/libc.a(strstr.o)
 .debug_abbrev  0x00005051      0x1b3 C:/Program Files/Ingenico/IngeDev_7/plugins/com.ingenico.ingedev.telium.bin.win32_7.4.1.4/os/win32/GNUARM/arm-elf/lib/thumb/soft/interwork/libc.a(strtoul.o)
 .debug_abbrev  0x00005204      0x349 C:/Program Files/Ingenico/IngeDev_7/plugins/com.ingenico.ingedev.telium.bin.win32_7.4.1.4/os/win32/GNUARM/arm-elf/lib/thumb/soft/interwork/libc.a(syscalls.o)
 .debug_abbrev  0x0000554d      0x19b C:/Program Files/Ingenico/IngeDev_7/plugins/com.ingenico.ingedev.telium.bin.win32_7.4.1.4/os/win32/GNUARM/arm-elf/lib/thumb/soft/interwork/libc.a(__call_atexit.o)
 .debug_abbrev  0x000056e8       0x52 C:/Program Files/Ingenico/IngeDev_7/plugins/com.ingenico.ingedev.telium.bin.win32_7.4.1.4/os/win32/GNUARM/arm-elf/lib/thumb/soft/interwork/libc.a(ctype_.o)
 .debug_abbrev  0x0000573a      0x15f C:/Program Files/Ingenico/IngeDev_7/plugins/com.ingenico.ingedev.telium.bin.win32_7.4.1.4/os/win32/GNUARM/arm-elf/lib/thumb/soft/interwork/libc.a(errno.o)
 .debug_abbrev  0x00005899      0x202 C:/Program Files/Ingenico/IngeDev_7/plugins/com.ingenico.ingedev.telium.bin.win32_7.4.1.4/os/win32/GNUARM/arm-elf/lib/thumb/soft/interwork/libc.a(findfp.o)
 .debug_abbrev  0x00005a9b      0x1dd C:/Program Files/Ingenico/IngeDev_7/plugins/com.ingenico.ingedev.telium.bin.win32_7.4.1.4/os/win32/GNUARM/arm-elf/lib/thumb/soft/interwork/libc.a(fwalk.o)
 .debug_abbrev  0x00005c78      0x187 C:/Program Files/Ingenico/IngeDev_7/plugins/com.ingenico.ingedev.telium.bin.win32_7.4.1.4/os/win32/GNUARM/arm-elf/lib/thumb/soft/interwork/libc.a(malloc.o)
 .debug_abbrev  0x00005dff      0x216 C:/Program Files/Ingenico/IngeDev_7/plugins/com.ingenico.ingedev.telium.bin.win32_7.4.1.4/os/win32/GNUARM/arm-elf/lib/thumb/soft/interwork/libc.a(mallocr.o)
 .debug_abbrev  0x00006015      0x16a C:/Program Files/Ingenico/IngeDev_7/plugins/com.ingenico.ingedev.telium.bin.win32_7.4.1.4/os/win32/GNUARM/arm-elf/lib/thumb/soft/interwork/libc.a(mlock.o)
 .debug_abbrev  0x0000617f      0x1a1 C:/Program Files/Ingenico/IngeDev_7/plugins/com.ingenico.ingedev.telium.bin.win32_7.4.1.4/os/win32/GNUARM/arm-elf/lib/thumb/soft/interwork/libc.a(sbrkr.o)
 .debug_abbrev  0x00006320      0x19b C:/Program Files/Ingenico/IngeDev_7/plugins/com.ingenico.ingedev.telium.bin.win32_7.4.1.4/os/win32/GNUARM/arm-elf/lib/thumb/soft/interwork/libc.a(stdio.o)
 .debug_abbrev  0x000064bb      0x19a C:/Program Files/Ingenico/IngeDev_7/plugins/com.ingenico.ingedev.telium.bin.win32_7.4.1.4/os/win32/GNUARM/arm-elf/lib/thumb/soft/interwork/libc.a(writer.o)
 .debug_abbrev  0x00006655      0x195 C:/Program Files/Ingenico/IngeDev_7/plugins/com.ingenico.ingedev.telium.bin.win32_7.4.1.4/os/win32/GNUARM/arm-elf/lib/thumb/soft/interwork/libc.a(closer.o)
 .debug_abbrev  0x000067ea      0x1d9 C:/Program Files/Ingenico/IngeDev_7/plugins/com.ingenico.ingedev.telium.bin.win32_7.4.1.4/os/win32/GNUARM/arm-elf/lib/thumb/soft/interwork/libc.a(freer.o)
 .debug_abbrev  0x000069c3      0x1a4 C:/Program Files/Ingenico/IngeDev_7/plugins/com.ingenico.ingedev.telium.bin.win32_7.4.1.4/os/win32/GNUARM/arm-elf/lib/thumb/soft/interwork/libc.a(lseekr.o)
 .debug_abbrev  0x00006b67      0x195 C:/Program Files/Ingenico/IngeDev_7/plugins/com.ingenico.ingedev.telium.bin.win32_7.4.1.4/os/win32/GNUARM/arm-elf/lib/thumb/soft/interwork/libc.a(readr.o)
 .debug_abbrev  0x00006cfc      0x1c0 C:/Program Files/Ingenico/IngeDev_7/plugins/com.ingenico.ingedev.telium.bin.win32_7.4.1.4/os/win32/GNUARM/arm-elf/lib/thumb/soft/interwork/libc.a(reent.o)
 .debug_abbrev  0x00006ebc       0x14 C:/Program Files/Ingenico/IngeDev_7/plugins/com.ingenico.ingedev.telium.bin.win32_7.4.1.4/os/win32/GNUARM/lib/gcc/arm-elf/3.4.3/thumb/soft/interwork/libgcc.a(_udivsi3.o)
 .debug_abbrev  0x00006ed0       0x14 C:/Program Files/Ingenico/IngeDev_7/plugins/com.ingenico.ingedev.telium.bin.win32_7.4.1.4/os/win32/GNUARM/lib/gcc/arm-elf/3.4.3/thumb/soft/interwork/libgcc.a(_divsi3.o)
 .debug_abbrev  0x00006ee4       0x14 C:/Program Files/Ingenico/IngeDev_7/plugins/com.ingenico.ingedev.telium.bin.win32_7.4.1.4/os/win32/GNUARM/lib/gcc/arm-elf/3.4.3/thumb/soft/interwork/libgcc.a(_umodsi3.o)
 .debug_abbrev  0x00006ef8       0x14 C:/Program Files/Ingenico/IngeDev_7/plugins/com.ingenico.ingedev.telium.bin.win32_7.4.1.4/os/win32/GNUARM/lib/gcc/arm-elf/3.4.3/thumb/soft/interwork/libgcc.a(_modsi3.o)
 .debug_abbrev  0x00006f0c       0x14 C:/Program Files/Ingenico/IngeDev_7/plugins/com.ingenico.ingedev.telium.bin.win32_7.4.1.4/os/win32/GNUARM/lib/gcc/arm-elf/3.4.3/thumb/soft/interwork/libgcc.a(_dvmd_tls.o)
 .debug_abbrev  0x00006f20       0x14 C:/Program Files/Ingenico/IngeDev_7/plugins/com.ingenico.ingedev.telium.bin.win32_7.4.1.4/os/win32/GNUARM/lib/gcc/arm-elf/3.4.3/thumb/soft/interwork/libgcc.a(_call_via_rX.o)
 .debug_abbrev  0x00006f34       0xec C:/Program Files/Ingenico/IngeDev_7/plugins/com.ingenico.ingedev.telium.bin.win32_7.4.1.4/os/win32/GNUARM/lib/gcc/arm-elf/3.4.3/thumb/soft/interwork/libgcc.a(_muldi3.o)

.debug_info     0x00000000    0x50711
 .debug_info    0x00000000      0x189 Obj/DEBUG_T1/trc.o
 .debug_info    0x00000189     0x1086 Obj/DEBUG_T1/tbx.o
 .debug_info    0x0000120f     0x16fc Obj/DEBUG_T1/tlm.o
 .debug_info    0x0000290b      0xad5 Obj/DEBUG_T1/tlmhmi.o
 .debug_info    0x000033e0      0xb13 Obj/DEBUG_T1/tlmmem.o
 .debug_info    0x00003ef3     0x11f0 Obj/DEBUG_T1/std.o
 .debug_info    0x000050e3      0x6dc Obj/DEBUG_T1/fmt.o
 .debug_info    0x000057bf     0x2c2f Obj/DEBUG_T1/dba.o
 .debug_info    0x000083ee     0x19b5 Obj/DEBUG_T1/drv.o
 .debug_info    0x00009da3     0x11f2 Obj/DEBUG_T1/dlg.o
 .debug_info    0x0000af95     0x359a Obj/DEBUG_T1/Main.o
 .debug_info    0x0000e52f     0x1eed Obj/DEBUG_T1/sgm.o
 .debug_info    0x0001041c     0x375c Obj/DEBUG_T1/map.o
 .debug_info    0x00013b78     0x1831 Obj/DEBUG_T1/dft.o
 .debug_info    0x000153a9     0x2d36 Obj/DEBUG_T1/rpt.o
 .debug_info    0x000180df      0x767 Obj/DEBUG_T1/scr.o
 .debug_info    0x00018846      0x590 Obj/DEBUG_T1/str.o
 .debug_info    0x00018dd6      0xe19 Obj/DEBUG_T1/hdl.o
 .debug_info    0x00019bef      0xebb Obj/DEBUG_T1/val.o
 .debug_info    0x0001aaaa     0x1dd0 Obj/DEBUG_T1/adm.o
 .debug_info    0x0001c87a     0x1e60 Obj/DEBUG_T1/emv.o
 .debug_info    0x0001e6da     0x106d Obj/DEBUG_T1/function.o
 .debug_info    0x0001f747      0x12e Obj/DEBUG_T1/iso.o
 .debug_info    0x0001f875     0x1fa0 Obj/DEBUG_T1/log.o
 .debug_info    0x00021815      0x6cd Obj/DEBUG_T1/onl.o
 .debug_info    0x00021ee2     0x1eb8 Obj/DEBUG_T1/pmt.o
 .debug_info    0x00023d9a     0x1b4d Obj/DEBUG_T1/req.o
 .debug_info    0x000258e7      0x458 Obj/DEBUG_T1/rev.o
 .debug_info    0x00025d3f     0x3629 Obj/DEBUG_T1/rsp.o
 .debug_info    0x00029368     0x1181 Obj/DEBUG_T1/tle.o
 .debug_info    0x0002a4e9      0x12a Obj/DEBUG_T1/cmm.o
 .debug_info    0x0002a613     0x22fa Obj/DEBUG_T1/tlmchn.o
 .debug_info    0x0002c90d     0x12d0 Obj/DEBUG_T1/tlmcry.o
 .debug_info    0x0002dbdd     0x1f3f Obj/DEBUG_T1/tlmemv.o
 .debug_info    0x0002fb1c      0x14a Obj/DEBUG_T1/tcan0020.o
 .debug_info    0x0002fc66     0x7d6d Obj/DEBUG_T1/BRI.o
 .debug_info    0x000379d3     0x131e Obj/DEBUG_T1/LineEncryption.o
 .debug_info    0x00038cf1      0x68a Obj/DEBUG_T1/AES.o
 .debug_info    0x0003937b      0xb85 Obj/DEBUG_T1/keyinject.o
 .debug_info    0x00039f00     0x322d Obj/DEBUG_T1/prepaid.o
 .debug_info    0x0003d12d      0x66e Obj/DEBUG_T1/logon.o
 .debug_info    0x0003d79b      0x1d9 Obj/DEBUG_T1/rsagen.o
 .debug_info    0x0003d974      0x71d Obj/DEBUG_T1/prsa.o
 .debug_info    0x0003e091     0x273f Obj/DEBUG_T1/bignum.o
 .debug_info    0x000407d0      0x3e5 Obj/DEBUG_T1/havege.o
 .debug_info    0x00040bb5      0x184 Obj/DEBUG_T1/timing.o
 .debug_info    0x00040d39      0x32d libs/GNU_ARM_DEBUG/RSA.lib(RSA_dec.o)
 .debug_info    0x00041066      0x105 libs/GNU_ARM_DEBUG/RSA.lib(RSA_init.o)
 .debug_info    0x0004116b      0x13f libs/GNU_ARM_DEBUG/RSA.lib(m_add.o)
 .debug_info    0x000412aa      0x161 libs/GNU_ARM_DEBUG/RSA.lib(m_b2w.o)
 .debug_info    0x0004140b      0x108 libs/GNU_ARM_DEBUG/RSA.lib(m_clr.o)
 .debug_info    0x00041513      0x128 libs/GNU_ARM_DEBUG/RSA.lib(m_cmp.o)
 .debug_info    0x0004163b      0x116 libs/GNU_ARM_DEBUG/RSA.lib(m_cpy.o)
 .debug_info    0x00041751      0x21a libs/GNU_ARM_DEBUG/RSA.lib(m_div.o)
 .debug_info    0x0004196b      0x212 libs/GNU_ARM_DEBUG/RSA.lib(m_mem.o)
 .debug_info    0x00041b7d      0x12a libs/GNU_ARM_DEBUG/RSA.lib(m_modmul.o)
 .debug_info    0x00041ca7      0x1a2 libs/GNU_ARM_DEBUG/RSA.lib(m_monexp.o)
 .debug_info    0x00041e49      0x14d libs/GNU_ARM_DEBUG/RSA.lib(m_moninv.o)
 .debug_info    0x00041f96      0x138 libs/GNU_ARM_DEBUG/RSA.lib(m_monmul.o)
 .debug_info    0x000420ce      0x141 libs/GNU_ARM_DEBUG/RSA.lib(m_msb.o)
 .debug_info    0x0004220f      0x191 libs/GNU_ARM_DEBUG/RSA.lib(m_mul.o)
 .debug_info    0x000423a0      0x156 libs/GNU_ARM_DEBUG/RSA.lib(m_mulsub.o)
 .debug_info    0x000424f6      0x1a2 libs/GNU_ARM_DEBUG/RSA.lib(m_rand.o)
 .debug_info    0x00042698      0x191 libs/GNU_ARM_DEBUG/RSA.lib(m_red.o)
 .debug_info    0x00042829      0x16c libs/GNU_ARM_DEBUG/RSA.lib(m_shlx.o)
 .debug_info    0x00042995      0x16c libs/GNU_ARM_DEBUG/RSA.lib(m_shrx.o)
 .debug_info    0x00042b01      0x143 libs/GNU_ARM_DEBUG/RSA.lib(m_sub.o)
 .debug_info    0x00042c44      0x152 libs/GNU_ARM_DEBUG/RSA.lib(m_w2b.o)
 .debug_info    0x00042d96      0x920 C:/Program Files/Ingenico/IngeDev_7/plugins/com.ingenico.ingedev.telium.bin.win32_7.4.1.4/os/win32/GNUARM/arm-elf/lib/thumb/soft/interwork/libc.a(exit.o)
 .debug_info    0x000436b6      0x922 C:/Program Files/Ingenico/IngeDev_7/plugins/com.ingenico.ingedev.telium.bin.win32_7.4.1.4/os/win32/GNUARM/arm-elf/lib/thumb/soft/interwork/libc.a(impure.o)
 .debug_info    0x00043fd8      0x932 C:/Program Files/Ingenico/IngeDev_7/plugins/com.ingenico.ingedev.telium.bin.win32_7.4.1.4/os/win32/GNUARM/arm-elf/lib/thumb/soft/interwork/libc.a(rand.o)
 .debug_info    0x0004490a       0xd8 C:/Program Files/Ingenico/IngeDev_7/plugins/com.ingenico.ingedev.telium.bin.win32_7.4.1.4/os/win32/GNUARM/arm-elf/lib/thumb/soft/interwork/libc.a(strchr.o)
 .debug_info    0x000449e2       0xbb C:/Program Files/Ingenico/IngeDev_7/plugins/com.ingenico.ingedev.telium.bin.win32_7.4.1.4/os/win32/GNUARM/arm-elf/lib/thumb/soft/interwork/libc.a(strlen.o)
 .debug_info    0x00044a9d       0xd6 C:/Program Files/Ingenico/IngeDev_7/plugins/com.ingenico.ingedev.telium.bin.win32_7.4.1.4/os/win32/GNUARM/arm-elf/lib/thumb/soft/interwork/libc.a(strstr.o)
 .debug_info    0x00044b73      0xa05 C:/Program Files/Ingenico/IngeDev_7/plugins/com.ingenico.ingedev.telium.bin.win32_7.4.1.4/os/win32/GNUARM/arm-elf/lib/thumb/soft/interwork/libc.a(strtoul.o)
 .debug_info    0x00045578     0x155f C:/Program Files/Ingenico/IngeDev_7/plugins/com.ingenico.ingedev.telium.bin.win32_7.4.1.4/os/win32/GNUARM/arm-elf/lib/thumb/soft/interwork/libc.a(syscalls.o)
 .debug_info    0x00046ad7      0x981 C:/Program Files/Ingenico/IngeDev_7/plugins/com.ingenico.ingedev.telium.bin.win32_7.4.1.4/os/win32/GNUARM/arm-elf/lib/thumb/soft/interwork/libc.a(__call_atexit.o)
 .debug_info    0x00047458       0x79 C:/Program Files/Ingenico/IngeDev_7/plugins/com.ingenico.ingedev.telium.bin.win32_7.4.1.4/os/win32/GNUARM/arm-elf/lib/thumb/soft/interwork/libc.a(ctype_.o)
 .debug_info    0x000474d1      0x913 C:/Program Files/Ingenico/IngeDev_7/plugins/com.ingenico.ingedev.telium.bin.win32_7.4.1.4/os/win32/GNUARM/arm-elf/lib/thumb/soft/interwork/libc.a(errno.o)
 .debug_info    0x00047de4      0xb04 C:/Program Files/Ingenico/IngeDev_7/plugins/com.ingenico.ingedev.telium.bin.win32_7.4.1.4/os/win32/GNUARM/arm-elf/lib/thumb/soft/interwork/libc.a(findfp.o)
 .debug_info    0x000488e8      0xac5 C:/Program Files/Ingenico/IngeDev_7/plugins/com.ingenico.ingedev.telium.bin.win32_7.4.1.4/os/win32/GNUARM/arm-elf/lib/thumb/soft/interwork/libc.a(fwalk.o)
 .debug_info    0x000493ad      0x94f C:/Program Files/Ingenico/IngeDev_7/plugins/com.ingenico.ingedev.telium.bin.win32_7.4.1.4/os/win32/GNUARM/arm-elf/lib/thumb/soft/interwork/libc.a(malloc.o)
 .debug_info    0x00049cfc      0xc98 C:/Program Files/Ingenico/IngeDev_7/plugins/com.ingenico.ingedev.telium.bin.win32_7.4.1.4/os/win32/GNUARM/arm-elf/lib/thumb/soft/interwork/libc.a(mallocr.o)
 .debug_info    0x0004a994      0x93c C:/Program Files/Ingenico/IngeDev_7/plugins/com.ingenico.ingedev.telium.bin.win32_7.4.1.4/os/win32/GNUARM/arm-elf/lib/thumb/soft/interwork/libc.a(mlock.o)
 .debug_info    0x0004b2d0      0x957 C:/Program Files/Ingenico/IngeDev_7/plugins/com.ingenico.ingedev.telium.bin.win32_7.4.1.4/os/win32/GNUARM/arm-elf/lib/thumb/soft/interwork/libc.a(sbrkr.o)
 .debug_info    0x0004bc27      0xa4b C:/Program Files/Ingenico/IngeDev_7/plugins/com.ingenico.ingedev.telium.bin.win32_7.4.1.4/os/win32/GNUARM/arm-elf/lib/thumb/soft/interwork/libc.a(stdio.o)
 .debug_info    0x0004c672      0x97d C:/Program Files/Ingenico/IngeDev_7/plugins/com.ingenico.ingedev.telium.bin.win32_7.4.1.4/os/win32/GNUARM/arm-elf/lib/thumb/soft/interwork/libc.a(writer.o)
 .debug_info    0x0004cfef      0x946 C:/Program Files/Ingenico/IngeDev_7/plugins/com.ingenico.ingedev.telium.bin.win32_7.4.1.4/os/win32/GNUARM/arm-elf/lib/thumb/soft/interwork/libc.a(closer.o)
 .debug_info    0x0004d935      0xb8f C:/Program Files/Ingenico/IngeDev_7/plugins/com.ingenico.ingedev.telium.bin.win32_7.4.1.4/os/win32/GNUARM/arm-elf/lib/thumb/soft/interwork/libc.a(freer.o)
 .debug_info    0x0004e4c4      0x96b C:/Program Files/Ingenico/IngeDev_7/plugins/com.ingenico.ingedev.telium.bin.win32_7.4.1.4/os/win32/GNUARM/arm-elf/lib/thumb/soft/interwork/libc.a(lseekr.o)
 .debug_info    0x0004ee2f      0x976 C:/Program Files/Ingenico/IngeDev_7/plugins/com.ingenico.ingedev.telium.bin.win32_7.4.1.4/os/win32/GNUARM/arm-elf/lib/thumb/soft/interwork/libc.a(readr.o)
 .debug_info    0x0004f7a5      0x9f7 C:/Program Files/Ingenico/IngeDev_7/plugins/com.ingenico.ingedev.telium.bin.win32_7.4.1.4/os/win32/GNUARM/arm-elf/lib/thumb/soft/interwork/libc.a(reent.o)
 .debug_info    0x0005019c       0x97 C:/Program Files/Ingenico/IngeDev_7/plugins/com.ingenico.ingedev.telium.bin.win32_7.4.1.4/os/win32/GNUARM/lib/gcc/arm-elf/3.4.3/thumb/soft/interwork/libgcc.a(_udivsi3.o)
 .debug_info    0x00050233       0x97 C:/Program Files/Ingenico/IngeDev_7/plugins/com.ingenico.ingedev.telium.bin.win32_7.4.1.4/os/win32/GNUARM/lib/gcc/arm-elf/3.4.3/thumb/soft/interwork/libgcc.a(_divsi3.o)
 .debug_info    0x000502ca       0x97 C:/Program Files/Ingenico/IngeDev_7/plugins/com.ingenico.ingedev.telium.bin.win32_7.4.1.4/os/win32/GNUARM/lib/gcc/arm-elf/3.4.3/thumb/soft/interwork/libgcc.a(_umodsi3.o)
 .debug_info    0x00050361       0x97 C:/Program Files/Ingenico/IngeDev_7/plugins/com.ingenico.ingedev.telium.bin.win32_7.4.1.4/os/win32/GNUARM/lib/gcc/arm-elf/3.4.3/thumb/soft/interwork/libgcc.a(_modsi3.o)
 .debug_info    0x000503f8       0x97 C:/Program Files/Ingenico/IngeDev_7/plugins/com.ingenico.ingedev.telium.bin.win32_7.4.1.4/os/win32/GNUARM/lib/gcc/arm-elf/3.4.3/thumb/soft/interwork/libgcc.a(_dvmd_tls.o)
 .debug_info    0x0005048f       0x97 C:/Program Files/Ingenico/IngeDev_7/plugins/com.ingenico.ingedev.telium.bin.win32_7.4.1.4/os/win32/GNUARM/lib/gcc/arm-elf/3.4.3/thumb/soft/interwork/libgcc.a(_call_via_rX.o)
 .debug_info    0x00050526      0x1eb C:/Program Files/Ingenico/IngeDev_7/plugins/com.ingenico.ingedev.telium.bin.win32_7.4.1.4/os/win32/GNUARM/lib/gcc/arm-elf/3.4.3/thumb/soft/interwork/libgcc.a(_muldi3.o)

.debug_line     0x00000000     0xf814
 .debug_line    0x00000000       0x98 Obj/DEBUG_T1/trc.o
 .debug_line    0x00000098      0x23c Obj/DEBUG_T1/tbx.o
 .debug_line    0x000002d4      0x34f Obj/DEBUG_T1/tlm.o
 .debug_line    0x00000623      0x1e8 Obj/DEBUG_T1/tlmhmi.o
 .debug_line    0x0000080b      0x1a4 Obj/DEBUG_T1/tlmmem.o
 .debug_line    0x000009af      0x2b1 Obj/DEBUG_T1/std.o
 .debug_line    0x00000c60      0x18f Obj/DEBUG_T1/fmt.o
 .debug_line    0x00000def      0x5d0 Obj/DEBUG_T1/dba.o
 .debug_line    0x000013bf      0x30e Obj/DEBUG_T1/drv.o
 .debug_line    0x000016cd      0x481 Obj/DEBUG_T1/dlg.o
 .debug_line    0x00001b4e      0x1df Obj/DEBUG_T1/Main.o
 .debug_line    0x00001d2d      0x282 Obj/DEBUG_T1/sgm.o
 .debug_line    0x00001faf      0x3f3 Obj/DEBUG_T1/map.o
 .debug_line    0x000023a2      0x40a Obj/DEBUG_T1/dft.o
 .debug_line    0x000027ac      0x18e Obj/DEBUG_T1/rpt.o
 .debug_line    0x0000293a      0x1b0 Obj/DEBUG_T1/scr.o
 .debug_line    0x00002aea      0x184 Obj/DEBUG_T1/str.o
 .debug_line    0x00002c6e      0x40a Obj/DEBUG_T1/hdl.o
 .debug_line    0x00003078      0x297 Obj/DEBUG_T1/val.o
 .debug_line    0x0000330f      0x6ee Obj/DEBUG_T1/adm.o
 .debug_line    0x000039fd      0x54f Obj/DEBUG_T1/emv.o
 .debug_line    0x00003f4c      0x525 Obj/DEBUG_T1/function.o
 .debug_line    0x00004471       0x98 Obj/DEBUG_T1/iso.o
 .debug_line    0x00004509      0x967 Obj/DEBUG_T1/log.o
 .debug_line    0x00004e70      0x1ab Obj/DEBUG_T1/onl.o
 .debug_line    0x0000501b      0xbdb Obj/DEBUG_T1/pmt.o
 .debug_line    0x00005bf6      0x646 Obj/DEBUG_T1/req.o
 .debug_line    0x0000623c       0xdd Obj/DEBUG_T1/rev.o
 .debug_line    0x00006319      0x707 Obj/DEBUG_T1/rsp.o
 .debug_line    0x00006a20      0x48a Obj/DEBUG_T1/tle.o
 .debug_line    0x00006eaa       0x1a Obj/DEBUG_T1/cmm.o
 .debug_line    0x00006ec4      0x5a1 Obj/DEBUG_T1/tlmchn.o
 .debug_line    0x00007465      0x2b6 Obj/DEBUG_T1/tlmcry.o
 .debug_line    0x0000771b      0x500 Obj/DEBUG_T1/tlmemv.o
 .debug_line    0x00007c1b       0x69 Obj/DEBUG_T1/tcan0020.o
 .debug_line    0x00007c84     0x2ffe Obj/DEBUG_T1/BRI.o
 .debug_line    0x0000ac82      0x2d5 Obj/DEBUG_T1/LineEncryption.o
 .debug_line    0x0000af57      0x158 Obj/DEBUG_T1/AES.o
 .debug_line    0x0000b0af      0x1f9 Obj/DEBUG_T1/keyinject.o
 .debug_line    0x0000b2a8      0xabf Obj/DEBUG_T1/prepaid.o
 .debug_line    0x0000bd67      0x161 Obj/DEBUG_T1/logon.o
 .debug_line    0x0000bec8       0x63 Obj/DEBUG_T1/rsagen.o
 .debug_line    0x0000bf2b      0x199 Obj/DEBUG_T1/prsa.o
 .debug_line    0x0000c0c4      0x6b3 Obj/DEBUG_T1/bignum.o
 .debug_line    0x0000c777       0x98 Obj/DEBUG_T1/havege.o
 .debug_line    0x0000c80f       0x66 Obj/DEBUG_T1/timing.o
 .debug_line    0x0000c875       0xbf libs/GNU_ARM_DEBUG/RSA.lib(RSA_dec.o)
 .debug_line    0x0000c934       0x77 libs/GNU_ARM_DEBUG/RSA.lib(RSA_init.o)
 .debug_line    0x0000c9ab       0x79 libs/GNU_ARM_DEBUG/RSA.lib(m_add.o)
 .debug_line    0x0000ca24       0x7b libs/GNU_ARM_DEBUG/RSA.lib(m_b2w.o)
 .debug_line    0x0000ca9f       0x74 libs/GNU_ARM_DEBUG/RSA.lib(m_clr.o)
 .debug_line    0x0000cb13       0x7c libs/GNU_ARM_DEBUG/RSA.lib(m_cmp.o)
 .debug_line    0x0000cb8f       0x79 libs/GNU_ARM_DEBUG/RSA.lib(m_cpy.o)
 .debug_line    0x0000cc08       0x9a libs/GNU_ARM_DEBUG/RSA.lib(m_div.o)
 .debug_line    0x0000cca2       0x97 libs/GNU_ARM_DEBUG/RSA.lib(m_mem.o)
 .debug_line    0x0000cd39       0x77 libs/GNU_ARM_DEBUG/RSA.lib(m_modmul.o)
 .debug_line    0x0000cdb0       0x8f libs/GNU_ARM_DEBUG/RSA.lib(m_monexp.o)
 .debug_line    0x0000ce3f       0x81 libs/GNU_ARM_DEBUG/RSA.lib(m_moninv.o)
 .debug_line    0x0000cec0       0x77 libs/GNU_ARM_DEBUG/RSA.lib(m_monmul.o)
 .debug_line    0x0000cf37       0x7f libs/GNU_ARM_DEBUG/RSA.lib(m_msb.o)
 .debug_line    0x0000cfb6       0x8b libs/GNU_ARM_DEBUG/RSA.lib(m_mul.o)
 .debug_line    0x0000d041       0x81 libs/GNU_ARM_DEBUG/RSA.lib(m_mulsub.o)
 .debug_line    0x0000d0c2       0x81 libs/GNU_ARM_DEBUG/RSA.lib(m_rand.o)
 .debug_line    0x0000d143       0x8e libs/GNU_ARM_DEBUG/RSA.lib(m_red.o)
 .debug_line    0x0000d1d1       0x81 libs/GNU_ARM_DEBUG/RSA.lib(m_shlx.o)
 .debug_line    0x0000d252       0x82 libs/GNU_ARM_DEBUG/RSA.lib(m_shrx.o)
 .debug_line    0x0000d2d4       0x79 libs/GNU_ARM_DEBUG/RSA.lib(m_sub.o)
 .debug_line    0x0000d34d       0x78 libs/GNU_ARM_DEBUG/RSA.lib(m_w2b.o)
 .debug_line    0x0000d3c5      0x143 C:/Program Files/Ingenico/IngeDev_7/plugins/com.ingenico.ingedev.telium.bin.win32_7.4.1.4/os/win32/GNUARM/arm-elf/lib/thumb/soft/interwork/libc.a(exit.o)
 .debug_line    0x0000d508      0x12f C:/Program Files/Ingenico/IngeDev_7/plugins/com.ingenico.ingedev.telium.bin.win32_7.4.1.4/os/win32/GNUARM/arm-elf/lib/thumb/soft/interwork/libc.a(impure.o)
 .debug_line    0x0000d637      0x143 C:/Program Files/Ingenico/IngeDev_7/plugins/com.ingenico.ingedev.telium.bin.win32_7.4.1.4/os/win32/GNUARM/arm-elf/lib/thumb/soft/interwork/libc.a(rand.o)
 .debug_line    0x0000d77a       0x7c C:/Program Files/Ingenico/IngeDev_7/plugins/com.ingenico.ingedev.telium.bin.win32_7.4.1.4/os/win32/GNUARM/arm-elf/lib/thumb/soft/interwork/libc.a(strchr.o)
 .debug_line    0x0000d7f6       0xd2 C:/Program Files/Ingenico/IngeDev_7/plugins/com.ingenico.ingedev.telium.bin.win32_7.4.1.4/os/win32/GNUARM/arm-elf/lib/thumb/soft/interwork/libc.a(strlen.o)
 .debug_line    0x0000d8c8       0xd8 C:/Program Files/Ingenico/IngeDev_7/plugins/com.ingenico.ingedev.telium.bin.win32_7.4.1.4/os/win32/GNUARM/arm-elf/lib/thumb/soft/interwork/libc.a(strstr.o)
 .debug_line    0x0000d9a0      0x1d2 C:/Program Files/Ingenico/IngeDev_7/plugins/com.ingenico.ingedev.telium.bin.win32_7.4.1.4/os/win32/GNUARM/arm-elf/lib/thumb/soft/interwork/libc.a(strtoul.o)
 .debug_line    0x0000db72      0x2de C:/Program Files/Ingenico/IngeDev_7/plugins/com.ingenico.ingedev.telium.bin.win32_7.4.1.4/os/win32/GNUARM/arm-elf/lib/thumb/soft/interwork/libc.a(syscalls.o)
 .debug_line    0x0000de50      0x177 C:/Program Files/Ingenico/IngeDev_7/plugins/com.ingenico.ingedev.telium.bin.win32_7.4.1.4/os/win32/GNUARM/arm-elf/lib/thumb/soft/interwork/libc.a(__call_atexit.o)
 .debug_line    0x0000dfc7       0x65 C:/Program Files/Ingenico/IngeDev_7/plugins/com.ingenico.ingedev.telium.bin.win32_7.4.1.4/os/win32/GNUARM/arm-elf/lib/thumb/soft/interwork/libc.a(ctype_.o)
 .debug_line    0x0000e02c      0x13d C:/Program Files/Ingenico/IngeDev_7/plugins/com.ingenico.ingedev.telium.bin.win32_7.4.1.4/os/win32/GNUARM/arm-elf/lib/thumb/soft/interwork/libc.a(errno.o)
 .debug_line    0x0000e169      0x20e C:/Program Files/Ingenico/IngeDev_7/plugins/com.ingenico.ingedev.telium.bin.win32_7.4.1.4/os/win32/GNUARM/arm-elf/lib/thumb/soft/interwork/libc.a(findfp.o)
 .debug_line    0x0000e377      0x1b9 C:/Program Files/Ingenico/IngeDev_7/plugins/com.ingenico.ingedev.telium.bin.win32_7.4.1.4/os/win32/GNUARM/arm-elf/lib/thumb/soft/interwork/libc.a(fwalk.o)
 .debug_line    0x0000e530      0x148 C:/Program Files/Ingenico/IngeDev_7/plugins/com.ingenico.ingedev.telium.bin.win32_7.4.1.4/os/win32/GNUARM/arm-elf/lib/thumb/soft/interwork/libc.a(malloc.o)
 .debug_line    0x0000e678      0x229 C:/Program Files/Ingenico/IngeDev_7/plugins/com.ingenico.ingedev.telium.bin.win32_7.4.1.4/os/win32/GNUARM/arm-elf/lib/thumb/soft/interwork/libc.a(mallocr.o)
 .debug_line    0x0000e8a1      0x141 C:/Program Files/Ingenico/IngeDev_7/plugins/com.ingenico.ingedev.telium.bin.win32_7.4.1.4/os/win32/GNUARM/arm-elf/lib/thumb/soft/interwork/libc.a(mlock.o)
 .debug_line    0x0000e9e2      0x143 C:/Program Files/Ingenico/IngeDev_7/plugins/com.ingenico.ingedev.telium.bin.win32_7.4.1.4/os/win32/GNUARM/arm-elf/lib/thumb/soft/interwork/libc.a(sbrkr.o)
 .debug_line    0x0000eb25      0x1c2 C:/Program Files/Ingenico/IngeDev_7/plugins/com.ingenico.ingedev.telium.bin.win32_7.4.1.4/os/win32/GNUARM/arm-elf/lib/thumb/soft/interwork/libc.a(stdio.o)
 .debug_line    0x0000ece7      0x144 C:/Program Files/Ingenico/IngeDev_7/plugins/com.ingenico.ingedev.telium.bin.win32_7.4.1.4/os/win32/GNUARM/arm-elf/lib/thumb/soft/interwork/libc.a(writer.o)
 .debug_line    0x0000ee2b      0x144 C:/Program Files/Ingenico/IngeDev_7/plugins/com.ingenico.ingedev.telium.bin.win32_7.4.1.4/os/win32/GNUARM/arm-elf/lib/thumb/soft/interwork/libc.a(closer.o)
 .debug_line    0x0000ef6f      0x19d C:/Program Files/Ingenico/IngeDev_7/plugins/com.ingenico.ingedev.telium.bin.win32_7.4.1.4/os/win32/GNUARM/arm-elf/lib/thumb/soft/interwork/libc.a(freer.o)
 .debug_line    0x0000f10c      0x144 C:/Program Files/Ingenico/IngeDev_7/plugins/com.ingenico.ingedev.telium.bin.win32_7.4.1.4/os/win32/GNUARM/arm-elf/lib/thumb/soft/interwork/libc.a(lseekr.o)
 .debug_line    0x0000f250      0x143 C:/Program Files/Ingenico/IngeDev_7/plugins/com.ingenico.ingedev.telium.bin.win32_7.4.1.4/os/win32/GNUARM/arm-elf/lib/thumb/soft/interwork/libc.a(readr.o)
 .debug_line    0x0000f393      0x173 C:/Program Files/Ingenico/IngeDev_7/plugins/com.ingenico.ingedev.telium.bin.win32_7.4.1.4/os/win32/GNUARM/arm-elf/lib/thumb/soft/interwork/libc.a(reent.o)
 .debug_line    0x0000f506       0x70 C:/Program Files/Ingenico/IngeDev_7/plugins/com.ingenico.ingedev.telium.bin.win32_7.4.1.4/os/win32/GNUARM/lib/gcc/arm-elf/3.4.3/thumb/soft/interwork/libgcc.a(_udivsi3.o)
 .debug_line    0x0000f576       0x7d C:/Program Files/Ingenico/IngeDev_7/plugins/com.ingenico.ingedev.telium.bin.win32_7.4.1.4/os/win32/GNUARM/lib/gcc/arm-elf/3.4.3/thumb/soft/interwork/libgcc.a(_divsi3.o)
 .debug_line    0x0000f5f3       0x6f C:/Program Files/Ingenico/IngeDev_7/plugins/com.ingenico.ingedev.telium.bin.win32_7.4.1.4/os/win32/GNUARM/lib/gcc/arm-elf/3.4.3/thumb/soft/interwork/libgcc.a(_umodsi3.o)
 .debug_line    0x0000f662       0x78 C:/Program Files/Ingenico/IngeDev_7/plugins/com.ingenico.ingedev.telium.bin.win32_7.4.1.4/os/win32/GNUARM/lib/gcc/arm-elf/3.4.3/thumb/soft/interwork/libgcc.a(_modsi3.o)
 .debug_line    0x0000f6da       0x61 C:/Program Files/Ingenico/IngeDev_7/plugins/com.ingenico.ingedev.telium.bin.win32_7.4.1.4/os/win32/GNUARM/lib/gcc/arm-elf/3.4.3/thumb/soft/interwork/libgcc.a(_dvmd_tls.o)
 .debug_line    0x0000f73b       0x6f C:/Program Files/Ingenico/IngeDev_7/plugins/com.ingenico.ingedev.telium.bin.win32_7.4.1.4/os/win32/GNUARM/lib/gcc/arm-elf/3.4.3/thumb/soft/interwork/libgcc.a(_call_via_rX.o)
 .debug_line    0x0000f7aa       0x6a C:/Program Files/Ingenico/IngeDev_7/plugins/com.ingenico.ingedev.telium.bin.win32_7.4.1.4/os/win32/GNUARM/lib/gcc/arm-elf/3.4.3/thumb/soft/interwork/libgcc.a(_muldi3.o)

.debug_frame    0x00000000     0xa09c
 .debug_frame   0x00000000       0x24 Obj/DEBUG_T1/trc.o
 .debug_frame   0x00000024      0x470 Obj/DEBUG_T1/tbx.o
 .debug_frame   0x00000494      0x3e4 Obj/DEBUG_T1/tlm.o
 .debug_frame   0x00000878      0x200 Obj/DEBUG_T1/tlmhmi.o
 .debug_frame   0x00000a78      0x228 Obj/DEBUG_T1/tlmmem.o
 .debug_frame   0x00000ca0      0x398 Obj/DEBUG_T1/std.o
 .debug_frame   0x00001038      0x150 Obj/DEBUG_T1/fmt.o
 .debug_frame   0x00001188      0x908 Obj/DEBUG_T1/dba.o
 .debug_frame   0x00001a90      0x478 Obj/DEBUG_T1/drv.o
 .debug_frame   0x00001f08      0x360 Obj/DEBUG_T1/dlg.o
 .debug_frame   0x00002268       0x90 Obj/DEBUG_T1/Main.o
 .debug_frame   0x000022f8      0x250 Obj/DEBUG_T1/sgm.o
 .debug_frame   0x00002548      0x2fc Obj/DEBUG_T1/map.o
 .debug_frame   0x00002844      0x2ac Obj/DEBUG_T1/dft.o
 .debug_frame   0x00002af0       0x44 Obj/DEBUG_T1/rpt.o
 .debug_frame   0x00002b34      0x114 Obj/DEBUG_T1/scr.o
 .debug_frame   0x00002c48      0x100 Obj/DEBUG_T1/str.o
 .debug_frame   0x00002d48      0x388 Obj/DEBUG_T1/hdl.o
 .debug_frame   0x000030d0      0x290 Obj/DEBUG_T1/val.o
 .debug_frame   0x00003360      0x57c Obj/DEBUG_T1/adm.o
 .debug_frame   0x000038dc      0x364 Obj/DEBUG_T1/emv.o
 .debug_frame   0x00003c40      0x2c4 Obj/DEBUG_T1/function.o
 .debug_frame   0x00003f04       0x24 Obj/DEBUG_T1/iso.o
 .debug_frame   0x00003f28      0x35c Obj/DEBUG_T1/log.o
 .debug_frame   0x00004284       0xe4 Obj/DEBUG_T1/onl.o
 .debug_frame   0x00004368      0x47c Obj/DEBUG_T1/pmt.o
 .debug_frame   0x000047e4      0x3ec Obj/DEBUG_T1/req.o
 .debug_frame   0x00004bd0       0x64 Obj/DEBUG_T1/rev.o
 .debug_frame   0x00004c34      0xe78 Obj/DEBUG_T1/rsp.o
 .debug_frame   0x00005aac      0x21c Obj/DEBUG_T1/tle.o
 .debug_frame   0x00005cc8      0x710 Obj/DEBUG_T1/tlmchn.o
 .debug_frame   0x000063d8      0x26c Obj/DEBUG_T1/tlmcry.o
 .debug_frame   0x00006644      0x59c Obj/DEBUG_T1/tlmemv.o
 .debug_frame   0x00006be0       0x20 Obj/DEBUG_T1/tcan0020.o
 .debug_frame   0x00006c00     0x1374 Obj/DEBUG_T1/BRI.o
 .debug_frame   0x00007f74      0x2b0 Obj/DEBUG_T1/LineEncryption.o
 .debug_frame   0x00008224      0x198 Obj/DEBUG_T1/AES.o
 .debug_frame   0x000083bc      0x17c Obj/DEBUG_T1/keyinject.o
 .debug_frame   0x00008538      0x7c4 Obj/DEBUG_T1/prepaid.o
 .debug_frame   0x00008cfc       0x5c Obj/DEBUG_T1/logon.o
 .debug_frame   0x00008d58       0x2c Obj/DEBUG_T1/rsagen.o
 .debug_frame   0x00008d84       0xcc Obj/DEBUG_T1/prsa.o
 .debug_frame   0x00008e50      0x4d8 Obj/DEBUG_T1/bignum.o
 .debug_frame   0x00009328       0x60 Obj/DEBUG_T1/havege.o
 .debug_frame   0x00009388       0x28 Obj/DEBUG_T1/timing.o
 .debug_frame   0x000093b0       0x48 libs/GNU_ARM_DEBUG/RSA.lib(RSA_dec.o)
 .debug_frame   0x000093f8       0x28 libs/GNU_ARM_DEBUG/RSA.lib(RSA_init.o)
 .debug_frame   0x00009420       0x2c libs/GNU_ARM_DEBUG/RSA.lib(m_add.o)
 .debug_frame   0x0000944c       0x2c libs/GNU_ARM_DEBUG/RSA.lib(m_b2w.o)
 .debug_frame   0x00009478       0x28 libs/GNU_ARM_DEBUG/RSA.lib(m_clr.o)
 .debug_frame   0x000094a0       0x28 libs/GNU_ARM_DEBUG/RSA.lib(m_cmp.o)
 .debug_frame   0x000094c8       0x2c libs/GNU_ARM_DEBUG/RSA.lib(m_cpy.o)
 .debug_frame   0x000094f4       0x4c libs/GNU_ARM_DEBUG/RSA.lib(m_div.o)
 .debug_frame   0x00009540       0x54 libs/GNU_ARM_DEBUG/RSA.lib(m_mem.o)
 .debug_frame   0x00009594       0x2c libs/GNU_ARM_DEBUG/RSA.lib(m_modmul.o)
 .debug_frame   0x000095c0       0x2c libs/GNU_ARM_DEBUG/RSA.lib(m_monexp.o)
 .debug_frame   0x000095ec       0x28 libs/GNU_ARM_DEBUG/RSA.lib(m_moninv.o)
 .debug_frame   0x00009614       0x2c libs/GNU_ARM_DEBUG/RSA.lib(m_monmul.o)
 .debug_frame   0x00009640       0x28 libs/GNU_ARM_DEBUG/RSA.lib(m_msb.o)
 .debug_frame   0x00009668       0x2c libs/GNU_ARM_DEBUG/RSA.lib(m_mul.o)
 .debug_frame   0x00009694       0x2c libs/GNU_ARM_DEBUG/RSA.lib(m_mulsub.o)
 .debug_frame   0x000096c0       0x4c libs/GNU_ARM_DEBUG/RSA.lib(m_rand.o)
 .debug_frame   0x0000970c       0x2c libs/GNU_ARM_DEBUG/RSA.lib(m_red.o)
 .debug_frame   0x00009738       0x2c libs/GNU_ARM_DEBUG/RSA.lib(m_shlx.o)
 .debug_frame   0x00009764       0x2c libs/GNU_ARM_DEBUG/RSA.lib(m_shrx.o)
 .debug_frame   0x00009790       0x2c libs/GNU_ARM_DEBUG/RSA.lib(m_sub.o)
 .debug_frame   0x000097bc       0x28 libs/GNU_ARM_DEBUG/RSA.lib(m_w2b.o)
 .debug_frame   0x000097e4       0x28 C:/Program Files/Ingenico/IngeDev_7/plugins/com.ingenico.ingedev.telium.bin.win32_7.4.1.4/os/win32/GNUARM/arm-elf/lib/thumb/soft/interwork/libc.a(exit.o)
 .debug_frame   0x0000980c       0x3c C:/Program Files/Ingenico/IngeDev_7/plugins/com.ingenico.ingedev.telium.bin.win32_7.4.1.4/os/win32/GNUARM/arm-elf/lib/thumb/soft/interwork/libc.a(rand.o)
 .debug_frame   0x00009848       0x28 C:/Program Files/Ingenico/IngeDev_7/plugins/com.ingenico.ingedev.telium.bin.win32_7.4.1.4/os/win32/GNUARM/arm-elf/lib/thumb/soft/interwork/libc.a(strchr.o)
 .debug_frame   0x00009870       0x28 C:/Program Files/Ingenico/IngeDev_7/plugins/com.ingenico.ingedev.telium.bin.win32_7.4.1.4/os/win32/GNUARM/arm-elf/lib/thumb/soft/interwork/libc.a(strlen.o)
 .debug_frame   0x00009898       0x28 C:/Program Files/Ingenico/IngeDev_7/plugins/com.ingenico.ingedev.telium.bin.win32_7.4.1.4/os/win32/GNUARM/arm-elf/lib/thumb/soft/interwork/libc.a(strstr.o)
 .debug_frame   0x000098c0       0x4c C:/Program Files/Ingenico/IngeDev_7/plugins/com.ingenico.ingedev.telium.bin.win32_7.4.1.4/os/win32/GNUARM/arm-elf/lib/thumb/soft/interwork/libc.a(strtoul.o)
 .debug_frame   0x0000990c      0x300 C:/Program Files/Ingenico/IngeDev_7/plugins/com.ingenico.ingedev.telium.bin.win32_7.4.1.4/os/win32/GNUARM/arm-elf/lib/thumb/soft/interwork/libc.a(syscalls.o)
 .debug_frame   0x00009c0c       0x30 C:/Program Files/Ingenico/IngeDev_7/plugins/com.ingenico.ingedev.telium.bin.win32_7.4.1.4/os/win32/GNUARM/arm-elf/lib/thumb/soft/interwork/libc.a(__call_atexit.o)
 .debug_frame   0x00009c3c       0x20 C:/Program Files/Ingenico/IngeDev_7/plugins/com.ingenico.ingedev.telium.bin.win32_7.4.1.4/os/win32/GNUARM/arm-elf/lib/thumb/soft/interwork/libc.a(errno.o)
 .debug_frame   0x00009c5c      0x110 C:/Program Files/Ingenico/IngeDev_7/plugins/com.ingenico.ingedev.telium.bin.win32_7.4.1.4/os/win32/GNUARM/arm-elf/lib/thumb/soft/interwork/libc.a(findfp.o)
 .debug_frame   0x00009d6c       0x50 C:/Program Files/Ingenico/IngeDev_7/plugins/com.ingenico.ingedev.telium.bin.win32_7.4.1.4/os/win32/GNUARM/arm-elf/lib/thumb/soft/interwork/libc.a(fwalk.o)
 .debug_frame   0x00009dbc       0x40 C:/Program Files/Ingenico/IngeDev_7/plugins/com.ingenico.ingedev.telium.bin.win32_7.4.1.4/os/win32/GNUARM/arm-elf/lib/thumb/soft/interwork/libc.a(malloc.o)
 .debug_frame   0x00009dfc       0x30 C:/Program Files/Ingenico/IngeDev_7/plugins/com.ingenico.ingedev.telium.bin.win32_7.4.1.4/os/win32/GNUARM/arm-elf/lib/thumb/soft/interwork/libc.a(mallocr.o)
 .debug_frame   0x00009e2c       0x30 C:/Program Files/Ingenico/IngeDev_7/plugins/com.ingenico.ingedev.telium.bin.win32_7.4.1.4/os/win32/GNUARM/arm-elf/lib/thumb/soft/interwork/libc.a(mlock.o)
 .debug_frame   0x00009e5c       0x2c C:/Program Files/Ingenico/IngeDev_7/plugins/com.ingenico.ingedev.telium.bin.win32_7.4.1.4/os/win32/GNUARM/arm-elf/lib/thumb/soft/interwork/libc.a(sbrkr.o)
 .debug_frame   0x00009e88       0x7c C:/Program Files/Ingenico/IngeDev_7/plugins/com.ingenico.ingedev.telium.bin.win32_7.4.1.4/os/win32/GNUARM/arm-elf/lib/thumb/soft/interwork/libc.a(stdio.o)
 .debug_frame   0x00009f04       0x2c C:/Program Files/Ingenico/IngeDev_7/plugins/com.ingenico.ingedev.telium.bin.win32_7.4.1.4/os/win32/GNUARM/arm-elf/lib/thumb/soft/interwork/libc.a(writer.o)
 .debug_frame   0x00009f30       0x2c C:/Program Files/Ingenico/IngeDev_7/plugins/com.ingenico.ingedev.telium.bin.win32_7.4.1.4/os/win32/GNUARM/arm-elf/lib/thumb/soft/interwork/libc.a(closer.o)
 .debug_frame   0x00009f5c       0x50 C:/Program Files/Ingenico/IngeDev_7/plugins/com.ingenico.ingedev.telium.bin.win32_7.4.1.4/os/win32/GNUARM/arm-elf/lib/thumb/soft/interwork/libc.a(freer.o)
 .debug_frame   0x00009fac       0x2c C:/Program Files/Ingenico/IngeDev_7/plugins/com.ingenico.ingedev.telium.bin.win32_7.4.1.4/os/win32/GNUARM/arm-elf/lib/thumb/soft/interwork/libc.a(lseekr.o)
 .debug_frame   0x00009fd8       0x2c C:/Program Files/Ingenico/IngeDev_7/plugins/com.ingenico.ingedev.telium.bin.win32_7.4.1.4/os/win32/GNUARM/arm-elf/lib/thumb/soft/interwork/libc.a(readr.o)
 .debug_frame   0x0000a004       0x68 C:/Program Files/Ingenico/IngeDev_7/plugins/com.ingenico.ingedev.telium.bin.win32_7.4.1.4/os/win32/GNUARM/arm-elf/lib/thumb/soft/interwork/libc.a(reent.o)
 .debug_frame   0x0000a06c       0x30 C:/Program Files/Ingenico/IngeDev_7/plugins/com.ingenico.ingedev.telium.bin.win32_7.4.1.4/os/win32/GNUARM/lib/gcc/arm-elf/3.4.3/thumb/soft/interwork/libgcc.a(_muldi3.o)

.debug_pubnames
                0x00000000     0x5ba0
 .debug_pubnames
                0x00000000       0x1d Obj/DEBUG_T1/trc.o
 .debug_pubnames
                0x0000001d      0x202 Obj/DEBUG_T1/tbx.o
 .debug_pubnames
                0x0000021f      0x17a Obj/DEBUG_T1/tlm.o
 .debug_pubnames
                0x00000399       0xe3 Obj/DEBUG_T1/tlmhmi.o
 .debug_pubnames
                0x0000047c      0x101 Obj/DEBUG_T1/tlmmem.o
 .debug_pubnames
                0x0000057d      0x15d Obj/DEBUG_T1/std.o
 .debug_pubnames
                0x000006da       0x9d Obj/DEBUG_T1/fmt.o
 .debug_pubnames
                0x00000777      0x2b9 Obj/DEBUG_T1/dba.o
 .debug_pubnames
                0x00000a30       0x8e Obj/DEBUG_T1/drv.o
 .debug_pubnames
                0x00000abe      0x130 Obj/DEBUG_T1/dlg.o
 .debug_pubnames
                0x00000bee      0x134 Obj/DEBUG_T1/Main.o
 .debug_pubnames
                0x00000d22      0x274 Obj/DEBUG_T1/sgm.o
 .debug_pubnames
                0x00000f96       0xe7 Obj/DEBUG_T1/map.o
 .debug_pubnames
                0x0000107d       0x3b Obj/DEBUG_T1/dft.o
 .debug_pubnames
                0x000010b8       0x21 Obj/DEBUG_T1/rpt.o
 .debug_pubnames
                0x000010d9       0x29 Obj/DEBUG_T1/scr.o
 .debug_pubnames
                0x00001102       0xb8 Obj/DEBUG_T1/str.o
 .debug_pubnames
                0x000011ba      0x29e Obj/DEBUG_T1/hdl.o
 .debug_pubnames
                0x00001458      0x296 Obj/DEBUG_T1/val.o
 .debug_pubnames
                0x000016ee      0x3b2 Obj/DEBUG_T1/adm.o
 .debug_pubnames
                0x00001aa0      0x18f Obj/DEBUG_T1/emv.o
 .debug_pubnames
                0x00001c2f      0x29e Obj/DEBUG_T1/function.o
 .debug_pubnames
                0x00001ecd       0x1d Obj/DEBUG_T1/iso.o
 .debug_pubnames
                0x00001eea      0x2f1 Obj/DEBUG_T1/log.o
 .debug_pubnames
                0x000021db      0x132 Obj/DEBUG_T1/onl.o
 .debug_pubnames
                0x0000230d      0x2dd Obj/DEBUG_T1/pmt.o
 .debug_pubnames
                0x000025ea      0x107 Obj/DEBUG_T1/req.o
 .debug_pubnames
                0x000026f1      0x11d Obj/DEBUG_T1/rev.o
 .debug_pubnames
                0x0000280e       0xfb Obj/DEBUG_T1/rsp.o
 .debug_pubnames
                0x00002909      0x184 Obj/DEBUG_T1/tle.o
 .debug_pubnames
                0x00002a8d       0xf7 Obj/DEBUG_T1/tlmchn.o
 .debug_pubnames
                0x00002b84      0x229 Obj/DEBUG_T1/tlmcry.o
 .debug_pubnames
                0x00002dad      0x270 Obj/DEBUG_T1/tlmemv.o
 .debug_pubnames
                0x0000301d       0x1f Obj/DEBUG_T1/tcan0020.o
 .debug_pubnames
                0x0000303c     0x1072 Obj/DEBUG_T1/BRI.o
 .debug_pubnames
                0x000040ae      0x30a Obj/DEBUG_T1/LineEncryption.o
 .debug_pubnames
                0x000043b8      0x133 Obj/DEBUG_T1/AES.o
 .debug_pubnames
                0x000044eb      0x1d1 Obj/DEBUG_T1/keyinject.o
 .debug_pubnames
                0x000046bc      0x6b0 Obj/DEBUG_T1/prepaid.o
 .debug_pubnames
                0x00004d6c      0x119 Obj/DEBUG_T1/logon.o
 .debug_pubnames
                0x00004e85       0x21 Obj/DEBUG_T1/rsagen.o
 .debug_pubnames
                0x00004ea6       0x8b Obj/DEBUG_T1/prsa.o
 .debug_pubnames
                0x00004f31      0x28f Obj/DEBUG_T1/bignum.o
 .debug_pubnames
                0x000051c0       0x32 Obj/DEBUG_T1/havege.o
 .debug_pubnames
                0x000051f2       0x2c Obj/DEBUG_T1/timing.o
 .debug_pubnames
                0x0000521e       0x35 libs/GNU_ARM_DEBUG/RSA.lib(RSA_dec.o)
 .debug_pubnames
                0x00005253       0x1f libs/GNU_ARM_DEBUG/RSA.lib(RSA_init.o)
 .debug_pubnames
                0x00005272       0x1f libs/GNU_ARM_DEBUG/RSA.lib(m_add.o)
 .debug_pubnames
                0x00005291       0x26 libs/GNU_ARM_DEBUG/RSA.lib(m_b2w.o)
 .debug_pubnames
                0x000052b7       0x1f libs/GNU_ARM_DEBUG/RSA.lib(m_clr.o)
 .debug_pubnames
                0x000052d6       0x1f libs/GNU_ARM_DEBUG/RSA.lib(m_cmp.o)
 .debug_pubnames
                0x000052f5       0x1f libs/GNU_ARM_DEBUG/RSA.lib(m_cpy.o)
 .debug_pubnames
                0x00005314       0x30 libs/GNU_ARM_DEBUG/RSA.lib(m_div.o)
 .debug_pubnames
                0x00005344       0x46 libs/GNU_ARM_DEBUG/RSA.lib(m_mem.o)
 .debug_pubnames
                0x0000538a       0x22 libs/GNU_ARM_DEBUG/RSA.lib(m_modmul.o)
 .debug_pubnames
                0x000053ac       0x22 libs/GNU_ARM_DEBUG/RSA.lib(m_monexp.o)
 .debug_pubnames
                0x000053ce       0x22 libs/GNU_ARM_DEBUG/RSA.lib(m_moninv.o)
 .debug_pubnames
                0x000053f0       0x22 libs/GNU_ARM_DEBUG/RSA.lib(m_monmul.o)
 .debug_pubnames
                0x00005412       0x1f libs/GNU_ARM_DEBUG/RSA.lib(m_msb.o)
 .debug_pubnames
                0x00005431       0x1f libs/GNU_ARM_DEBUG/RSA.lib(m_mul.o)
 .debug_pubnames
                0x00005450       0x22 libs/GNU_ARM_DEBUG/RSA.lib(m_mulsub.o)
 .debug_pubnames
                0x00005472       0x4b libs/GNU_ARM_DEBUG/RSA.lib(m_rand.o)
 .debug_pubnames
                0x000054bd       0x22 libs/GNU_ARM_DEBUG/RSA.lib(m_red.o)
 .debug_pubnames
                0x000054df       0x20 libs/GNU_ARM_DEBUG/RSA.lib(m_shlx.o)
 .debug_pubnames
                0x000054ff       0x20 libs/GNU_ARM_DEBUG/RSA.lib(m_shrx.o)
 .debug_pubnames
                0x0000551f       0x1f libs/GNU_ARM_DEBUG/RSA.lib(m_sub.o)
 .debug_pubnames
                0x0000553e       0x26 libs/GNU_ARM_DEBUG/RSA.lib(m_w2b.o)
 .debug_pubnames
                0x00005564       0x1b C:/Program Files/Ingenico/IngeDev_7/plugins/com.ingenico.ingedev.telium.bin.win32_7.4.1.4/os/win32/GNUARM/arm-elf/lib/thumb/soft/interwork/libc.a(exit.o)
 .debug_pubnames
                0x0000557f       0x39 C:/Program Files/Ingenico/IngeDev_7/plugins/com.ingenico.ingedev.telium.bin.win32_7.4.1.4/os/win32/GNUARM/arm-elf/lib/thumb/soft/interwork/libc.a(impure.o)
 .debug_pubnames
                0x000055b8       0x25 C:/Program Files/Ingenico/IngeDev_7/plugins/com.ingenico.ingedev.telium.bin.win32_7.4.1.4/os/win32/GNUARM/arm-elf/lib/thumb/soft/interwork/libc.a(rand.o)
 .debug_pubnames
                0x000055dd       0x1d C:/Program Files/Ingenico/IngeDev_7/plugins/com.ingenico.ingedev.telium.bin.win32_7.4.1.4/os/win32/GNUARM/arm-elf/lib/thumb/soft/interwork/libc.a(strchr.o)
 .debug_pubnames
                0x000055fa       0x1d C:/Program Files/Ingenico/IngeDev_7/plugins/com.ingenico.ingedev.telium.bin.win32_7.4.1.4/os/win32/GNUARM/arm-elf/lib/thumb/soft/interwork/libc.a(strlen.o)
 .debug_pubnames
                0x00005617       0x1d C:/Program Files/Ingenico/IngeDev_7/plugins/com.ingenico.ingedev.telium.bin.win32_7.4.1.4/os/win32/GNUARM/arm-elf/lib/thumb/soft/interwork/libc.a(strstr.o)
 .debug_pubnames
                0x00005634       0x2d C:/Program Files/Ingenico/IngeDev_7/plugins/com.ingenico.ingedev.telium.bin.win32_7.4.1.4/os/win32/GNUARM/arm-elf/lib/thumb/soft/interwork/libc.a(strtoul.o)
 .debug_pubnames
                0x00005661      0x14a C:/Program Files/Ingenico/IngeDev_7/plugins/com.ingenico.ingedev.telium.bin.win32_7.4.1.4/os/win32/GNUARM/arm-elf/lib/thumb/soft/interwork/libc.a(syscalls.o)
 .debug_pubnames
                0x000057ab       0x27 C:/Program Files/Ingenico/IngeDev_7/plugins/com.ingenico.ingedev.telium.bin.win32_7.4.1.4/os/win32/GNUARM/arm-elf/lib/thumb/soft/interwork/libc.a(__call_atexit.o)
 .debug_pubnames
                0x000057d2       0x2e C:/Program Files/Ingenico/IngeDev_7/plugins/com.ingenico.ingedev.telium.bin.win32_7.4.1.4/os/win32/GNUARM/arm-elf/lib/thumb/soft/interwork/libc.a(ctype_.o)
 .debug_pubnames
                0x00005800       0x1e C:/Program Files/Ingenico/IngeDev_7/plugins/com.ingenico.ingedev.telium.bin.win32_7.4.1.4/os/win32/GNUARM/arm-elf/lib/thumb/soft/interwork/libc.a(errno.o)
 .debug_pubnames
                0x0000581e       0xa9 C:/Program Files/Ingenico/IngeDev_7/plugins/com.ingenico.ingedev.telium.bin.win32_7.4.1.4/os/win32/GNUARM/arm-elf/lib/thumb/soft/interwork/libc.a(findfp.o)
 .debug_pubnames
                0x000058c7       0x2e C:/Program Files/Ingenico/IngeDev_7/plugins/com.ingenico.ingedev.telium.bin.win32_7.4.1.4/os/win32/GNUARM/arm-elf/lib/thumb/soft/interwork/libc.a(fwalk.o)
 .debug_pubnames
                0x000058f5       0x26 C:/Program Files/Ingenico/IngeDev_7/plugins/com.ingenico.ingedev.telium.bin.win32_7.4.1.4/os/win32/GNUARM/arm-elf/lib/thumb/soft/interwork/libc.a(malloc.o)
 .debug_pubnames
                0x0000591b       0xce C:/Program Files/Ingenico/IngeDev_7/plugins/com.ingenico.ingedev.telium.bin.win32_7.4.1.4/os/win32/GNUARM/arm-elf/lib/thumb/soft/interwork/libc.a(mallocr.o)
 .debug_pubnames
                0x000059e9       0x38 C:/Program Files/Ingenico/IngeDev_7/plugins/com.ingenico.ingedev.telium.bin.win32_7.4.1.4/os/win32/GNUARM/arm-elf/lib/thumb/soft/interwork/libc.a(mlock.o)
 .debug_pubnames
                0x00005a21       0x1e C:/Program Files/Ingenico/IngeDev_7/plugins/com.ingenico.ingedev.telium.bin.win32_7.4.1.4/os/win32/GNUARM/arm-elf/lib/thumb/soft/interwork/libc.a(sbrkr.o)
 .debug_pubnames
                0x00005a3f       0x44 C:/Program Files/Ingenico/IngeDev_7/plugins/com.ingenico.ingedev.telium.bin.win32_7.4.1.4/os/win32/GNUARM/arm-elf/lib/thumb/soft/interwork/libc.a(stdio.o)
 .debug_pubnames
                0x00005a83       0x1f C:/Program Files/Ingenico/IngeDev_7/plugins/com.ingenico.ingedev.telium.bin.win32_7.4.1.4/os/win32/GNUARM/arm-elf/lib/thumb/soft/interwork/libc.a(writer.o)
 .debug_pubnames
                0x00005aa2       0x1f C:/Program Files/Ingenico/IngeDev_7/plugins/com.ingenico.ingedev.telium.bin.win32_7.4.1.4/os/win32/GNUARM/arm-elf/lib/thumb/soft/interwork/libc.a(closer.o)
 .debug_pubnames
                0x00005ac1       0x31 C:/Program Files/Ingenico/IngeDev_7/plugins/com.ingenico.ingedev.telium.bin.win32_7.4.1.4/os/win32/GNUARM/arm-elf/lib/thumb/soft/interwork/libc.a(freer.o)
 .debug_pubnames
                0x00005af2       0x1f C:/Program Files/Ingenico/IngeDev_7/plugins/com.ingenico.ingedev.telium.bin.win32_7.4.1.4/os/win32/GNUARM/arm-elf/lib/thumb/soft/interwork/libc.a(lseekr.o)
 .debug_pubnames
                0x00005b11       0x1e C:/Program Files/Ingenico/IngeDev_7/plugins/com.ingenico.ingedev.telium.bin.win32_7.4.1.4/os/win32/GNUARM/arm-elf/lib/thumb/soft/interwork/libc.a(readr.o)
 .debug_pubnames
                0x00005b2f       0x52 C:/Program Files/Ingenico/IngeDev_7/plugins/com.ingenico.ingedev.telium.bin.win32_7.4.1.4/os/win32/GNUARM/arm-elf/lib/thumb/soft/interwork/libc.a(reent.o)
 .debug_pubnames
                0x00005b81       0x1f C:/Program Files/Ingenico/IngeDev_7/plugins/com.ingenico.ingedev.telium.bin.win32_7.4.1.4/os/win32/GNUARM/lib/gcc/arm-elf/3.4.3/thumb/soft/interwork/libgcc.a(_muldi3.o)

.debug_aranges  0x00000000      0xc00
 .debug_aranges
                0x00000000       0x20 Obj/DEBUG_T1/trc.o
 .debug_aranges
                0x00000020       0x20 Obj/DEBUG_T1/tbx.o
 .debug_aranges
                0x00000040       0x20 Obj/DEBUG_T1/tlm.o
 .debug_aranges
                0x00000060       0x20 Obj/DEBUG_T1/tlmhmi.o
 .debug_aranges
                0x00000080       0x20 Obj/DEBUG_T1/tlmmem.o
 .debug_aranges
                0x000000a0       0x20 Obj/DEBUG_T1/std.o
 .debug_aranges
                0x000000c0       0x20 Obj/DEBUG_T1/fmt.o
 .debug_aranges
                0x000000e0       0x20 Obj/DEBUG_T1/dba.o
 .debug_aranges
                0x00000100       0x20 Obj/DEBUG_T1/drv.o
 .debug_aranges
                0x00000120       0x20 Obj/DEBUG_T1/dlg.o
 .debug_aranges
                0x00000140       0x20 Obj/DEBUG_T1/Main.o
 .debug_aranges
                0x00000160       0x20 Obj/DEBUG_T1/sgm.o
 .debug_aranges
                0x00000180       0x20 Obj/DEBUG_T1/map.o
 .debug_aranges
                0x000001a0       0x20 Obj/DEBUG_T1/dft.o
 .debug_aranges
                0x000001c0       0x20 Obj/DEBUG_T1/rpt.o
 .debug_aranges
                0x000001e0       0x20 Obj/DEBUG_T1/scr.o
 .debug_aranges
                0x00000200       0x20 Obj/DEBUG_T1/str.o
 .debug_aranges
                0x00000220       0x20 Obj/DEBUG_T1/hdl.o
 .debug_aranges
                0x00000240       0x20 Obj/DEBUG_T1/val.o
 .debug_aranges
                0x00000260       0x20 Obj/DEBUG_T1/adm.o
 .debug_aranges
                0x00000280       0x20 Obj/DEBUG_T1/emv.o
 .debug_aranges
                0x000002a0       0x20 Obj/DEBUG_T1/function.o
 .debug_aranges
                0x000002c0       0x20 Obj/DEBUG_T1/iso.o
 .debug_aranges
                0x000002e0       0x20 Obj/DEBUG_T1/log.o
 .debug_aranges
                0x00000300       0x20 Obj/DEBUG_T1/onl.o
 .debug_aranges
                0x00000320       0x20 Obj/DEBUG_T1/pmt.o
 .debug_aranges
                0x00000340       0x20 Obj/DEBUG_T1/req.o
 .debug_aranges
                0x00000360       0x20 Obj/DEBUG_T1/rev.o
 .debug_aranges
                0x00000380       0x20 Obj/DEBUG_T1/rsp.o
 .debug_aranges
                0x000003a0       0x20 Obj/DEBUG_T1/tle.o
 .debug_aranges
                0x000003c0       0x20 Obj/DEBUG_T1/tlmchn.o
 .debug_aranges
                0x000003e0       0x20 Obj/DEBUG_T1/tlmcry.o
 .debug_aranges
                0x00000400       0x20 Obj/DEBUG_T1/tlmemv.o
 .debug_aranges
                0x00000420       0x20 Obj/DEBUG_T1/tcan0020.o
 .debug_aranges
                0x00000440       0x20 Obj/DEBUG_T1/BRI.o
 .debug_aranges
                0x00000460       0x20 Obj/DEBUG_T1/LineEncryption.o
 .debug_aranges
                0x00000480       0x20 Obj/DEBUG_T1/AES.o
 .debug_aranges
                0x000004a0       0x20 Obj/DEBUG_T1/keyinject.o
 .debug_aranges
                0x000004c0       0x20 Obj/DEBUG_T1/prepaid.o
 .debug_aranges
                0x000004e0       0x20 Obj/DEBUG_T1/logon.o
 .debug_aranges
                0x00000500       0x20 Obj/DEBUG_T1/rsagen.o
 .debug_aranges
                0x00000520       0x20 Obj/DEBUG_T1/prsa.o
 .debug_aranges
                0x00000540       0x20 Obj/DEBUG_T1/bignum.o
 .debug_aranges
                0x00000560       0x20 Obj/DEBUG_T1/havege.o
 .debug_aranges
                0x00000580       0x20 Obj/DEBUG_T1/timing.o
 .debug_aranges
                0x000005a0       0x20 libs/GNU_ARM_DEBUG/RSA.lib(RSA_dec.o)
 .debug_aranges
                0x000005c0       0x20 libs/GNU_ARM_DEBUG/RSA.lib(RSA_init.o)
 .debug_aranges
                0x000005e0       0x20 libs/GNU_ARM_DEBUG/RSA.lib(m_add.o)
 .debug_aranges
                0x00000600       0x20 libs/GNU_ARM_DEBUG/RSA.lib(m_b2w.o)
 .debug_aranges
                0x00000620       0x20 libs/GNU_ARM_DEBUG/RSA.lib(m_clr.o)
 .debug_aranges
                0x00000640       0x20 libs/GNU_ARM_DEBUG/RSA.lib(m_cmp.o)
 .debug_aranges
                0x00000660       0x20 libs/GNU_ARM_DEBUG/RSA.lib(m_cpy.o)
 .debug_aranges
                0x00000680       0x20 libs/GNU_ARM_DEBUG/RSA.lib(m_div.o)
 .debug_aranges
                0x000006a0       0x20 libs/GNU_ARM_DEBUG/RSA.lib(m_mem.o)
 .debug_aranges
                0x000006c0       0x20 libs/GNU_ARM_DEBUG/RSA.lib(m_modmul.o)
 .debug_aranges
                0x000006e0       0x20 libs/GNU_ARM_DEBUG/RSA.lib(m_monexp.o)
 .debug_aranges
                0x00000700       0x20 libs/GNU_ARM_DEBUG/RSA.lib(m_moninv.o)
 .debug_aranges
                0x00000720       0x20 libs/GNU_ARM_DEBUG/RSA.lib(m_monmul.o)
 .debug_aranges
                0x00000740       0x20 libs/GNU_ARM_DEBUG/RSA.lib(m_msb.o)
 .debug_aranges
                0x00000760       0x20 libs/GNU_ARM_DEBUG/RSA.lib(m_mul.o)
 .debug_aranges
                0x00000780       0x20 libs/GNU_ARM_DEBUG/RSA.lib(m_mulsub.o)
 .debug_aranges
                0x000007a0       0x20 libs/GNU_ARM_DEBUG/RSA.lib(m_rand.o)
 .debug_aranges
                0x000007c0       0x20 libs/GNU_ARM_DEBUG/RSA.lib(m_red.o)
 .debug_aranges
                0x000007e0       0x20 libs/GNU_ARM_DEBUG/RSA.lib(m_shlx.o)
 .debug_aranges
                0x00000800       0x20 libs/GNU_ARM_DEBUG/RSA.lib(m_shrx.o)
 .debug_aranges
                0x00000820       0x20 libs/GNU_ARM_DEBUG/RSA.lib(m_sub.o)
 .debug_aranges
                0x00000840       0x20 libs/GNU_ARM_DEBUG/RSA.lib(m_w2b.o)
 .debug_aranges
                0x00000860       0x20 C:/Program Files/Ingenico/IngeDev_7/plugins/com.ingenico.ingedev.telium.bin.win32_7.4.1.4/os/win32/GNUARM/arm-elf/lib/thumb/soft/interwork/libc.a(exit.o)
 .debug_aranges
                0x00000880       0x20 C:/Program Files/Ingenico/IngeDev_7/plugins/com.ingenico.ingedev.telium.bin.win32_7.4.1.4/os/win32/GNUARM/arm-elf/lib/thumb/soft/interwork/libc.a(rand.o)
 .debug_aranges
                0x000008a0       0x20 C:/Program Files/Ingenico/IngeDev_7/plugins/com.ingenico.ingedev.telium.bin.win32_7.4.1.4/os/win32/GNUARM/arm-elf/lib/thumb/soft/interwork/libc.a(strchr.o)
 .debug_aranges
                0x000008c0       0x20 C:/Program Files/Ingenico/IngeDev_7/plugins/com.ingenico.ingedev.telium.bin.win32_7.4.1.4/os/win32/GNUARM/arm-elf/lib/thumb/soft/interwork/libc.a(strlen.o)
 .debug_aranges
                0x000008e0       0x20 C:/Program Files/Ingenico/IngeDev_7/plugins/com.ingenico.ingedev.telium.bin.win32_7.4.1.4/os/win32/GNUARM/arm-elf/lib/thumb/soft/interwork/libc.a(strstr.o)
 .debug_aranges
                0x00000900       0x20 C:/Program Files/Ingenico/IngeDev_7/plugins/com.ingenico.ingedev.telium.bin.win32_7.4.1.4/os/win32/GNUARM/arm-elf/lib/thumb/soft/interwork/libc.a(strtoul.o)
 .debug_aranges
                0x00000920       0x20 C:/Program Files/Ingenico/IngeDev_7/plugins/com.ingenico.ingedev.telium.bin.win32_7.4.1.4/os/win32/GNUARM/arm-elf/lib/thumb/soft/interwork/libc.a(syscalls.o)
 .debug_aranges
                0x00000940       0x20 C:/Program Files/Ingenico/IngeDev_7/plugins/com.ingenico.ingedev.telium.bin.win32_7.4.1.4/os/win32/GNUARM/arm-elf/lib/thumb/soft/interwork/libc.a(__call_atexit.o)
 .debug_aranges
                0x00000960       0x20 C:/Program Files/Ingenico/IngeDev_7/plugins/com.ingenico.ingedev.telium.bin.win32_7.4.1.4/os/win32/GNUARM/arm-elf/lib/thumb/soft/interwork/libc.a(errno.o)
 .debug_aranges
                0x00000980       0x20 C:/Program Files/Ingenico/IngeDev_7/plugins/com.ingenico.ingedev.telium.bin.win32_7.4.1.4/os/win32/GNUARM/arm-elf/lib/thumb/soft/interwork/libc.a(findfp.o)
 .debug_aranges
                0x000009a0       0x20 C:/Program Files/Ingenico/IngeDev_7/plugins/com.ingenico.ingedev.telium.bin.win32_7.4.1.4/os/win32/GNUARM/arm-elf/lib/thumb/soft/interwork/libc.a(fwalk.o)
 .debug_aranges
                0x000009c0       0x20 C:/Program Files/Ingenico/IngeDev_7/plugins/com.ingenico.ingedev.telium.bin.win32_7.4.1.4/os/win32/GNUARM/arm-elf/lib/thumb/soft/interwork/libc.a(malloc.o)
 .debug_aranges
                0x000009e0       0x20 C:/Program Files/Ingenico/IngeDev_7/plugins/com.ingenico.ingedev.telium.bin.win32_7.4.1.4/os/win32/GNUARM/arm-elf/lib/thumb/soft/interwork/libc.a(mallocr.o)
 .debug_aranges
                0x00000a00       0x20 C:/Program Files/Ingenico/IngeDev_7/plugins/com.ingenico.ingedev.telium.bin.win32_7.4.1.4/os/win32/GNUARM/arm-elf/lib/thumb/soft/interwork/libc.a(mlock.o)
 .debug_aranges
                0x00000a20       0x20 C:/Program Files/Ingenico/IngeDev_7/plugins/com.ingenico.ingedev.telium.bin.win32_7.4.1.4/os/win32/GNUARM/arm-elf/lib/thumb/soft/interwork/libc.a(sbrkr.o)
 .debug_aranges
                0x00000a40       0x20 C:/Program Files/Ingenico/IngeDev_7/plugins/com.ingenico.ingedev.telium.bin.win32_7.4.1.4/os/win32/GNUARM/arm-elf/lib/thumb/soft/interwork/libc.a(stdio.o)
 .debug_aranges
                0x00000a60       0x20 C:/Program Files/Ingenico/IngeDev_7/plugins/com.ingenico.ingedev.telium.bin.win32_7.4.1.4/os/win32/GNUARM/arm-elf/lib/thumb/soft/interwork/libc.a(writer.o)
 .debug_aranges
                0x00000a80       0x20 C:/Program Files/Ingenico/IngeDev_7/plugins/com.ingenico.ingedev.telium.bin.win32_7.4.1.4/os/win32/GNUARM/arm-elf/lib/thumb/soft/interwork/libc.a(closer.o)
 .debug_aranges
                0x00000aa0       0x20 C:/Program Files/Ingenico/IngeDev_7/plugins/com.ingenico.ingedev.telium.bin.win32_7.4.1.4/os/win32/GNUARM/arm-elf/lib/thumb/soft/interwork/libc.a(freer.o)
 .debug_aranges
                0x00000ac0       0x20 C:/Program Files/Ingenico/IngeDev_7/plugins/com.ingenico.ingedev.telium.bin.win32_7.4.1.4/os/win32/GNUARM/arm-elf/lib/thumb/soft/interwork/libc.a(lseekr.o)
 .debug_aranges
                0x00000ae0       0x20 C:/Program Files/Ingenico/IngeDev_7/plugins/com.ingenico.ingedev.telium.bin.win32_7.4.1.4/os/win32/GNUARM/arm-elf/lib/thumb/soft/interwork/libc.a(readr.o)
 .debug_aranges
                0x00000b00       0x20 C:/Program Files/Ingenico/IngeDev_7/plugins/com.ingenico.ingedev.telium.bin.win32_7.4.1.4/os/win32/GNUARM/arm-elf/lib/thumb/soft/interwork/libc.a(reent.o)
 .debug_aranges
                0x00000b20       0x20 C:/Program Files/Ingenico/IngeDev_7/plugins/com.ingenico.ingedev.telium.bin.win32_7.4.1.4/os/win32/GNUARM/lib/gcc/arm-elf/3.4.3/thumb/soft/interwork/libgcc.a(_udivsi3.o)
 .debug_aranges
                0x00000b40       0x20 C:/Program Files/Ingenico/IngeDev_7/plugins/com.ingenico.ingedev.telium.bin.win32_7.4.1.4/os/win32/GNUARM/lib/gcc/arm-elf/3.4.3/thumb/soft/interwork/libgcc.a(_divsi3.o)
 .debug_aranges
                0x00000b60       0x20 C:/Program Files/Ingenico/IngeDev_7/plugins/com.ingenico.ingedev.telium.bin.win32_7.4.1.4/os/win32/GNUARM/lib/gcc/arm-elf/3.4.3/thumb/soft/interwork/libgcc.a(_umodsi3.o)
 .debug_aranges
                0x00000b80       0x20 C:/Program Files/Ingenico/IngeDev_7/plugins/com.ingenico.ingedev.telium.bin.win32_7.4.1.4/os/win32/GNUARM/lib/gcc/arm-elf/3.4.3/thumb/soft/interwork/libgcc.a(_modsi3.o)
 .debug_aranges
                0x00000ba0       0x20 C:/Program Files/Ingenico/IngeDev_7/plugins/com.ingenico.ingedev.telium.bin.win32_7.4.1.4/os/win32/GNUARM/lib/gcc/arm-elf/3.4.3/thumb/soft/interwork/libgcc.a(_dvmd_tls.o)
 .debug_aranges
                0x00000bc0       0x20 C:/Program Files/Ingenico/IngeDev_7/plugins/com.ingenico.ingedev.telium.bin.win32_7.4.1.4/os/win32/GNUARM/lib/gcc/arm-elf/3.4.3/thumb/soft/interwork/libgcc.a(_call_via_rX.o)
 .debug_aranges
                0x00000be0       0x20 C:/Program Files/Ingenico/IngeDev_7/plugins/com.ingenico.ingedev.telium.bin.win32_7.4.1.4/os/win32/GNUARM/lib/gcc/arm-elf/3.4.3/thumb/soft/interwork/libgcc.a(_muldi3.o)

.debug_str      0x00000000     0x22cf
 .debug_str     0x00000000       0x12 Obj/DEBUG_T1/trc.o
 .debug_str     0x00000012       0x18 Obj/DEBUG_T1/tbx.o
 .debug_str     0x0000002a       0x40 Obj/DEBUG_T1/tlm.o
 .debug_str     0x0000006a       0x18 Obj/DEBUG_T1/tlmhmi.o
 .debug_str     0x00000082       0x38 Obj/DEBUG_T1/tlmmem.o
 .debug_str     0x000000ba       0x1f Obj/DEBUG_T1/std.o
 .debug_str     0x000000d9       0x12 Obj/DEBUG_T1/fmt.o
 .debug_str     0x000000eb       0x32 Obj/DEBUG_T1/dba.o
 .debug_str     0x0000011d       0x18 Obj/DEBUG_T1/drv.o
 .debug_str     0x00000135       0x33 Obj/DEBUG_T1/dlg.o
 .debug_str     0x00000168      0x117 Obj/DEBUG_T1/Main.o
 .debug_str     0x0000027f       0x6c Obj/DEBUG_T1/sgm.o
 .debug_str     0x000002eb       0x1f Obj/DEBUG_T1/map.o
 .debug_str     0x0000030a       0x1f Obj/DEBUG_T1/dft.o
 .debug_str     0x00000329       0x12 Obj/DEBUG_T1/rpt.o
 .debug_str     0x0000033b       0x1f Obj/DEBUG_T1/scr.o
 .debug_str     0x0000035a       0x4a Obj/DEBUG_T1/str.o
 .debug_str     0x000003a4       0x2d Obj/DEBUG_T1/hdl.o
 .debug_str     0x000003d1       0x40 Obj/DEBUG_T1/val.o
 .debug_str     0x00000411       0x61 Obj/DEBUG_T1/adm.o
 .debug_str     0x00000472       0x42 Obj/DEBUG_T1/emv.o
 .debug_str     0x000004b4       0x35 Obj/DEBUG_T1/function.o
 .debug_str     0x000004e9       0x12 Obj/DEBUG_T1/iso.o
 .debug_str     0x000004fb      0x1bb Obj/DEBUG_T1/log.o
 .debug_str     0x000006b6       0x1f Obj/DEBUG_T1/onl.o
 .debug_str     0x000006d5       0x78 Obj/DEBUG_T1/pmt.o
 .debug_str     0x0000074d       0x2e Obj/DEBUG_T1/req.o
 .debug_str     0x0000077b       0x19 Obj/DEBUG_T1/rev.o
 .debug_str     0x00000794       0x3d Obj/DEBUG_T1/rsp.o
 .debug_str     0x000007d1       0x4b Obj/DEBUG_T1/tle.o
 .debug_str     0x0000081c       0x12 Obj/DEBUG_T1/cmm.o
 .debug_str     0x0000082e       0x4f Obj/DEBUG_T1/tlmchn.o
 .debug_str     0x0000087d       0x36 Obj/DEBUG_T1/tlmcry.o
 .debug_str     0x000008b3       0x5f Obj/DEBUG_T1/tlmemv.o
 .debug_str     0x00000912       0x12 Obj/DEBUG_T1/tcan0020.o
 .debug_str     0x00000924      0x296 Obj/DEBUG_T1/BRI.o
 .debug_str     0x00000bba       0x5e Obj/DEBUG_T1/LineEncryption.o
 .debug_str     0x00000c18       0x27 Obj/DEBUG_T1/AES.o
 .debug_str     0x00000c3f       0x41 Obj/DEBUG_T1/keyinject.o
 .debug_str     0x00000c80       0xb7 Obj/DEBUG_T1/prepaid.o
 .debug_str     0x00000d37       0x12 Obj/DEBUG_T1/logon.o
 .debug_str     0x00000d49       0x12 Obj/DEBUG_T1/rsagen.o
 .debug_str     0x00000d5b       0x1b Obj/DEBUG_T1/prsa.o
 .debug_str     0x00000d76       0x2e Obj/DEBUG_T1/bignum.o
 .debug_str     0x00000da4       0x12 Obj/DEBUG_T1/havege.o
 .debug_str     0x00000db6       0x12 Obj/DEBUG_T1/timing.o
 .debug_str     0x00000dc8        0xb libs/GNU_ARM_DEBUG/RSA.lib(m_div.o)
 .debug_str     0x00000dd3      0x469 C:/Program Files/Ingenico/IngeDev_7/plugins/com.ingenico.ingedev.telium.bin.win32_7.4.1.4/os/win32/GNUARM/arm-elf/lib/thumb/soft/interwork/libc.a(exit.o)
                                0x4ed (size before relaxing)
 .debug_str     0x0000123c       0xbe C:/Program Files/Ingenico/IngeDev_7/plugins/com.ingenico.ingedev.telium.bin.win32_7.4.1.4/os/win32/GNUARM/arm-elf/lib/thumb/soft/interwork/libc.a(impure.o)
                                0x4fb (size before relaxing)
 .debug_str     0x000012fa       0x4d C:/Program Files/Ingenico/IngeDev_7/plugins/com.ingenico.ingedev.telium.bin.win32_7.4.1.4/os/win32/GNUARM/arm-elf/lib/thumb/soft/interwork/libc.a(rand.o)
                                0x4ec (size before relaxing)
 .debug_str     0x00001347       0xbb C:/Program Files/Ingenico/IngeDev_7/plugins/com.ingenico.ingedev.telium.bin.win32_7.4.1.4/os/win32/GNUARM/arm-elf/lib/thumb/soft/interwork/libc.a(strchr.o)
                                0x144 (size before relaxing)
 .debug_str     0x00001402       0x56 C:/Program Files/Ingenico/IngeDev_7/plugins/com.ingenico.ingedev.telium.bin.win32_7.4.1.4/os/win32/GNUARM/arm-elf/lib/thumb/soft/interwork/libc.a(strlen.o)
                                0x151 (size before relaxing)
 .debug_str     0x00001458       0x61 C:/Program Files/Ingenico/IngeDev_7/plugins/com.ingenico.ingedev.telium.bin.win32_7.4.1.4/os/win32/GNUARM/arm-elf/lib/thumb/soft/interwork/libc.a(strstr.o)
                                0x15c (size before relaxing)
 .debug_str     0x000014b9       0x7f C:/Program Files/Ingenico/IngeDev_7/plugins/com.ingenico.ingedev.telium.bin.win32_7.4.1.4/os/win32/GNUARM/arm-elf/lib/thumb/soft/interwork/libc.a(strtoul.o)
                                0x51e (size before relaxing)
 .debug_str     0x00001538      0x38a C:/Program Files/Ingenico/IngeDev_7/plugins/com.ingenico.ingedev.telium.bin.win32_7.4.1.4/os/win32/GNUARM/arm-elf/lib/thumb/soft/interwork/libc.a(syscalls.o)
                                0x7f1 (size before relaxing)
 .debug_str     0x000018c2       0x67 C:/Program Files/Ingenico/IngeDev_7/plugins/com.ingenico.ingedev.telium.bin.win32_7.4.1.4/os/win32/GNUARM/arm-elf/lib/thumb/soft/interwork/libc.a(__call_atexit.o)
                                0x50d (size before relaxing)
 .debug_str     0x00001929       0xbe C:/Program Files/Ingenico/IngeDev_7/plugins/com.ingenico.ingedev.telium.bin.win32_7.4.1.4/os/win32/GNUARM/arm-elf/lib/thumb/soft/interwork/libc.a(ctype_.o)
                                 0xe9 (size before relaxing)
 .debug_str     0x000019e7       0xb9 C:/Program Files/Ingenico/IngeDev_7/plugins/com.ingenico.ingedev.telium.bin.win32_7.4.1.4/os/win32/GNUARM/arm-elf/lib/thumb/soft/interwork/libc.a(errno.o)
                                0x4e3 (size before relaxing)
 .debug_str     0x00001aa0      0x143 C:/Program Files/Ingenico/IngeDev_7/plugins/com.ingenico.ingedev.telium.bin.win32_7.4.1.4/os/win32/GNUARM/arm-elf/lib/thumb/soft/interwork/libc.a(findfp.o)
                                0x59e (size before relaxing)
 .debug_str     0x00001be3       0x6c C:/Program Files/Ingenico/IngeDev_7/plugins/com.ingenico.ingedev.telium.bin.win32_7.4.1.4/os/win32/GNUARM/arm-elf/lib/thumb/soft/interwork/libc.a(fwalk.o)
                                0x516 (size before relaxing)
 .debug_str     0x00001c4f       0x5a C:/Program Files/Ingenico/IngeDev_7/plugins/com.ingenico.ingedev.telium.bin.win32_7.4.1.4/os/win32/GNUARM/arm-elf/lib/thumb/soft/interwork/libc.a(malloc.o)
                                0x4fd (size before relaxing)
 .debug_str     0x00001ca9      0x210 C:/Program Files/Ingenico/IngeDev_7/plugins/com.ingenico.ingedev.telium.bin.win32_7.4.1.4/os/win32/GNUARM/arm-elf/lib/thumb/soft/interwork/libc.a(mallocr.o)
                                0x6d2 (size before relaxing)
 .debug_str     0x00001eb9       0x7b C:/Program Files/Ingenico/IngeDev_7/plugins/com.ingenico.ingedev.telium.bin.win32_7.4.1.4/os/win32/GNUARM/arm-elf/lib/thumb/soft/interwork/libc.a(mlock.o)
                                0x504 (size before relaxing)
 .debug_str     0x00001f34       0x59 C:/Program Files/Ingenico/IngeDev_7/plugins/com.ingenico.ingedev.telium.bin.win32_7.4.1.4/os/win32/GNUARM/arm-elf/lib/thumb/soft/interwork/libc.a(sbrkr.o)
                                0x4f2 (size before relaxing)
 .debug_str     0x00001f8d       0x77 C:/Program Files/Ingenico/IngeDev_7/plugins/com.ingenico.ingedev.telium.bin.win32_7.4.1.4/os/win32/GNUARM/arm-elf/lib/thumb/soft/interwork/libc.a(stdio.o)
                                0x51e (size before relaxing)
 .debug_str     0x00002004       0x5a C:/Program Files/Ingenico/IngeDev_7/plugins/com.ingenico.ingedev.telium.bin.win32_7.4.1.4/os/win32/GNUARM/arm-elf/lib/thumb/soft/interwork/libc.a(writer.o)
                                0x4ef (size before relaxing)
 .debug_str     0x0000205e       0x51 C:/Program Files/Ingenico/IngeDev_7/plugins/com.ingenico.ingedev.telium.bin.win32_7.4.1.4/os/win32/GNUARM/arm-elf/lib/thumb/soft/interwork/libc.a(closer.o)
                                0x4df (size before relaxing)
 .debug_str     0x000020af       0x3c C:/Program Files/Ingenico/IngeDev_7/plugins/com.ingenico.ingedev.telium.bin.win32_7.4.1.4/os/win32/GNUARM/arm-elf/lib/thumb/soft/interwork/libc.a(freer.o)
                                0x624 (size before relaxing)
 .debug_str     0x000020eb       0x51 C:/Program Files/Ingenico/IngeDev_7/plugins/com.ingenico.ingedev.telium.bin.win32_7.4.1.4/os/win32/GNUARM/arm-elf/lib/thumb/soft/interwork/libc.a(lseekr.o)
                                0x4f4 (size before relaxing)
 .debug_str     0x0000213c       0x4f C:/Program Files/Ingenico/IngeDev_7/plugins/com.ingenico.ingedev.telium.bin.win32_7.4.1.4/os/win32/GNUARM/arm-elf/lib/thumb/soft/interwork/libc.a(readr.o)
                                0x4ed (size before relaxing)
 .debug_str     0x0000218b       0x81 C:/Program Files/Ingenico/IngeDev_7/plugins/com.ingenico.ingedev.telium.bin.win32_7.4.1.4/os/win32/GNUARM/arm-elf/lib/thumb/soft/interwork/libc.a(reent.o)
                                0x520 (size before relaxing)
 .debug_str     0x0000220c       0xc3 C:/Program Files/Ingenico/IngeDev_7/plugins/com.ingenico.ingedev.telium.bin.win32_7.4.1.4/os/win32/GNUARM/lib/gcc/arm-elf/3.4.3/thumb/soft/interwork/libgcc.a(_muldi3.o)
                                0x15f (size before relaxing)

.comment        0x00000000      0xc06
 .comment       0x00000000       0x12 Obj/DEBUG_T1/trc.o
 .comment       0x00000012       0x12 Obj/DEBUG_T1/tbx.o
 .comment       0x00000024       0x12 Obj/DEBUG_T1/tlm.o
 .comment       0x00000036       0x12 Obj/DEBUG_T1/tlmhmi.o
 .comment       0x00000048       0x12 Obj/DEBUG_T1/tlmmem.o
 .comment       0x0000005a       0x12 Obj/DEBUG_T1/std.o
 .comment       0x0000006c       0x12 Obj/DEBUG_T1/fmt.o
 .comment       0x0000007e       0x12 Obj/DEBUG_T1/dba.o
 .comment       0x00000090       0x12 Obj/DEBUG_T1/drv.o
 .comment       0x000000a2       0x12 Obj/DEBUG_T1/dlg.o
 .comment       0x000000b4       0x12 Obj/DEBUG_T1/Main.o
 .comment       0x000000c6       0x12 Obj/DEBUG_T1/sgm.o
 .comment       0x000000d8       0x12 Obj/DEBUG_T1/map.o
 .comment       0x000000ea       0x12 Obj/DEBUG_T1/dft.o
 .comment       0x000000fc       0x12 Obj/DEBUG_T1/rpt.o
 .comment       0x0000010e       0x12 Obj/DEBUG_T1/scr.o
 .comment       0x00000120       0x12 Obj/DEBUG_T1/str.o
 .comment       0x00000132       0x12 Obj/DEBUG_T1/hdl.o
 .comment       0x00000144       0x12 Obj/DEBUG_T1/val.o
 .comment       0x00000156       0x12 Obj/DEBUG_T1/adm.o
 .comment       0x00000168       0x12 Obj/DEBUG_T1/emv.o
 .comment       0x0000017a       0x12 Obj/DEBUG_T1/function.o
 .comment       0x0000018c       0x12 Obj/DEBUG_T1/iso.o
 .comment       0x0000019e       0x12 Obj/DEBUG_T1/log.o
 .comment       0x000001b0       0x12 Obj/DEBUG_T1/onl.o
 .comment       0x000001c2       0x12 Obj/DEBUG_T1/pmt.o
 .comment       0x000001d4       0x12 Obj/DEBUG_T1/req.o
 .comment       0x000001e6       0x12 Obj/DEBUG_T1/rev.o
 .comment       0x000001f8       0x12 Obj/DEBUG_T1/rsp.o
 .comment       0x0000020a       0x12 Obj/DEBUG_T1/tle.o
 .comment       0x0000021c       0x12 Obj/DEBUG_T1/cmm.o
 .comment       0x0000022e       0x12 Obj/DEBUG_T1/tlmchn.o
 .comment       0x00000240       0x12 Obj/DEBUG_T1/tlmcry.o
 .comment       0x00000252       0x12 Obj/DEBUG_T1/tlmemv.o
 .comment       0x00000264       0x12 Obj/DEBUG_T1/tcan0020.o
 .comment       0x00000276       0x12 Obj/DEBUG_T1/BRI.o
 .comment       0x00000288       0x12 Obj/DEBUG_T1/LineEncryption.o
 .comment       0x0000029a       0x12 Obj/DEBUG_T1/AES.o
 .comment       0x000002ac       0x12 Obj/DEBUG_T1/keyinject.o
 .comment       0x000002be       0x12 Obj/DEBUG_T1/prepaid.o
 .comment       0x000002d0       0x12 Obj/DEBUG_T1/logon.o
 .comment       0x000002e2       0x12 Obj/DEBUG_T1/rsagen.o
 .comment       0x000002f4       0x12 Obj/DEBUG_T1/prsa.o
 .comment       0x00000306       0x12 Obj/DEBUG_T1/bignum.o
 .comment       0x00000318       0x12 Obj/DEBUG_T1/havege.o
 .comment       0x0000032a       0x12 Obj/DEBUG_T1/timing.o
 .comment       0x0000033c       0x12 libs/GNU_ARM_DEBUG/RSA.lib(RSA_dec.o)
 .comment       0x0000034e       0x12 libs/GNU_ARM_DEBUG/RSA.lib(RSA_init.o)
 .comment       0x00000360       0x12 libs/GNU_ARM_DEBUG/RSA.lib(m_add.o)
 .comment       0x00000372       0x12 libs/GNU_ARM_DEBUG/RSA.lib(m_b2w.o)
 .comment       0x00000384       0x12 libs/GNU_ARM_DEBUG/RSA.lib(m_clr.o)
 .comment       0x00000396       0x12 libs/GNU_ARM_DEBUG/RSA.lib(m_cmp.o)
 .comment       0x000003a8       0x12 libs/GNU_ARM_DEBUG/RSA.lib(m_cpy.o)
 .comment       0x000003ba       0x12 libs/GNU_ARM_DEBUG/RSA.lib(m_div.o)
 .comment       0x000003cc       0x12 libs/GNU_ARM_DEBUG/RSA.lib(m_mem.o)
 .comment       0x000003de       0x12 libs/GNU_ARM_DEBUG/RSA.lib(m_modmul.o)
 .comment       0x000003f0       0x12 libs/GNU_ARM_DEBUG/RSA.lib(m_monexp.o)
 .comment       0x00000402       0x12 libs/GNU_ARM_DEBUG/RSA.lib(m_moninv.o)
 .comment       0x00000414       0x12 libs/GNU_ARM_DEBUG/RSA.lib(m_monmul.o)
 .comment       0x00000426       0x12 libs/GNU_ARM_DEBUG/RSA.lib(m_msb.o)
 .comment       0x00000438       0x12 libs/GNU_ARM_DEBUG/RSA.lib(m_mul.o)
 .comment       0x0000044a       0x12 libs/GNU_ARM_DEBUG/RSA.lib(m_mulsub.o)
 .comment       0x0000045c       0x12 libs/GNU_ARM_DEBUG/RSA.lib(m_rand.o)
 .comment       0x0000046e       0x12 libs/GNU_ARM_DEBUG/RSA.lib(m_red.o)
 .comment       0x00000480       0x12 libs/GNU_ARM_DEBUG/RSA.lib(m_shlx.o)
 .comment       0x00000492       0x12 libs/GNU_ARM_DEBUG/RSA.lib(m_shrx.o)
 .comment       0x000004a4       0x12 libs/GNU_ARM_DEBUG/RSA.lib(m_sub.o)
 .comment       0x000004b6       0x12 libs/GNU_ARM_DEBUG/RSA.lib(m_w2b.o)
 .comment       0x000004c8       0x12 C:/Program Files/SDK30/SDK 7.5.1/SDK/lib_gnu/eft30.lib(iam1.o)
 .comment       0x000004da       0x12 C:/Program Files/SDK30/SDK 7.5.1/SDK/lib_gnu/eft30.lib(atoi.o)
 .comment       0x000004ec       0x12 C:/Program Files/SDK30/SDK 7.5.1/SDK/lib_gnu/eft30.lib(extens119.o)
 .comment       0x000004fe       0x12 C:/Program Files/SDK30/SDK 7.5.1/SDK/lib_gnu/eft30.lib(extens5.o)
 .comment       0x00000510       0x12 C:/Program Files/SDK30/SDK 7.5.1/SDK/lib_gnu/eft30.lib(extens53.o)
 .comment       0x00000522       0x12 C:/Program Files/SDK30/SDK 7.5.1/SDK/lib_gnu/eft30.lib(extens87.o)
 .comment       0x00000534       0x12 C:/Program Files/SDK30/SDK 7.5.1/SDK/lib_gnu/eft30.lib(extens89.o)
 .comment       0x00000546       0x12 C:/Program Files/SDK30/SDK 7.5.1/SDK/lib_gnu/eft30.lib(extens90.o)
 .comment       0x00000558       0x12 C:/Program Files/SDK30/SDK 7.5.1/SDK/lib_gnu/eft30.lib(extens93.o)
 .comment       0x0000056a       0x12 C:/Program Files/SDK30/SDK 7.5.1/SDK/lib_gnu/eft30.lib(extens94.o)
 .comment       0x0000057c       0x12 C:/Program Files/SDK30/SDK 7.5.1/SDK/lib_gnu/eft30.lib(param17.o)
 .comment       0x0000058e       0x12 C:/Program Files/SDK30/SDK 7.5.1/SDK/lib_gnu/eft30.lib(param46.o)
 .comment       0x000005a0       0x12 C:/Program Files/SDK30/SDK 7.5.1/SDK/lib_gnu/eft30.lib(param72.o)
 .comment       0x000005b2       0x12 C:/Program Files/SDK30/SDK 7.5.1/SDK/lib_gnu/eft30.lib(crypto.o)
 .comment       0x000005c4       0x12 C:/Program Files/SDK30/SDK 7.5.1/SDK/lib_gnu/eft30.lib(pinpad10.o)
 .comment       0x000005d6       0x12 C:/Program Files/SDK30/SDK 7.5.1/SDK/lib_gnu/eft30.lib(pinpad12.o)
 .comment       0x000005e8       0x12 C:/Program Files/SDK30/SDK 7.5.1/SDK/lib_gnu/eft30.lib(pinpad15.o)
 .comment       0x000005fa       0x12 C:/Program Files/SDK30/SDK 7.5.1/SDK/lib_gnu/eft30.lib(pinpad8.o)
 .comment       0x0000060c       0x12 C:/Program Files/SDK30/SDK 7.5.1/SDK/lib_gnu/eft30.lib(pinpad9.o)
 .comment       0x0000061e       0x12 C:/Program Files/SDK30/SDK 7.5.1/SDK/lib_gnu/eft30.lib(sv21.o)
 .comment       0x00000630       0x12 C:/Program Files/SDK30/SDK 7.5.1/SDK/lib_gnu/eft30.lib(sv22.o)
 .comment       0x00000642       0x12 C:/Program Files/SDK30/SDK 7.5.1/SDK/lib_gnu/eft30.lib(sv23.o)
 .comment       0x00000654       0x12 C:/Program Files/SDK30/SDK 7.5.1/SDK/lib_gnu/eft30.lib(sv24.o)
 .comment       0x00000666       0x12 C:/Program Files/SDK30/SDK 7.5.1/SDK/lib_gnu/eft30.lib(sv25.o)
 .comment       0x00000678       0x12 C:/Program Files/SDK30/SDK 7.5.1/SDK/lib_gnu/eft30.lib(libgr1.o)
 .comment       0x0000068a       0x12 C:/Program Files/SDK30/SDK 7.5.1/SDK/lib_gnu/eft30.lib(libgr35.o)
 .comment       0x0000069c       0x12 C:/Program Files/SDK30/SDK 7.5.1/SDK/lib_gnu/eft30.lib(libgr40.o)
 .comment       0x000006ae       0x12 C:/Program Files/SDK30/SDK 7.5.1/SDK/lib_gnu/eft30.lib(libgr41.o)
 .comment       0x000006c0       0x12 C:/Program Files/SDK30/SDK 7.5.1/SDK/lib_gnu/eft30.lib(libgr49.o)
 .comment       0x000006d2       0x12 C:/Program Files/SDK30/SDK 7.5.1/SDK/lib_gnu/eft30.lib(libgr54.o)
 .comment       0x000006e4       0x12 C:/Program Files/SDK30/SDK 7.5.1/SDK/lib_gnu/eft30.lib(libgr55.o)
 .comment       0x000006f6       0x12 C:/Program Files/SDK30/SDK 7.5.1/SDK/lib_gnu/eft30.lib(libgr58.o)
 .comment       0x00000708       0x12 C:/Program Files/SDK30/SDK 7.5.1/SDK/lib_gnu/eft30.lib(libgr66.o)
 .comment       0x0000071a       0x12 C:/Program Files/SDK30/SDK 7.5.1/SDK/lib_gnu/eft30.lib(libgr68.o)
 .comment       0x0000072c       0x12 C:/Program Files/SDK30/SDK 7.5.1/SDK/lib_gnu/eft30.lib(libgr7.o)
 .comment       0x0000073e       0x12 C:/Program Files/SDK30/SDK 7.5.1/SDK/lib_gnu/eft30.lib(libgr8.o)
 .comment       0x00000750       0x12 C:/Program Files/SDK30/SDK 7.5.1/SDK/lib_gnu/eft30.lib(libgr82.o)
 .comment       0x00000762       0x12 C:/Program Files/SDK30/SDK 7.5.1/SDK/lib_gnu/eft30.lib(libgr83.o)
 .comment       0x00000774       0x12 C:/Program Files/SDK30/SDK 7.5.1/SDK/lib_gnu/eft30.lib(libgr86.o)
 .comment       0x00000786       0x12 C:/Program Files/SDK30/SDK 7.5.1/SDK/lib_gnu/eft30.lib(gprs.o)
 .comment       0x00000798       0x12 C:/Program Files/SDK30/SDK 7.5.1/SDK/lib_gnu/eft30.lib(LibAppli.o)
 .comment       0x000007aa       0x12 C:/Program Files/SDK30/SDK 7.5.1/SDK/lib_gnu/eft30.lib(iam.o)
 .comment       0x000007bc       0x12 C:/Program Files/SDK30/SDK 7.5.1/SDK/lib_gnu/eft30.lib(ctype.o)
 .comment       0x000007ce       0x12 C:/Program Files/SDK30/SDK 7.5.1/SDK/lib_gnu/eft30.lib(extens.o)
 .comment       0x000007e0       0x12 C:/Program Files/SDK30/SDK 7.5.1/SDK/lib_gnu/eft30.lib(param.o)
 .comment       0x000007f2       0x12 C:/Program Files/SDK30/SDK 7.5.1/SDK/lib_gnu/eft30.lib(pinpad.o)
 .comment       0x00000804       0x12 C:/Program Files/SDK30/SDK 7.5.1/SDK/lib_gnu/eft30.lib(sv.o)
 .comment       0x00000816       0x12 C:/Program Files/SDK30/SDK 7.5.1/SDK/lib_gnu/eft30.lib(libgr.o)
 .comment       0x00000828       0x12 C:/Program Files/SDK30/SDK 7.5.1/SDK/lib_gnu/AVL.lib(Proxy.o)
 .comment       0x0000083a       0x12 C:/Program Files/SDK30/SDK 7.5.1/SDK/lib_gnu/AVL.lib(Serializer.o)
 .comment       0x0000084c       0x12 C:/Program Files/SDK30/SDK 7.5.1/SDK/lib_gnu/AVL.lib(Serializer_Default.o)
 .comment       0x0000085e       0x12 C:/Program Files/SDK30/SDK 7.5.1/SDK/lib_gnu/AVL.lib(Serializer_Xml.o)
 .comment       0x00000870       0x12 C:/Program Files/SDK30/SDK 7.5.1/SDK/lib_gnu/AVL.lib(XMLs.o)
 .comment       0x00000882       0x12 C:/Program Files/SDK30/SDK 7.5.1/SDK/lib_gnu/AVL.lib(XMLs_Parser.o)
 .comment       0x00000894       0x12 C:/Program Files/SDK30/SDK 7.5.1/SDK/lib_gnu/AVL.lib(XMLs_ProcessData.o)
 .comment       0x000008a6       0x12 C:/Program Files/SDK30/SDK 7.5.1/SDK/lib_gnu/AVL.lib(Internal.o)
 .comment       0x000008b8       0x12 C:/Program Files/SDK30/SDK 7.5.1/SDK/lib_gnu/LinkLayerExeInterface.lib(LinkLayerServices.o)
 .comment       0x000008ca       0x12 C:/Program Files/SDK30/SDK 7.5.1/SDK/lib_gnu/SEC.lib(SECLibOpenClose.o)
 .comment       0x000008dc       0x12 C:/Program Files/SDK30/SDK 7.5.1/SDK/lib_gnu/SEC.lib(SEC1.o)
 .comment       0x000008ee       0x12 C:/Program Files/SDK30/SDK 7.5.1/SDK/lib_gnu/SEC.lib(SEC7.o)
 .comment       0x00000900       0x12 C:/Program Files/SDK30/SDK 7.5.1/SDK/lib_gnu/SEC.lib(SEC8.o)
 .comment       0x00000912       0x12 C:/Program Files/SDK30/SDK 7.5.1/SDK/lib_gnu/SEC.lib(SEC9.o)
 .comment       0x00000924       0x12 C:/Program Files/SDK30/SDK 7.5.1/SDK/lib_gnu/SEC.lib(SEC10.o)
 .comment       0x00000936       0x12 C:/Program Files/SDK30/SDK 7.5.1/SDK/lib_gnu/SEC.lib(SEC11.o)
 .comment       0x00000948       0x12 C:/Program Files/SDK30/SDK 7.5.1/SDK/lib_gnu/SEC.lib(SEC19.o)
 .comment       0x0000095a       0x12 C:/Program Files/SDK30/SDK 7.5.1/SDK/lib_gnu/SEC.lib(SEC20.o)
 .comment       0x0000096c       0x12 C:/Program Files/SDK30/SDK 7.5.1/SDK/lib_gnu/SEC.lib(SEC21.o)
 .comment       0x0000097e       0x12 C:/Program Files/SDK30/SDK 7.5.1/SDK/lib_gnu/SEC.lib(SEC22.o)
 .comment       0x00000990       0x12 C:/Program Files/SDK30/SDK 7.5.1/SDK/lib_gnu/SEC.lib(SEC23.o)
 .comment       0x000009a2       0x12 C:/Program Files/SDK30/SDK 7.5.1/SDK/lib_gnu/SEC.lib(SEC24.o)
 .comment       0x000009b4       0x12 C:/Program Files/SDK30/SDK 7.5.1/SDK/lib_gnu/SEC.lib(SEC25.o)
 .comment       0x000009c6       0x12 C:/Program Files/SDK30/SDK 7.5.1/SDK/lib_gnu/SEC.lib(SEC26.o)
 .comment       0x000009d8       0x12 C:/Program Files/SDK30/SDK 7.5.1/SDK/lib_gnu/SEC.lib(SEC28.o)
 .comment       0x000009ea       0x12 C:/Program Files/SDK30/SDK 7.5.1/SDK/lib_gnu/SEC.lib(SEC31.o)
 .comment       0x000009fc       0x12 C:/Program Files/SDK30/SDK 7.5.1/SDK/lib_gnu/SEC.lib(SEC32.o)
 .comment       0x00000a0e       0x12 C:/Program Files/SDK30/SDK 7.5.1/SDK/lib_gnu/SEC.lib(SEC34.o)
 .comment       0x00000a20       0x12 C:/Program Files/SDK30/SDK 7.5.1/SDK/lib_gnu/SEC.lib(SEC37.o)
 .comment       0x00000a32       0x12 C:/Program Files/SDK30/SDK 7.5.1/SDK/lib_gnu/IP_.lib(IP.o)
 .comment       0x00000a44       0x12 C:/Program Files/Ingenico/IngeDev_7/plugins/com.ingenico.ingedev.telium.bin.win32_7.4.1.4/os/win32/GNUARM/arm-elf/lib/thumb/soft/interwork/libc.a(exit.o)
 .comment       0x00000a56       0x12 C:/Program Files/Ingenico/IngeDev_7/plugins/com.ingenico.ingedev.telium.bin.win32_7.4.1.4/os/win32/GNUARM/arm-elf/lib/thumb/soft/interwork/libc.a(impure.o)
 .comment       0x00000a68       0x12 C:/Program Files/Ingenico/IngeDev_7/plugins/com.ingenico.ingedev.telium.bin.win32_7.4.1.4/os/win32/GNUARM/arm-elf/lib/thumb/soft/interwork/libc.a(rand.o)
 .comment       0x00000a7a       0x12 C:/Program Files/Ingenico/IngeDev_7/plugins/com.ingenico.ingedev.telium.bin.win32_7.4.1.4/os/win32/GNUARM/arm-elf/lib/thumb/soft/interwork/libc.a(strchr.o)
 .comment       0x00000a8c       0x12 C:/Program Files/Ingenico/IngeDev_7/plugins/com.ingenico.ingedev.telium.bin.win32_7.4.1.4/os/win32/GNUARM/arm-elf/lib/thumb/soft/interwork/libc.a(strlen.o)
 .comment       0x00000a9e       0x12 C:/Program Files/Ingenico/IngeDev_7/plugins/com.ingenico.ingedev.telium.bin.win32_7.4.1.4/os/win32/GNUARM/arm-elf/lib/thumb/soft/interwork/libc.a(strstr.o)
 .comment       0x00000ab0       0x12 C:/Program Files/Ingenico/IngeDev_7/plugins/com.ingenico.ingedev.telium.bin.win32_7.4.1.4/os/win32/GNUARM/arm-elf/lib/thumb/soft/interwork/libc.a(strtoul.o)
 .comment       0x00000ac2       0x12 C:/Program Files/Ingenico/IngeDev_7/plugins/com.ingenico.ingedev.telium.bin.win32_7.4.1.4/os/win32/GNUARM/arm-elf/lib/thumb/soft/interwork/libc.a(syscalls.o)
 .comment       0x00000ad4       0x12 C:/Program Files/Ingenico/IngeDev_7/plugins/com.ingenico.ingedev.telium.bin.win32_7.4.1.4/os/win32/GNUARM/arm-elf/lib/thumb/soft/interwork/libc.a(__call_atexit.o)
 .comment       0x00000ae6       0x12 C:/Program Files/Ingenico/IngeDev_7/plugins/com.ingenico.ingedev.telium.bin.win32_7.4.1.4/os/win32/GNUARM/arm-elf/lib/thumb/soft/interwork/libc.a(ctype_.o)
 .comment       0x00000af8       0x12 C:/Program Files/Ingenico/IngeDev_7/plugins/com.ingenico.ingedev.telium.bin.win32_7.4.1.4/os/win32/GNUARM/arm-elf/lib/thumb/soft/interwork/libc.a(errno.o)
 .comment       0x00000b0a       0x12 C:/Program Files/Ingenico/IngeDev_7/plugins/com.ingenico.ingedev.telium.bin.win32_7.4.1.4/os/win32/GNUARM/arm-elf/lib/thumb/soft/interwork/libc.a(findfp.o)
 .comment       0x00000b1c       0x12 C:/Program Files/Ingenico/IngeDev_7/plugins/com.ingenico.ingedev.telium.bin.win32_7.4.1.4/os/win32/GNUARM/arm-elf/lib/thumb/soft/interwork/libc.a(fwalk.o)
 .comment       0x00000b2e       0x12 C:/Program Files/Ingenico/IngeDev_7/plugins/com.ingenico.ingedev.telium.bin.win32_7.4.1.4/os/win32/GNUARM/arm-elf/lib/thumb/soft/interwork/libc.a(malloc.o)
 .comment       0x00000b40       0x12 C:/Program Files/Ingenico/IngeDev_7/plugins/com.ingenico.ingedev.telium.bin.win32_7.4.1.4/os/win32/GNUARM/arm-elf/lib/thumb/soft/interwork/libc.a(mallocr.o)
 .comment       0x00000b52       0x12 C:/Program Files/Ingenico/IngeDev_7/plugins/com.ingenico.ingedev.telium.bin.win32_7.4.1.4/os/win32/GNUARM/arm-elf/lib/thumb/soft/interwork/libc.a(mlock.o)
 .comment       0x00000b64       0x12 C:/Program Files/Ingenico/IngeDev_7/plugins/com.ingenico.ingedev.telium.bin.win32_7.4.1.4/os/win32/GNUARM/arm-elf/lib/thumb/soft/interwork/libc.a(sbrkr.o)
 .comment       0x00000b76       0x12 C:/Program Files/Ingenico/IngeDev_7/plugins/com.ingenico.ingedev.telium.bin.win32_7.4.1.4/os/win32/GNUARM/arm-elf/lib/thumb/soft/interwork/libc.a(stdio.o)
 .comment       0x00000b88       0x12 C:/Program Files/Ingenico/IngeDev_7/plugins/com.ingenico.ingedev.telium.bin.win32_7.4.1.4/os/win32/GNUARM/arm-elf/lib/thumb/soft/interwork/libc.a(writer.o)
 .comment       0x00000b9a       0x12 C:/Program Files/Ingenico/IngeDev_7/plugins/com.ingenico.ingedev.telium.bin.win32_7.4.1.4/os/win32/GNUARM/arm-elf/lib/thumb/soft/interwork/libc.a(closer.o)
 .comment       0x00000bac       0x12 C:/Program Files/Ingenico/IngeDev_7/plugins/com.ingenico.ingedev.telium.bin.win32_7.4.1.4/os/win32/GNUARM/arm-elf/lib/thumb/soft/interwork/libc.a(freer.o)
 .comment       0x00000bbe       0x12 C:/Program Files/Ingenico/IngeDev_7/plugins/com.ingenico.ingedev.telium.bin.win32_7.4.1.4/os/win32/GNUARM/arm-elf/lib/thumb/soft/interwork/libc.a(lseekr.o)
 .comment       0x00000bd0       0x12 C:/Program Files/Ingenico/IngeDev_7/plugins/com.ingenico.ingedev.telium.bin.win32_7.4.1.4/os/win32/GNUARM/arm-elf/lib/thumb/soft/interwork/libc.a(readr.o)
 .comment       0x00000be2       0x12 C:/Program Files/Ingenico/IngeDev_7/plugins/com.ingenico.ingedev.telium.bin.win32_7.4.1.4/os/win32/GNUARM/arm-elf/lib/thumb/soft/interwork/libc.a(reent.o)
 .comment       0x00000bf4       0x12 C:/Program Files/Ingenico/IngeDev_7/plugins/com.ingenico.ingedev.telium.bin.win32_7.4.1.4/os/win32/GNUARM/lib/gcc/arm-elf/3.4.3/thumb/soft/interwork/libgcc.a(_muldi3.o)

.debug_ranges   0x00000000       0x40
 .debug_ranges  0x00000000       0x40 C:/Program Files/Ingenico/IngeDev_7/plugins/com.ingenico.ingedev.telium.bin.win32_7.4.1.4/os/win32/GNUARM/lib/gcc/arm-elf/3.4.3/thumb/soft/interwork/libgcc.a(_muldi3.o)
